ARM GAS  C:\Users\jlabe\AppData\Local\Temp\ccJbzXZ1.s 			page 1


   1              		.syntax unified
   2              		.cpu cortex-m4
   3              		.eabi_attribute 27, 1
   4              		.fpu fpv4-sp-d16
   5              		.eabi_attribute 20, 1
   6              		.eabi_attribute 21, 1
   7              		.eabi_attribute 23, 3
   8              		.eabi_attribute 24, 1
   9              		.eabi_attribute 25, 1
  10              		.eabi_attribute 26, 1
  11              		.eabi_attribute 30, 1
  12              		.eabi_attribute 34, 1
  13              		.eabi_attribute 18, 4
  14              		.thumb
  15              		.syntax unified
  16              		.file	"Communication.c"
  17              		.text
  18              	.Ltext0:
  19              		.cfi_sections	.debug_frame
  20              		.section	.text.BMI160BurstWrite,"ax",%progbits
  21              		.align	2
  22              		.global	BMI160BurstWrite
  23              		.thumb
  24              		.thumb_func
  25              		.type	BMI160BurstWrite, %function
  26              	BMI160BurstWrite:
  27              	.LFB703:
  28              		.file 1 "Communication.c"
   1:Communication.c **** /* Communication
   2:Communication.c **** 
   3:Communication.c **** Notes:
   4:Communication.c **** Baud rate de l'UART: 115200
   5:Communication.c **** Très "inspiré" de l'exemple 3.5 de PSoC 6 101.
   6:Communication.c **** 
   7:Communication.c **** Mises-à-jours: 
   8:Communication.c **** * Tâche de lecture de l'accéléromètre accomplie
   9:Communication.c **** 
  10:Communication.c **** À faire:
  11:Communication.c **** * À personaliser avec les fonctionnalités désirées.
  12:Communication.c **** * Trouver librairie de MAX
  13:Communication.c **** * Lire de MAX
  14:Communication.c **** * Connecter MAX
  15:Communication.c **** 
  16:Communication.c **** Problèmes:
  17:Communication.c **** * le main ne compile pas lol (voir ligne 116).
  18:Communication.c **** */
  19:Communication.c **** 
  20:Communication.c **** 
  21:Communication.c **** #include "project.h"
  22:Communication.c **** #include "FreeRTOS.h"
  23:Communication.c **** #include "task.h"
  24:Communication.c **** #include <stdio.h>
  25:Communication.c **** #include <stdlib.h>
  26:Communication.c **** #include "bmi160.h"
  27:Communication.c **** #include "Communication.h"
  28:Communication.c **** 
  29:Communication.c **** uint8_t MAX30102Read (uint8_t address){
ARM GAS  C:\Users\jlabe\AppData\Local\Temp\ccJbzXZ1.s 			page 2


  30:Communication.c **** 
  31:Communication.c ****     I2C_1_MasterSendStart(MAX30102_I2C_ADDR,CY_SCB_I2C_WRITE_XFER,I2C_TIMEOUT);
  32:Communication.c ****     I2C_1_MasterWriteByte(address,I2C_TIMEOUT);  
  33:Communication.c ****     I2C_1_MasterSendReStart(MAX30102_I2C_ADDR,CY_SCB_I2C_READ_XFER,I2C_TIMEOUT);
  34:Communication.c ****     
  35:Communication.c ****     uint8_t regValue=0;
  36:Communication.c ****     
  37:Communication.c ****     I2C_1_MasterReadByte(CY_SCB_I2C_MASTER_DATA_NAK,(uint8_t*)&regValue,I2C_TIMEOUT);
  38:Communication.c ****     I2C_1_MasterSendStop(I2C_TIMEOUT);  
  39:Communication.c ****     
  40:Communication.c ****     return regValue;
  41:Communication.c ****     
  42:Communication.c **** }
  43:Communication.c **** 
  44:Communication.c **** void MAX30102Write(uint8_t address, uint8_t data){ 
  45:Communication.c ****     
  46:Communication.c ****     I2C_1_MasterSendStart(MAX30102_I2C_ADDR,CY_SCB_I2C_WRITE_XFER,I2C_TIMEOUT);
  47:Communication.c ****     I2C_1_MasterWriteByte(address,I2C_TIMEOUT);        
  48:Communication.c ****     I2C_1_MasterWriteByte(data,I2C_TIMEOUT);         
  49:Communication.c ****     I2C_1_MasterSendStop(I2C_TIMEOUT);   
  50:Communication.c ****     
  51:Communication.c **** } 
  52:Communication.c **** 
  53:Communication.c **** void MAX30102ReadMultipleBytes(uint8_t baseAddress, uint8_t *buffer, uint8_t length)
  54:Communication.c **** {
  55:Communication.c ****     I2C_1_MasterSendStart(MAX30102_I2C_ADDR,CY_SCB_I2C_WRITE_XFER,I2C_TIMEOUT); 
  56:Communication.c ****     I2C_1_MasterWriteByte(baseAddress,I2C_TIMEOUT);       
  57:Communication.c ****     I2C_1_MasterSendReStart(MAX30102_I2C_ADDR,CY_SCB_I2C_READ_XFER,I2C_TIMEOUT);
  58:Communication.c ****     uint8_t idx = 0;
  59:Communication.c ****     for(idx=0 ; idx < length-1 ; idx++){ 
  60:Communication.c ****         I2C_1_MasterReadByte(CY_SCB_I2C_ACK,(uint8_t*)&buffer[idx],I2C_TIMEOUT);  
  61:Communication.c ****     }
  62:Communication.c ****     I2C_1_MasterReadByte(CY_SCB_I2C_NAK,(uint8_t*)&buffer[idx],I2C_TIMEOUT);
  63:Communication.c ****     I2C_1_MasterSendStop(I2C_TIMEOUT); 
  64:Communication.c **** }
  65:Communication.c **** 
  66:Communication.c **** void MAX30102ReadFIFO16bits(uint16_t *data_red, uint16_t *data_ir)
  67:Communication.c **** {
  68:Communication.c ****      
  69:Communication.c ****     //max30102 lit 3 bytes pour red et 3 bytes pour ir (24bit chaque)
  70:Communication.c ****     
  71:Communication.c ****     uint8_t temp_buffer[6]; //contient 3 bytes de red (0,1,2) suivis de 3 bytes de ir (3,4,5)
  72:Communication.c ****     //uint32_t temp;
  73:Communication.c ****     uint16_t temp; //on peut trash 1 byte si faible courant dans LED
  74:Communication.c ****     
  75:Communication.c ****     MAX30102Read(REG_INTR_STATUS_1);
  76:Communication.c ****         for (int i = 0 ; i < BUFFER_SIZE ; i++){
  77:Communication.c ****             data_red[i] = 0; //initialisation
  78:Communication.c ****             data_ir[i] = 0;
  79:Communication.c ****             
  80:Communication.c ****       
  81:Communication.c ****             MAX30102ReadMultipleBytes(REG_FIFO_DATA, &temp_buffer, 6);
  82:Communication.c ****             
  83:Communication.c ****             temp = temp_buffer[0]; //remplissage de 8bits
  84:Communication.c ****             temp <<= 16; //bitshift de 16bits (supprime un byte si 16bit)
  85:Communication.c ****             data_red[i] += temp; //ajout de 8 nouveau bits
  86:Communication.c ****             temp = temp_buffer[1]; //remplissage de 8bits
ARM GAS  C:\Users\jlabe\AppData\Local\Temp\ccJbzXZ1.s 			page 3


  87:Communication.c ****             temp <<= 8; //bitshift de 8bits
  88:Communication.c ****             data_red[i] += temp; //ajout de 8 nouveau bits
  89:Communication.c ****             temp = temp_buffer[2]; //remplissage de 8bits
  90:Communication.c ****             data_red[i] += temp; //ajout de 8bits pour un total de 24bits sur 32
  91:Communication.c ****             
  92:Communication.c ****             temp = temp_buffer[3]; //idem
  93:Communication.c ****             temp <<= 16;
  94:Communication.c ****             data_ir[i] += temp;
  95:Communication.c ****             temp = temp_buffer[4];
  96:Communication.c ****             temp <<= 8;
  97:Communication.c ****             data_ir[i] += temp;
  98:Communication.c ****             temp = temp_buffer[5];
  99:Communication.c ****             data_ir[i] += temp;
 100:Communication.c ****             
 101:Communication.c ****             data_ir[i] &= UN_MIN; //Masque MSB
 102:Communication.c ****             data_red[i] &= UN_MIN;
 103:Communication.c ****         }
 104:Communication.c **** }
 105:Communication.c **** 
 106:Communication.c **** 
 107:Communication.c **** void MAX30102ReadFIFO32bits(uint32_t *data_red, uint32_t *data_ir)
 108:Communication.c **** {
 109:Communication.c **** 
 110:Communication.c ****     //max30102 lit 3 bytes pour red et 3 bytes pour ir (24bit chaque)
 111:Communication.c ****     
 112:Communication.c ****     uint8_t temp_buffer[6]; //contient 3 bytes de red (0,1,2) suivis de 3 bytes de ir (3,4,5)
 113:Communication.c ****     uint32_t temp; 
 114:Communication.c ****     
 115:Communication.c ****     //while(MAX30102Read(REG_INTR_STATUS_1) == 0x40)
 116:Communication.c ****     
 117:Communication.c ****     *data_red = 0; //initialisation
 118:Communication.c ****     *data_ir = 0;
 119:Communication.c **** 
 120:Communication.c ****     MAX30102ReadMultipleBytes(REG_FIFO_DATA, temp_buffer, 6);
 121:Communication.c ****     
 122:Communication.c ****     temp = temp_buffer[0]; //remplissage de 8bits
 123:Communication.c ****     temp <<= 16; //bitshift de 16bits (supprime un byte si 16bit)
 124:Communication.c ****     *data_red += temp; //ajout de 8 nouveau bits
 125:Communication.c ****     temp = temp_buffer[1]; //remplissage de 8bits
 126:Communication.c ****     temp <<= 8; //bitshift de 8bits
 127:Communication.c ****     *data_red += temp; //ajout de 8 nouveau bits
 128:Communication.c ****     temp = temp_buffer[2]; //remplissage de 8bits
 129:Communication.c ****     *data_red += temp; //ajout de 8bits pour un total de 24bits sur 32
 130:Communication.c ****     
 131:Communication.c ****     temp = temp_buffer[3]; //idem
 132:Communication.c ****     temp <<= 16;
 133:Communication.c ****     *data_ir += temp;
 134:Communication.c ****     temp = temp_buffer[4];
 135:Communication.c ****     temp <<= 8;
 136:Communication.c ****     *data_ir += temp;
 137:Communication.c ****     temp = temp_buffer[5];
 138:Communication.c ****     *data_ir += temp;
 139:Communication.c ****     
 140:Communication.c ****     *data_ir &= UN_MIN; //Masque MSB
 141:Communication.c ****     *data_red &= UN_MIN;
 142:Communication.c ****     
 143:Communication.c **** }
ARM GAS  C:\Users\jlabe\AppData\Local\Temp\ccJbzXZ1.s 			page 4


 144:Communication.c **** 
 145:Communication.c **** void MAX30102Config()
 146:Communication.c **** {
 147:Communication.c ****     //REG_INTR_ENABLE_1
 148:Communication.c ****     //PARAMS: A_FULL, PPG_RDY, ALC_OVF    
 149:Communication.c ****     MAX30102Write(REG_INTR_ENABLE_1,
 150:Communication.c ****         (A_FULL_YES << A_FULL_RM_BIT)|(PPG_RDY_YES << PPG_RDY_RM_BIT)
 151:Communication.c ****         |(ALC_OVF_NO << ALC_OVF_RM_BIT));
 152:Communication.c ****     
 153:Communication.c ****     //REG_INTR_ENABLE_2
 154:Communication.c ****     //PARAMS: DIE_TEMP_READY
 155:Communication.c ****     MAX30102Write(REG_INTR_ENABLE_2,
 156:Communication.c ****         (DIE_TEMP_READY_NO << DIE_TEMP_READY_RM_BIT));
 157:Communication.c **** 
 158:Communication.c ****     //REG_FIFO_WR_PTR
 159:Communication.c ****     //PARAMS: Position du pointeur FIFO pour l'écriture (de 0 à 4)
 160:Communication.c ****     MAX30102Write(REG_FIFO_WR_PTR,0x00); 
 161:Communication.c **** 
 162:Communication.c ****     //REG_OVF_COUNTER
 163:Communication.c ****     //PARAMS: Nombre de samples perdus lorsqu'on lit un FIFO remplis (de 0 à 4 pour 0-31 perdus).
 164:Communication.c ****     MAX30102Write(REG_OVF_COUNTER,0x00); 
 165:Communication.c ****     
 166:Communication.c ****     //REG_FIFO_RD_PTR
 167:Communication.c ****     //PARAMS: Position du pointeur FIFO pour l'écriture (de 0 à 4)
 168:Communication.c ****     MAX30102Write(REG_FIFO_RD_PTR,0x00);  
 169:Communication.c **** 
 170:Communication.c ****     //REG_FIFO_CONFIG
 171:Communication.c ****     //PARAMS: SMP_AVE, FIFO_ROLLOVER_EN, FIFO_A_FULL
 172:Communication.c ****     MAX30102Write(REG_FIFO_CONFIG,
 173:Communication.c ****         (SMP_AVE_2 << SMP_AVE_RM_BIT) | (FIFO_ROLLOVER_EN_0 << FIFO_A_FULL_RM_BIT)
 174:Communication.c ****         | (FIFO_A_FULL_15 << FIFO_A_FULL_RM_BIT));
 175:Communication.c **** 
 176:Communication.c ****     //REG_MODE_CONFIG
 177:Communication.c ****     //PARAMS: SHDN, RESET, MODE
 178:Communication.c ****     MAX30102Write(REG_MODE_CONFIG,
 179:Communication.c ****     (SHDN_NO << SHDN_RM_BIT)|(RESET_NO << RESET_RM_BIT)|(MODE_SPO2 << MODE_RM_BIT));
 180:Communication.c **** 
 181:Communication.c ****     //REG_SPO2_CONFIG
 182:Communication.c ****     //PARAMS: SPO2_ADC_RGE, SPO2_SR, LED_PW
 183:Communication.c ****     MAX30102Write(REG_SPO2_CONFIG,
 184:Communication.c ****     (SPO2_ADC_RGE_4096 << 5)|(SPO2_SR_100 << 2)|(LED_PW_411));
 185:Communication.c **** 
 186:Communication.c ****     //REG_LED1_PA
 187:Communication.c ****     MAX30102Write(REG_LED1_PA,(uint8_t) 2/0.2);   
 188:Communication.c **** 
 189:Communication.c ****     //REG_LED2_PA
 190:Communication.c ****     MAX30102Write(REG_LED2_PA,(uint8_t) 2/0.2);   
 191:Communication.c **** 
 192:Communication.c ****     //REG_PILOT_PA
 193:Communication.c ****     MAX30102Write(REG_PILOT_PA,(uint8_t) 25/0.2); 
 194:Communication.c ****     
 195:Communication.c ****     //REG_TEMP_CONFIG
 196:Communication.c ****     MAX30102Write(REG_TEMP_CONFIG,TEMP_EN_YES << TEMP_EN_RM_BIT);
 197:Communication.c **** 
 198:Communication.c **** }
 199:Communication.c **** 
 200:Communication.c **** void MAX30102Reset(){
ARM GAS  C:\Users\jlabe\AppData\Local\Temp\ccJbzXZ1.s 			page 5


 201:Communication.c ****     MAX30102Write(REG_MODE_CONFIG, RESET_YES << RESET_RM_BIT);
 202:Communication.c **** }
 203:Communication.c **** 
 204:Communication.c **** void change_RED_LED_amp(uint8_t amp){
 205:Communication.c ****     
 206:Communication.c ****     MAX30102Write(REG_LED1_PA, amp); 
 207:Communication.c **** }
 208:Communication.c **** 
 209:Communication.c **** void MAX30102ReadTemperature(uint8_t *buffer){
 210:Communication.c ****     
 211:Communication.c ****     MAX30102ReadMultipleBytes(REG_TEMP_INTR, buffer, 8);
 212:Communication.c **** 
 213:Communication.c **** }
 214:Communication.c **** 
 215:Communication.c **** 
 216:Communication.c **** void MAX30102Task(void *arg){
 217:Communication.c ****     (void)arg;
 218:Communication.c ****     
 219:Communication.c ****     uint32_t red_LED_buffer [BUFFER_SIZE];
 220:Communication.c ****     uint32_t ir_LED_buffer [BUFFER_SIZE]; 
 221:Communication.c ****     uint16_t i = 0;
 222:Communication.c ****     //uint8_t temperature;
 223:Communication.c ****     
 224:Communication.c ****     while(1){
 225:Communication.c ****         if(i != BUFFER_SIZE){
 226:Communication.c ****             i++;
 227:Communication.c ****         }
 228:Communication.c ****         while(Cy_GPIO_Read(GPIO_PRT13,7u) == 1){};
 229:Communication.c ****         MAX30102ReadFIFO32bits(&red_LED_buffer[i], &ir_LED_buffer[i]);
 230:Communication.c ****         printf("i: %u RED : %u  IR  : %u  \r\n",i,red_LED_buffer[i],ir_LED_buffer[i]);
 231:Communication.c **** 
 232:Communication.c ****         vTaskDelay(10);
 233:Communication.c ****         
 234:Communication.c ****     }
 235:Communication.c **** }
 236:Communication.c **** 
 237:Communication.c **** struct bmi160_dev bmi160Dev;
 238:Communication.c **** 
 239:Communication.c **** int8_t BMI160BurstWrite(uint8_t dev_addr, uint8_t reg_addr,uint8_t *data, uint16_t len)
 240:Communication.c **** {  
  29              		.loc 1 240 0
  30              		.cfi_startproc
  31              		@ args = 0, pretend = 0, frame = 0
  32              		@ frame_needed = 0, uses_anonymous_args = 0
  33              	.LVL0:
  34 0000 2DE9F041 		push	{r4, r5, r6, r7, r8, lr}
  35              		.cfi_def_cfa_offset 24
  36              		.cfi_offset 4, -24
  37              		.cfi_offset 5, -20
  38              		.cfi_offset 6, -16
  39              		.cfi_offset 7, -12
  40              		.cfi_offset 8, -8
  41              		.cfi_offset 14, -4
  42 0004 82B0     		sub	sp, sp, #8
  43              		.cfi_def_cfa_offset 32
  44 0006 8846     		mov	r8, r1
  45 0008 1646     		mov	r6, r2
ARM GAS  C:\Users\jlabe\AppData\Local\Temp\ccJbzXZ1.s 			page 6


  46 000a 1D46     		mov	r5, r3
 241:Communication.c ****     Cy_SCB_I2C_MasterSendStart(I2C_2_HW,dev_addr,CY_SCB_I2C_WRITE_XFER,0,&I2C_2_context);
  47              		.loc 1 241 0
  48 000c 114C     		ldr	r4, .L5
  49 000e 124F     		ldr	r7, .L5+4
  50 0010 0097     		str	r7, [sp]
  51 0012 0023     		movs	r3, #0
  52              	.LVL1:
  53 0014 1A46     		mov	r2, r3
  54              	.LVL2:
  55 0016 0146     		mov	r1, r0
  56              	.LVL3:
  57 0018 2046     		mov	r0, r4
  58              	.LVL4:
  59 001a FFF7FEFF 		bl	Cy_SCB_I2C_MasterSendStart
  60              	.LVL5:
 242:Communication.c ****     Cy_SCB_I2C_MasterWriteByte(I2C_2_HW,reg_addr,0,&I2C_2_context);
  61              		.loc 1 242 0
  62 001e 3B46     		mov	r3, r7
  63 0020 0022     		movs	r2, #0
  64 0022 4146     		mov	r1, r8
  65 0024 2046     		mov	r0, r4
  66 0026 FFF7FEFF 		bl	Cy_SCB_I2C_MasterWriteByte
  67              	.LVL6:
  68              	.LBB34:
 243:Communication.c ****     for(int i = 0;i<len; i++)
  69              		.loc 1 243 0
  70 002a 0024     		movs	r4, #0
  71 002c 06E0     		b	.L2
  72              	.LVL7:
  73              	.L3:
 244:Communication.c ****     { 
 245:Communication.c ****         Cy_SCB_I2C_MasterWriteByte(I2C_2_HW,data[i],0,&I2C_2_context);
  74              		.loc 1 245 0 discriminator 3
  75 002e 0A4B     		ldr	r3, .L5+4
  76 0030 0022     		movs	r2, #0
  77 0032 315D     		ldrb	r1, [r6, r4]	@ zero_extendqisi2
  78 0034 0748     		ldr	r0, .L5
  79 0036 FFF7FEFF 		bl	Cy_SCB_I2C_MasterWriteByte
  80              	.LVL8:
 243:Communication.c ****     for(int i = 0;i<len; i++)
  81              		.loc 1 243 0 discriminator 3
  82 003a 0134     		adds	r4, r4, #1
  83              	.LVL9:
  84              	.L2:
 243:Communication.c ****     for(int i = 0;i<len; i++)
  85              		.loc 1 243 0 is_stmt 0 discriminator 1
  86 003c AC42     		cmp	r4, r5
  87 003e F6DB     		blt	.L3
  88              	.LBE34:
 246:Communication.c ****     }
 247:Communication.c ****     
 248:Communication.c ****     Cy_SCB_I2C_MasterSendStop(I2C_2_HW,0,&I2C_2_context);
  89              		.loc 1 248 0 is_stmt 1
  90 0040 054A     		ldr	r2, .L5+4
  91 0042 0021     		movs	r1, #0
  92 0044 0348     		ldr	r0, .L5
ARM GAS  C:\Users\jlabe\AppData\Local\Temp\ccJbzXZ1.s 			page 7


  93 0046 FFF7FEFF 		bl	Cy_SCB_I2C_MasterSendStop
  94              	.LVL10:
 249:Communication.c ****     
 250:Communication.c ****     return 0;
 251:Communication.c **** }
  95              		.loc 1 251 0
  96 004a 0020     		movs	r0, #0
  97 004c 02B0     		add	sp, sp, #8
  98              		.cfi_def_cfa_offset 24
  99              		@ sp needed
 100 004e BDE8F081 		pop	{r4, r5, r6, r7, r8, pc}
 101              	.LVL11:
 102              	.L6:
 103 0052 00BF     		.align	2
 104              	.L5:
 105 0054 00006340 		.word	1080229888
 106 0058 00000000 		.word	I2C_2_context
 107              		.cfi_endproc
 108              	.LFE703:
 109              		.size	BMI160BurstWrite, .-BMI160BurstWrite
 110              		.section	.text.BMI160BurstRead,"ax",%progbits
 111              		.align	2
 112              		.global	BMI160BurstRead
 113              		.thumb
 114              		.thumb_func
 115              		.type	BMI160BurstRead, %function
 116              	BMI160BurstRead:
 117              	.LFB704:
 252:Communication.c **** 
 253:Communication.c **** // This function supports the BMP180 library and read I2C Registers
 254:Communication.c **** int8_t BMI160BurstRead(uint8_t dev_addr, uint8_t reg_addr,uint8_t *data, uint16_t len)
 255:Communication.c **** {   
 118              		.loc 1 255 0
 119              		.cfi_startproc
 120              		@ args = 0, pretend = 0, frame = 0
 121              		@ frame_needed = 0, uses_anonymous_args = 0
 122              	.LVL12:
 123 0000 2DE9F043 		push	{r4, r5, r6, r7, r8, r9, lr}
 124              		.cfi_def_cfa_offset 28
 125              		.cfi_offset 4, -28
 126              		.cfi_offset 5, -24
 127              		.cfi_offset 6, -20
 128              		.cfi_offset 7, -16
 129              		.cfi_offset 8, -12
 130              		.cfi_offset 9, -8
 131              		.cfi_offset 14, -4
 132 0004 83B0     		sub	sp, sp, #12
 133              		.cfi_def_cfa_offset 40
 134 0006 8046     		mov	r8, r0
 135 0008 8946     		mov	r9, r1
 136 000a 1646     		mov	r6, r2
 137 000c 1D46     		mov	r5, r3
 256:Communication.c ****     Cy_SCB_I2C_MasterSendStart(I2C_2_HW,dev_addr,CY_SCB_I2C_WRITE_XFER,0,&I2C_2_context);
 138              		.loc 1 256 0
 139 000e 1B4C     		ldr	r4, .L11
 140 0010 1B4F     		ldr	r7, .L11+4
 141 0012 0097     		str	r7, [sp]
ARM GAS  C:\Users\jlabe\AppData\Local\Temp\ccJbzXZ1.s 			page 8


 142 0014 0023     		movs	r3, #0
 143              	.LVL13:
 144 0016 1A46     		mov	r2, r3
 145              	.LVL14:
 146 0018 0146     		mov	r1, r0
 147              	.LVL15:
 148 001a 2046     		mov	r0, r4
 149              	.LVL16:
 150 001c FFF7FEFF 		bl	Cy_SCB_I2C_MasterSendStart
 151              	.LVL17:
 257:Communication.c ****     Cy_SCB_I2C_MasterWriteByte(I2C_2_HW,reg_addr,0,&I2C_2_context);
 152              		.loc 1 257 0
 153 0020 3B46     		mov	r3, r7
 154 0022 0022     		movs	r2, #0
 155 0024 4946     		mov	r1, r9
 156 0026 2046     		mov	r0, r4
 157 0028 FFF7FEFF 		bl	Cy_SCB_I2C_MasterWriteByte
 158              	.LVL18:
 258:Communication.c ****     Cy_SCB_I2C_MasterSendReStart(I2C_2_HW,dev_addr,CY_SCB_I2C_READ_XFER,0,&I2C_2_context);
 159              		.loc 1 258 0
 160 002c 0097     		str	r7, [sp]
 161 002e 0023     		movs	r3, #0
 162 0030 0122     		movs	r2, #1
 163 0032 4146     		mov	r1, r8
 164 0034 2046     		mov	r0, r4
 165 0036 FFF7FEFF 		bl	Cy_SCB_I2C_MasterSendReStart
 166              	.LVL19:
 167              	.LBB35:
 259:Communication.c ****     for(int i = 0;i<len-1; i++)
 168              		.loc 1 259 0
 169 003a 0024     		movs	r4, #0
 170 003c 08E0     		b	.L8
 171              	.LVL20:
 172              	.L9:
 260:Communication.c ****     {
 261:Communication.c ****         Cy_SCB_I2C_MasterReadByte(I2C_2_HW,CY_SCB_I2C_ACK,&data[i],0,&I2C_2_context);
 173              		.loc 1 261 0 discriminator 3
 174 003e 104B     		ldr	r3, .L11+4
 175 0040 0093     		str	r3, [sp]
 176 0042 0023     		movs	r3, #0
 177 0044 3219     		adds	r2, r6, r4
 178 0046 1946     		mov	r1, r3
 179 0048 0C48     		ldr	r0, .L11
 180 004a FFF7FEFF 		bl	Cy_SCB_I2C_MasterReadByte
 181              	.LVL21:
 259:Communication.c ****     for(int i = 0;i<len-1; i++)
 182              		.loc 1 259 0 discriminator 3
 183 004e 0134     		adds	r4, r4, #1
 184              	.LVL22:
 185              	.L8:
 259:Communication.c ****     for(int i = 0;i<len-1; i++)
 186              		.loc 1 259 0 is_stmt 0 discriminator 1
 187 0050 6B1E     		subs	r3, r5, #1
 188 0052 9C42     		cmp	r4, r3
 189 0054 F3DB     		blt	.L9
 190              	.LBE35:
 262:Communication.c ****     }
ARM GAS  C:\Users\jlabe\AppData\Local\Temp\ccJbzXZ1.s 			page 9


 263:Communication.c ****     Cy_SCB_I2C_MasterReadByte(I2C_2_HW,CY_SCB_I2C_NAK,&data[len-1],0,&I2C_2_context);
 191              		.loc 1 263 0 is_stmt 1
 192 0056 1A46     		mov	r2, r3
 193 0058 084C     		ldr	r4, .L11
 194              	.LVL23:
 195 005a 094D     		ldr	r5, .L11+4
 196 005c 0095     		str	r5, [sp]
 197 005e 0023     		movs	r3, #0
 198 0060 3244     		add	r2, r2, r6
 199 0062 0121     		movs	r1, #1
 200 0064 2046     		mov	r0, r4
 201 0066 FFF7FEFF 		bl	Cy_SCB_I2C_MasterReadByte
 202              	.LVL24:
 264:Communication.c ****     
 265:Communication.c ****     Cy_SCB_I2C_MasterSendStop(I2C_2_HW,0,&I2C_2_context);
 203              		.loc 1 265 0
 204 006a 2A46     		mov	r2, r5
 205 006c 0021     		movs	r1, #0
 206 006e 2046     		mov	r0, r4
 207 0070 FFF7FEFF 		bl	Cy_SCB_I2C_MasterSendStop
 208              	.LVL25:
 266:Communication.c **** 
 267:Communication.c ****     return 0;
 268:Communication.c **** }
 209              		.loc 1 268 0
 210 0074 0020     		movs	r0, #0
 211 0076 03B0     		add	sp, sp, #12
 212              		.cfi_def_cfa_offset 28
 213              		@ sp needed
 214 0078 BDE8F083 		pop	{r4, r5, r6, r7, r8, r9, pc}
 215              	.LVL26:
 216              	.L12:
 217              		.align	2
 218              	.L11:
 219 007c 00006340 		.word	1080229888
 220 0080 00000000 		.word	I2C_2_context
 221              		.cfi_endproc
 222              	.LFE704:
 223              		.size	BMI160BurstRead, .-BMI160BurstRead
 224              		.section	.text.MAX30102Read,"ax",%progbits
 225              		.align	2
 226              		.global	MAX30102Read
 227              		.thumb
 228              		.thumb_func
 229              		.type	MAX30102Read, %function
 230              	MAX30102Read:
 231              	.LFB693:
  29:Communication.c **** 
 232              		.loc 1 29 0
 233              		.cfi_startproc
 234              		@ args = 0, pretend = 0, frame = 8
 235              		@ frame_needed = 0, uses_anonymous_args = 0
 236              	.LVL27:
 237 0000 70B5     		push	{r4, r5, r6, lr}
 238              		.cfi_def_cfa_offset 16
 239              		.cfi_offset 4, -16
 240              		.cfi_offset 5, -12
ARM GAS  C:\Users\jlabe\AppData\Local\Temp\ccJbzXZ1.s 			page 10


 241              		.cfi_offset 6, -8
 242              		.cfi_offset 14, -4
 243 0002 84B0     		sub	sp, sp, #16
 244              		.cfi_def_cfa_offset 32
 245 0004 0646     		mov	r6, r0
 246              	.LVL28:
 247              	.LBB36:
 248              	.LBB37:
 249              		.file 2 "Generated_Source\\PSoC6/I2C_1.h"
   1:Generated_Source\PSoC6/I2C_1.h **** /***************************************************************************//**
   2:Generated_Source\PSoC6/I2C_1.h **** * \file I2C_1.c
   3:Generated_Source\PSoC6/I2C_1.h **** * \version 2.0
   4:Generated_Source\PSoC6/I2C_1.h **** *
   5:Generated_Source\PSoC6/I2C_1.h **** *  This file provides constants and parameter values for the I2C component.
   6:Generated_Source\PSoC6/I2C_1.h **** *
   7:Generated_Source\PSoC6/I2C_1.h **** ********************************************************************************
   8:Generated_Source\PSoC6/I2C_1.h **** * \copyright
   9:Generated_Source\PSoC6/I2C_1.h **** * Copyright 2016-2017, Cypress Semiconductor Corporation. All rights reserved.
  10:Generated_Source\PSoC6/I2C_1.h **** * You may use this file only in accordance with the license, terms, conditions,
  11:Generated_Source\PSoC6/I2C_1.h **** * disclaimers, and limitations in the end user license agreement accompanying
  12:Generated_Source\PSoC6/I2C_1.h **** * the software package with which this file was provided.
  13:Generated_Source\PSoC6/I2C_1.h **** *******************************************************************************/
  14:Generated_Source\PSoC6/I2C_1.h **** 
  15:Generated_Source\PSoC6/I2C_1.h **** #if !defined(I2C_1_CY_SCB_I2C_PDL_H)
  16:Generated_Source\PSoC6/I2C_1.h **** #define I2C_1_CY_SCB_I2C_PDL_H
  17:Generated_Source\PSoC6/I2C_1.h **** 
  18:Generated_Source\PSoC6/I2C_1.h **** #include "cyfitter.h"
  19:Generated_Source\PSoC6/I2C_1.h **** #include "scb/cy_scb_i2c.h"
  20:Generated_Source\PSoC6/I2C_1.h **** 
  21:Generated_Source\PSoC6/I2C_1.h **** #if defined(__cplusplus)
  22:Generated_Source\PSoC6/I2C_1.h **** extern "C" {
  23:Generated_Source\PSoC6/I2C_1.h **** #endif
  24:Generated_Source\PSoC6/I2C_1.h **** 
  25:Generated_Source\PSoC6/I2C_1.h **** /***************************************
  26:Generated_Source\PSoC6/I2C_1.h **** *   Initial Parameter Constants
  27:Generated_Source\PSoC6/I2C_1.h **** ****************************************/
  28:Generated_Source\PSoC6/I2C_1.h **** 
  29:Generated_Source\PSoC6/I2C_1.h **** #define I2C_1_MODE               (0x2U)
  30:Generated_Source\PSoC6/I2C_1.h **** #define I2C_1_MODE_SLAVE_MASK    (0x1U)
  31:Generated_Source\PSoC6/I2C_1.h **** #define I2C_1_MODE_MASTER_MASK   (0x2U)
  32:Generated_Source\PSoC6/I2C_1.h **** 
  33:Generated_Source\PSoC6/I2C_1.h **** #define I2C_1_ENABLE_SLAVE       (0UL != (I2C_1_MODE & I2C_1_MODE_SLAVE_MASK))
  34:Generated_Source\PSoC6/I2C_1.h **** #define I2C_1_ENABLE_MASTER      (0UL != (I2C_1_MODE & I2C_1_MODE_MASTER_MASK))
  35:Generated_Source\PSoC6/I2C_1.h **** #define I2C_1_MANUAL_SCL_CONTROL (0U)
  36:Generated_Source\PSoC6/I2C_1.h **** 
  37:Generated_Source\PSoC6/I2C_1.h **** 
  38:Generated_Source\PSoC6/I2C_1.h **** /***************************************
  39:Generated_Source\PSoC6/I2C_1.h **** *        Function Prototypes
  40:Generated_Source\PSoC6/I2C_1.h **** ***************************************/
  41:Generated_Source\PSoC6/I2C_1.h **** /**
  42:Generated_Source\PSoC6/I2C_1.h **** * \addtogroup group_general
  43:Generated_Source\PSoC6/I2C_1.h **** * @{
  44:Generated_Source\PSoC6/I2C_1.h **** */
  45:Generated_Source\PSoC6/I2C_1.h **** /* Component only APIs. */
  46:Generated_Source\PSoC6/I2C_1.h **** void I2C_1_Start(void);
  47:Generated_Source\PSoC6/I2C_1.h **** 
  48:Generated_Source\PSoC6/I2C_1.h **** /* Basic functions. */
ARM GAS  C:\Users\jlabe\AppData\Local\Temp\ccJbzXZ1.s 			page 11


  49:Generated_Source\PSoC6/I2C_1.h **** __STATIC_INLINE cy_en_scb_i2c_status_t I2C_1_Init(cy_stc_scb_i2c_config_t const *config);
  50:Generated_Source\PSoC6/I2C_1.h **** __STATIC_INLINE void I2C_1_DeInit (void);
  51:Generated_Source\PSoC6/I2C_1.h **** __STATIC_INLINE void I2C_1_Enable (void);
  52:Generated_Source\PSoC6/I2C_1.h **** __STATIC_INLINE void I2C_1_Disable(void);
  53:Generated_Source\PSoC6/I2C_1.h **** 
  54:Generated_Source\PSoC6/I2C_1.h **** /* Data rate configuration functions. */
  55:Generated_Source\PSoC6/I2C_1.h **** __STATIC_INLINE uint32_t I2C_1_SetDataRate(uint32_t dataRateHz, uint32_t scbClockHz);
  56:Generated_Source\PSoC6/I2C_1.h **** __STATIC_INLINE uint32_t I2C_1_GetDataRate(uint32_t scbClockHz);
  57:Generated_Source\PSoC6/I2C_1.h **** 
  58:Generated_Source\PSoC6/I2C_1.h **** /* Register callbacks. */
  59:Generated_Source\PSoC6/I2C_1.h **** __STATIC_INLINE void I2C_1_RegisterEventCallback(cy_cb_scb_i2c_handle_events_t callback);
  60:Generated_Source\PSoC6/I2C_1.h **** #if (I2C_1_ENABLE_SLAVE)
  61:Generated_Source\PSoC6/I2C_1.h **** __STATIC_INLINE void I2C_1_RegisterAddrCallback (cy_cb_scb_i2c_handle_addr_t callback);
  62:Generated_Source\PSoC6/I2C_1.h **** #endif /* (I2C_1_ENABLE_SLAVE) */
  63:Generated_Source\PSoC6/I2C_1.h **** 
  64:Generated_Source\PSoC6/I2C_1.h **** /* Configuration functions. */
  65:Generated_Source\PSoC6/I2C_1.h **** #if (I2C_1_ENABLE_SLAVE)
  66:Generated_Source\PSoC6/I2C_1.h **** __STATIC_INLINE void     I2C_1_SlaveSetAddress(uint8_t addr);
  67:Generated_Source\PSoC6/I2C_1.h **** __STATIC_INLINE uint32_t I2C_1_SlaveGetAddress(void);
  68:Generated_Source\PSoC6/I2C_1.h **** __STATIC_INLINE void     I2C_1_SlaveSetAddressMask(uint8_t addrMask);
  69:Generated_Source\PSoC6/I2C_1.h **** __STATIC_INLINE uint32_t I2C_1_SlaveGetAddressMask(void);
  70:Generated_Source\PSoC6/I2C_1.h **** #endif /* (I2C_1_ENABLE_SLAVE) */
  71:Generated_Source\PSoC6/I2C_1.h **** 
  72:Generated_Source\PSoC6/I2C_1.h **** #if (I2C_1_ENABLE_MASTER)
  73:Generated_Source\PSoC6/I2C_1.h **** __STATIC_INLINE void I2C_1_MasterSetLowPhaseDutyCycle (uint32_t clockCycles);
  74:Generated_Source\PSoC6/I2C_1.h **** __STATIC_INLINE void I2C_1_MasterSetHighPhaseDutyCycle(uint32_t clockCycles);
  75:Generated_Source\PSoC6/I2C_1.h **** #endif /* (I2C_1_ENABLE_MASTER) */
  76:Generated_Source\PSoC6/I2C_1.h **** 
  77:Generated_Source\PSoC6/I2C_1.h **** /* Bus status. */
  78:Generated_Source\PSoC6/I2C_1.h **** __STATIC_INLINE bool     I2C_1_IsBusBusy(void);
  79:Generated_Source\PSoC6/I2C_1.h **** 
  80:Generated_Source\PSoC6/I2C_1.h **** /* Slave functions. */
  81:Generated_Source\PSoC6/I2C_1.h **** #if (I2C_1_ENABLE_SLAVE)
  82:Generated_Source\PSoC6/I2C_1.h **** __STATIC_INLINE uint32_t I2C_1_SlaveGetStatus(void);
  83:Generated_Source\PSoC6/I2C_1.h **** 
  84:Generated_Source\PSoC6/I2C_1.h **** __STATIC_INLINE void     I2C_1_SlaveConfigReadBuf(uint8_t *buffer, uint32_t size);
  85:Generated_Source\PSoC6/I2C_1.h **** __STATIC_INLINE void     I2C_1_SlaveAbortRead(void);
  86:Generated_Source\PSoC6/I2C_1.h **** __STATIC_INLINE uint32_t I2C_1_SlaveGetReadTransferCount(void);
  87:Generated_Source\PSoC6/I2C_1.h **** __STATIC_INLINE uint32_t I2C_1_SlaveClearReadStatus(void);
  88:Generated_Source\PSoC6/I2C_1.h **** 
  89:Generated_Source\PSoC6/I2C_1.h **** __STATIC_INLINE void     I2C_1_SlaveConfigWriteBuf(uint8_t *buffer, uint32_t size);
  90:Generated_Source\PSoC6/I2C_1.h **** __STATIC_INLINE void     I2C_1_SlaveAbortWrite(void);
  91:Generated_Source\PSoC6/I2C_1.h **** __STATIC_INLINE uint32_t I2C_1_SlaveGetWriteTransferCount(void);
  92:Generated_Source\PSoC6/I2C_1.h **** __STATIC_INLINE uint32_t I2C_1_SlaveClearWriteStatus(void);
  93:Generated_Source\PSoC6/I2C_1.h **** #endif /* (I2C_1_ENABLE_SLAVE) */
  94:Generated_Source\PSoC6/I2C_1.h **** 
  95:Generated_Source\PSoC6/I2C_1.h **** /* Master interrupt processing functions. */
  96:Generated_Source\PSoC6/I2C_1.h **** #if (I2C_1_ENABLE_MASTER)
  97:Generated_Source\PSoC6/I2C_1.h **** __STATIC_INLINE uint32_t I2C_1_MasterGetStatus(void);
  98:Generated_Source\PSoC6/I2C_1.h **** 
  99:Generated_Source\PSoC6/I2C_1.h **** __STATIC_INLINE cy_en_scb_i2c_status_t I2C_1_MasterRead(cy_stc_scb_i2c_master_xfer_config_t *xferCo
 100:Generated_Source\PSoC6/I2C_1.h **** __STATIC_INLINE void I2C_1_MasterAbortRead(void);
 101:Generated_Source\PSoC6/I2C_1.h **** __STATIC_INLINE cy_en_scb_i2c_status_t I2C_1_MasterWrite(cy_stc_scb_i2c_master_xfer_config_t *xferC
 102:Generated_Source\PSoC6/I2C_1.h **** __STATIC_INLINE void I2C_1_MasterAbortWrite(void);
 103:Generated_Source\PSoC6/I2C_1.h **** __STATIC_INLINE uint32_t I2C_1_MasterGetTransferCount(void);
 104:Generated_Source\PSoC6/I2C_1.h **** 
 105:Generated_Source\PSoC6/I2C_1.h **** /* Master manual processing functions. */
ARM GAS  C:\Users\jlabe\AppData\Local\Temp\ccJbzXZ1.s 			page 12


 106:Generated_Source\PSoC6/I2C_1.h **** __STATIC_INLINE cy_en_scb_i2c_status_t I2C_1_MasterSendStart(uint32_t address, cy_en_scb_i2c_direct
 107:Generated_Source\PSoC6/I2C_1.h **** __STATIC_INLINE cy_en_scb_i2c_status_t I2C_1_MasterSendReStart(uint32_t address, cy_en_scb_i2c_dire
 108:Generated_Source\PSoC6/I2C_1.h **** __STATIC_INLINE cy_en_scb_i2c_status_t I2C_1_MasterSendStop(uint32_t timeoutMs);
 109:Generated_Source\PSoC6/I2C_1.h **** __STATIC_INLINE cy_en_scb_i2c_status_t I2C_1_MasterReadByte(cy_en_scb_i2c_command_t ackNack, uint8_
 110:Generated_Source\PSoC6/I2C_1.h **** __STATIC_INLINE cy_en_scb_i2c_status_t I2C_1_MasterWriteByte(uint8_t byte, uint32_t timeoutMs);
 111:Generated_Source\PSoC6/I2C_1.h **** #endif /* (I2C_1_ENABLE_MASTER) */
 112:Generated_Source\PSoC6/I2C_1.h **** 
 113:Generated_Source\PSoC6/I2C_1.h **** /* Interrupt handler. */
 114:Generated_Source\PSoC6/I2C_1.h **** __STATIC_INLINE void I2C_1_Interrupt(void);
 115:Generated_Source\PSoC6/I2C_1.h **** /** @} group_general */
 116:Generated_Source\PSoC6/I2C_1.h **** 
 117:Generated_Source\PSoC6/I2C_1.h **** 
 118:Generated_Source\PSoC6/I2C_1.h **** /***************************************
 119:Generated_Source\PSoC6/I2C_1.h **** *    Variables with External Linkage
 120:Generated_Source\PSoC6/I2C_1.h **** ***************************************/
 121:Generated_Source\PSoC6/I2C_1.h **** /**
 122:Generated_Source\PSoC6/I2C_1.h **** * \addtogroup group_globals
 123:Generated_Source\PSoC6/I2C_1.h **** * @{
 124:Generated_Source\PSoC6/I2C_1.h **** */
 125:Generated_Source\PSoC6/I2C_1.h **** extern uint8_t I2C_1_initVar;
 126:Generated_Source\PSoC6/I2C_1.h **** extern cy_stc_scb_i2c_config_t const I2C_1_config;
 127:Generated_Source\PSoC6/I2C_1.h **** extern cy_stc_scb_i2c_context_t I2C_1_context;
 128:Generated_Source\PSoC6/I2C_1.h **** /** @} group_globals */
 129:Generated_Source\PSoC6/I2C_1.h **** 
 130:Generated_Source\PSoC6/I2C_1.h **** 
 131:Generated_Source\PSoC6/I2C_1.h **** /***************************************
 132:Generated_Source\PSoC6/I2C_1.h **** *         Preprocessor Macros
 133:Generated_Source\PSoC6/I2C_1.h **** ***************************************/
 134:Generated_Source\PSoC6/I2C_1.h **** /**
 135:Generated_Source\PSoC6/I2C_1.h **** * \addtogroup group_macros
 136:Generated_Source\PSoC6/I2C_1.h **** * @{
 137:Generated_Source\PSoC6/I2C_1.h **** */
 138:Generated_Source\PSoC6/I2C_1.h **** /** The pointer to the base address of the SCB instance */
 139:Generated_Source\PSoC6/I2C_1.h **** #define I2C_1_HW     ((CySCB_Type *) I2C_1_SCB__HW)
 140:Generated_Source\PSoC6/I2C_1.h **** 
 141:Generated_Source\PSoC6/I2C_1.h **** /** The desired data rate in Hz */
 142:Generated_Source\PSoC6/I2C_1.h **** #define I2C_1_DATA_RATE_HZ      (100000U)
 143:Generated_Source\PSoC6/I2C_1.h **** 
 144:Generated_Source\PSoC6/I2C_1.h **** /** The frequency of the clock used by the Component in Hz */
 145:Generated_Source\PSoC6/I2C_1.h **** #define I2C_1_CLK_FREQ_HZ       (1538461U)
 146:Generated_Source\PSoC6/I2C_1.h **** 
 147:Generated_Source\PSoC6/I2C_1.h **** /** The number of Component clocks used by the master to generate the SCL
 148:Generated_Source\PSoC6/I2C_1.h **** * low phase. This number is calculated by GUI based on the selected data rate.
 149:Generated_Source\PSoC6/I2C_1.h **** */
 150:Generated_Source\PSoC6/I2C_1.h **** #define I2C_1_LOW_PHASE_DUTY_CYCLE   (8U)
 151:Generated_Source\PSoC6/I2C_1.h **** 
 152:Generated_Source\PSoC6/I2C_1.h **** /** The number of Component clocks used by the master to generate the SCL
 153:Generated_Source\PSoC6/I2C_1.h **** * high phase. This number is calculated by GUI based on the selected data rate.
 154:Generated_Source\PSoC6/I2C_1.h **** */
 155:Generated_Source\PSoC6/I2C_1.h **** #define I2C_1_HIGH_PHASE_DUTY_CYCLE  (8U)
 156:Generated_Source\PSoC6/I2C_1.h **** /** @} group_macros */
 157:Generated_Source\PSoC6/I2C_1.h **** 
 158:Generated_Source\PSoC6/I2C_1.h **** 
 159:Generated_Source\PSoC6/I2C_1.h **** /***************************************
 160:Generated_Source\PSoC6/I2C_1.h **** *    In-line Function Implementation
 161:Generated_Source\PSoC6/I2C_1.h **** ***************************************/
 162:Generated_Source\PSoC6/I2C_1.h **** 
ARM GAS  C:\Users\jlabe\AppData\Local\Temp\ccJbzXZ1.s 			page 13


 163:Generated_Source\PSoC6/I2C_1.h **** /*******************************************************************************
 164:Generated_Source\PSoC6/I2C_1.h **** * Function Name: I2C_1_Init
 165:Generated_Source\PSoC6/I2C_1.h **** ****************************************************************************//**
 166:Generated_Source\PSoC6/I2C_1.h **** *
 167:Generated_Source\PSoC6/I2C_1.h **** * Invokes the Cy_SCB_I2C_Init() PDL driver function.
 168:Generated_Source\PSoC6/I2C_1.h **** *
 169:Generated_Source\PSoC6/I2C_1.h **** *******************************************************************************/
 170:Generated_Source\PSoC6/I2C_1.h **** __STATIC_INLINE cy_en_scb_i2c_status_t I2C_1_Init(cy_stc_scb_i2c_config_t const *config)
 171:Generated_Source\PSoC6/I2C_1.h **** {
 172:Generated_Source\PSoC6/I2C_1.h ****     return Cy_SCB_I2C_Init(I2C_1_HW, config, &I2C_1_context);
 173:Generated_Source\PSoC6/I2C_1.h **** }
 174:Generated_Source\PSoC6/I2C_1.h **** 
 175:Generated_Source\PSoC6/I2C_1.h **** 
 176:Generated_Source\PSoC6/I2C_1.h **** /*******************************************************************************
 177:Generated_Source\PSoC6/I2C_1.h **** *  Function Name: I2C_1_DeInit
 178:Generated_Source\PSoC6/I2C_1.h **** ****************************************************************************//**
 179:Generated_Source\PSoC6/I2C_1.h **** *
 180:Generated_Source\PSoC6/I2C_1.h **** * Invokes the Cy_SCB_I2C_DeInit() PDL driver function.
 181:Generated_Source\PSoC6/I2C_1.h **** *
 182:Generated_Source\PSoC6/I2C_1.h **** *******************************************************************************/
 183:Generated_Source\PSoC6/I2C_1.h **** __STATIC_INLINE void I2C_1_DeInit(void)
 184:Generated_Source\PSoC6/I2C_1.h **** {
 185:Generated_Source\PSoC6/I2C_1.h ****     Cy_SCB_I2C_DeInit(I2C_1_HW);
 186:Generated_Source\PSoC6/I2C_1.h **** }
 187:Generated_Source\PSoC6/I2C_1.h **** 
 188:Generated_Source\PSoC6/I2C_1.h **** 
 189:Generated_Source\PSoC6/I2C_1.h **** /*******************************************************************************
 190:Generated_Source\PSoC6/I2C_1.h **** * Function Name: I2C_1_Enable
 191:Generated_Source\PSoC6/I2C_1.h **** ****************************************************************************//**
 192:Generated_Source\PSoC6/I2C_1.h **** *
 193:Generated_Source\PSoC6/I2C_1.h **** * Invokes the Cy_SCB_I2C_Enable() PDL driver function.
 194:Generated_Source\PSoC6/I2C_1.h **** *
 195:Generated_Source\PSoC6/I2C_1.h **** *******************************************************************************/
 196:Generated_Source\PSoC6/I2C_1.h **** __STATIC_INLINE void I2C_1_Enable(void)
 197:Generated_Source\PSoC6/I2C_1.h **** {
 198:Generated_Source\PSoC6/I2C_1.h ****     Cy_SCB_I2C_Enable(I2C_1_HW);
 199:Generated_Source\PSoC6/I2C_1.h **** }
 200:Generated_Source\PSoC6/I2C_1.h **** 
 201:Generated_Source\PSoC6/I2C_1.h **** 
 202:Generated_Source\PSoC6/I2C_1.h **** /*******************************************************************************
 203:Generated_Source\PSoC6/I2C_1.h **** * Function Name: I2C_1_Disable
 204:Generated_Source\PSoC6/I2C_1.h **** ****************************************************************************//**
 205:Generated_Source\PSoC6/I2C_1.h **** *
 206:Generated_Source\PSoC6/I2C_1.h **** * Invokes the Cy_SCB_I2C_Disable() PDL driver function.
 207:Generated_Source\PSoC6/I2C_1.h **** *
 208:Generated_Source\PSoC6/I2C_1.h **** *******************************************************************************/
 209:Generated_Source\PSoC6/I2C_1.h **** __STATIC_INLINE void I2C_1_Disable(void)
 210:Generated_Source\PSoC6/I2C_1.h **** {
 211:Generated_Source\PSoC6/I2C_1.h ****     Cy_SCB_I2C_Disable(I2C_1_HW, &I2C_1_context);
 212:Generated_Source\PSoC6/I2C_1.h **** }
 213:Generated_Source\PSoC6/I2C_1.h **** 
 214:Generated_Source\PSoC6/I2C_1.h **** 
 215:Generated_Source\PSoC6/I2C_1.h **** /*******************************************************************************
 216:Generated_Source\PSoC6/I2C_1.h **** * Function Name: I2C_1_SetDataRate
 217:Generated_Source\PSoC6/I2C_1.h **** ****************************************************************************//**
 218:Generated_Source\PSoC6/I2C_1.h **** *
 219:Generated_Source\PSoC6/I2C_1.h **** * Invokes the Cy_SCB_I2C_SetDataRate() PDL driver function.
ARM GAS  C:\Users\jlabe\AppData\Local\Temp\ccJbzXZ1.s 			page 14


 220:Generated_Source\PSoC6/I2C_1.h **** *
 221:Generated_Source\PSoC6/I2C_1.h **** *******************************************************************************/
 222:Generated_Source\PSoC6/I2C_1.h **** __STATIC_INLINE uint32_t I2C_1_SetDataRate(uint32_t dataRateHz, uint32_t scbClockHz)
 223:Generated_Source\PSoC6/I2C_1.h **** {
 224:Generated_Source\PSoC6/I2C_1.h ****     return Cy_SCB_I2C_SetDataRate(I2C_1_HW, dataRateHz, scbClockHz);
 225:Generated_Source\PSoC6/I2C_1.h **** }
 226:Generated_Source\PSoC6/I2C_1.h **** 
 227:Generated_Source\PSoC6/I2C_1.h **** 
 228:Generated_Source\PSoC6/I2C_1.h **** /*******************************************************************************
 229:Generated_Source\PSoC6/I2C_1.h **** * Function Name: I2C_1_GetDataRate
 230:Generated_Source\PSoC6/I2C_1.h **** ****************************************************************************//**
 231:Generated_Source\PSoC6/I2C_1.h **** *
 232:Generated_Source\PSoC6/I2C_1.h **** * Invokes the Cy_SCB_I2C_GetDataRate() PDL driver function.
 233:Generated_Source\PSoC6/I2C_1.h **** *
 234:Generated_Source\PSoC6/I2C_1.h **** *******************************************************************************/
 235:Generated_Source\PSoC6/I2C_1.h **** __STATIC_INLINE uint32_t I2C_1_GetDataRate(uint32_t scbClockHz)
 236:Generated_Source\PSoC6/I2C_1.h **** {
 237:Generated_Source\PSoC6/I2C_1.h ****     return Cy_SCB_I2C_GetDataRate(I2C_1_HW, scbClockHz);
 238:Generated_Source\PSoC6/I2C_1.h **** }
 239:Generated_Source\PSoC6/I2C_1.h **** 
 240:Generated_Source\PSoC6/I2C_1.h **** 
 241:Generated_Source\PSoC6/I2C_1.h **** /*******************************************************************************
 242:Generated_Source\PSoC6/I2C_1.h **** * Function Name: I2C_1_RegisterEventCallback
 243:Generated_Source\PSoC6/I2C_1.h **** ****************************************************************************//**
 244:Generated_Source\PSoC6/I2C_1.h **** *
 245:Generated_Source\PSoC6/I2C_1.h **** * Invokes the Cy_SCB_I2C_RegisterEventCallback() PDL driver function.
 246:Generated_Source\PSoC6/I2C_1.h **** *
 247:Generated_Source\PSoC6/I2C_1.h **** *******************************************************************************/
 248:Generated_Source\PSoC6/I2C_1.h **** __STATIC_INLINE void I2C_1_RegisterEventCallback(cy_cb_scb_i2c_handle_events_t callback)
 249:Generated_Source\PSoC6/I2C_1.h **** {
 250:Generated_Source\PSoC6/I2C_1.h ****     Cy_SCB_I2C_RegisterEventCallback(I2C_1_HW, callback, &I2C_1_context);
 251:Generated_Source\PSoC6/I2C_1.h **** }
 252:Generated_Source\PSoC6/I2C_1.h **** 
 253:Generated_Source\PSoC6/I2C_1.h **** 
 254:Generated_Source\PSoC6/I2C_1.h **** #if (I2C_1_ENABLE_SLAVE)
 255:Generated_Source\PSoC6/I2C_1.h **** /*******************************************************************************
 256:Generated_Source\PSoC6/I2C_1.h **** * Function Name: I2C_1_RegisterAddrCallback
 257:Generated_Source\PSoC6/I2C_1.h **** ****************************************************************************//**
 258:Generated_Source\PSoC6/I2C_1.h **** *
 259:Generated_Source\PSoC6/I2C_1.h **** * Invokes the Cy_SCB_I2C_RegisterAddrCallback() PDL driver function.
 260:Generated_Source\PSoC6/I2C_1.h **** *
 261:Generated_Source\PSoC6/I2C_1.h **** *******************************************************************************/
 262:Generated_Source\PSoC6/I2C_1.h **** __STATIC_INLINE void I2C_1_RegisterAddrCallback(cy_cb_scb_i2c_handle_addr_t callback)
 263:Generated_Source\PSoC6/I2C_1.h **** {
 264:Generated_Source\PSoC6/I2C_1.h ****     Cy_SCB_I2C_RegisterAddrCallback(I2C_1_HW, callback, &I2C_1_context);
 265:Generated_Source\PSoC6/I2C_1.h **** }
 266:Generated_Source\PSoC6/I2C_1.h **** #endif /* (I2C_1_ENABLE_SLAVE) */
 267:Generated_Source\PSoC6/I2C_1.h **** 
 268:Generated_Source\PSoC6/I2C_1.h **** 
 269:Generated_Source\PSoC6/I2C_1.h **** /*******************************************************************************
 270:Generated_Source\PSoC6/I2C_1.h **** * Function Name: I2C_1_IsBusBusy
 271:Generated_Source\PSoC6/I2C_1.h **** ****************************************************************************//**
 272:Generated_Source\PSoC6/I2C_1.h **** *
 273:Generated_Source\PSoC6/I2C_1.h **** * Invokes the Cy_SCB_I2C_IsBusBusy() PDL driver function.
 274:Generated_Source\PSoC6/I2C_1.h **** *
 275:Generated_Source\PSoC6/I2C_1.h **** *******************************************************************************/
 276:Generated_Source\PSoC6/I2C_1.h **** __STATIC_INLINE bool I2C_1_IsBusBusy(void)
ARM GAS  C:\Users\jlabe\AppData\Local\Temp\ccJbzXZ1.s 			page 15


 277:Generated_Source\PSoC6/I2C_1.h **** {
 278:Generated_Source\PSoC6/I2C_1.h ****     return Cy_SCB_I2C_IsBusBusy(I2C_1_HW);
 279:Generated_Source\PSoC6/I2C_1.h **** }
 280:Generated_Source\PSoC6/I2C_1.h **** 
 281:Generated_Source\PSoC6/I2C_1.h **** 
 282:Generated_Source\PSoC6/I2C_1.h **** #if (I2C_1_ENABLE_SLAVE)
 283:Generated_Source\PSoC6/I2C_1.h **** /*******************************************************************************
 284:Generated_Source\PSoC6/I2C_1.h **** * Function Name: I2C_1_SlaveSetAddress
 285:Generated_Source\PSoC6/I2C_1.h **** ****************************************************************************//**
 286:Generated_Source\PSoC6/I2C_1.h **** *
 287:Generated_Source\PSoC6/I2C_1.h **** * Invokes the Cy_SCB_I2C_SlaveGetAddress() PDL driver function.
 288:Generated_Source\PSoC6/I2C_1.h **** *
 289:Generated_Source\PSoC6/I2C_1.h **** *******************************************************************************/
 290:Generated_Source\PSoC6/I2C_1.h **** __STATIC_INLINE void I2C_1_SlaveSetAddress(uint8_t addr)
 291:Generated_Source\PSoC6/I2C_1.h **** {
 292:Generated_Source\PSoC6/I2C_1.h ****     Cy_SCB_I2C_SlaveSetAddress(I2C_1_HW, addr);
 293:Generated_Source\PSoC6/I2C_1.h **** }
 294:Generated_Source\PSoC6/I2C_1.h **** 
 295:Generated_Source\PSoC6/I2C_1.h **** 
 296:Generated_Source\PSoC6/I2C_1.h **** /*******************************************************************************
 297:Generated_Source\PSoC6/I2C_1.h **** * Function Name: I2C_1_SlaveGetAddress
 298:Generated_Source\PSoC6/I2C_1.h **** ****************************************************************************//**
 299:Generated_Source\PSoC6/I2C_1.h **** *
 300:Generated_Source\PSoC6/I2C_1.h **** * Invokes the Cy_SCB_I2C_SlaveGetAddress() PDL driver function.
 301:Generated_Source\PSoC6/I2C_1.h **** *
 302:Generated_Source\PSoC6/I2C_1.h **** *******************************************************************************/
 303:Generated_Source\PSoC6/I2C_1.h **** __STATIC_INLINE uint32_t I2C_1_SlaveGetAddress(void)
 304:Generated_Source\PSoC6/I2C_1.h **** {
 305:Generated_Source\PSoC6/I2C_1.h ****     return Cy_SCB_I2C_SlaveGetAddress(I2C_1_HW);
 306:Generated_Source\PSoC6/I2C_1.h **** }
 307:Generated_Source\PSoC6/I2C_1.h **** 
 308:Generated_Source\PSoC6/I2C_1.h **** 
 309:Generated_Source\PSoC6/I2C_1.h **** /*******************************************************************************
 310:Generated_Source\PSoC6/I2C_1.h **** * Function Name: I2C_1_SlaveSetAddressMask
 311:Generated_Source\PSoC6/I2C_1.h **** ****************************************************************************//**
 312:Generated_Source\PSoC6/I2C_1.h **** *
 313:Generated_Source\PSoC6/I2C_1.h **** * Invokes the Cy_SCB_I2C_SlaveSetAddressMask() PDL driver function.
 314:Generated_Source\PSoC6/I2C_1.h **** *
 315:Generated_Source\PSoC6/I2C_1.h **** *******************************************************************************/
 316:Generated_Source\PSoC6/I2C_1.h **** __STATIC_INLINE void I2C_1_SlaveSetAddressMask(uint8_t addrMask)
 317:Generated_Source\PSoC6/I2C_1.h **** {
 318:Generated_Source\PSoC6/I2C_1.h ****     Cy_SCB_I2C_SlaveSetAddressMask(I2C_1_HW, addrMask);
 319:Generated_Source\PSoC6/I2C_1.h **** }
 320:Generated_Source\PSoC6/I2C_1.h **** 
 321:Generated_Source\PSoC6/I2C_1.h **** 
 322:Generated_Source\PSoC6/I2C_1.h **** /*******************************************************************************
 323:Generated_Source\PSoC6/I2C_1.h **** * Function Name: I2C_1_SlaveGetAddressMask
 324:Generated_Source\PSoC6/I2C_1.h **** ****************************************************************************//**
 325:Generated_Source\PSoC6/I2C_1.h **** *
 326:Generated_Source\PSoC6/I2C_1.h **** * Invokes the Cy_SCB_I2C_SlaveGetAddressMask() PDL driver function.
 327:Generated_Source\PSoC6/I2C_1.h **** *
 328:Generated_Source\PSoC6/I2C_1.h **** *******************************************************************************/
 329:Generated_Source\PSoC6/I2C_1.h **** __STATIC_INLINE uint32_t I2C_1_SlaveGetAddressMask(void)
 330:Generated_Source\PSoC6/I2C_1.h **** {
 331:Generated_Source\PSoC6/I2C_1.h ****     return Cy_SCB_I2C_SlaveGetAddressMask(I2C_1_HW);
 332:Generated_Source\PSoC6/I2C_1.h **** }
 333:Generated_Source\PSoC6/I2C_1.h **** #endif /* (I2C_1_ENABLE_SLAVE) */
ARM GAS  C:\Users\jlabe\AppData\Local\Temp\ccJbzXZ1.s 			page 16


 334:Generated_Source\PSoC6/I2C_1.h **** 
 335:Generated_Source\PSoC6/I2C_1.h **** #if (I2C_1_ENABLE_MASTER)
 336:Generated_Source\PSoC6/I2C_1.h **** /*******************************************************************************
 337:Generated_Source\PSoC6/I2C_1.h **** * Function Name: I2C_1_MasterSetLowPhaseDutyCycle
 338:Generated_Source\PSoC6/I2C_1.h **** ****************************************************************************//**
 339:Generated_Source\PSoC6/I2C_1.h **** *
 340:Generated_Source\PSoC6/I2C_1.h **** * Invokes the Cy_SCB_I2C_MasterSetLowPhaseDutyCycle() PDL driver function.
 341:Generated_Source\PSoC6/I2C_1.h **** *
 342:Generated_Source\PSoC6/I2C_1.h **** *******************************************************************************/
 343:Generated_Source\PSoC6/I2C_1.h **** __STATIC_INLINE void I2C_1_MasterSetLowPhaseDutyCycle(uint32_t clockCycles)
 344:Generated_Source\PSoC6/I2C_1.h **** {
 345:Generated_Source\PSoC6/I2C_1.h ****     Cy_SCB_I2C_MasterSetLowPhaseDutyCycle(I2C_1_HW, clockCycles);
 346:Generated_Source\PSoC6/I2C_1.h **** }
 347:Generated_Source\PSoC6/I2C_1.h **** 
 348:Generated_Source\PSoC6/I2C_1.h **** 
 349:Generated_Source\PSoC6/I2C_1.h **** /*******************************************************************************
 350:Generated_Source\PSoC6/I2C_1.h **** * Function Name: I2C_1_MasterSetHighPhaseDutyCycle
 351:Generated_Source\PSoC6/I2C_1.h **** ****************************************************************************//**
 352:Generated_Source\PSoC6/I2C_1.h **** *
 353:Generated_Source\PSoC6/I2C_1.h **** * Invokes the Cy_SCB_I2C_MasterSetHighPhaseDutyCycle() PDL driver function.
 354:Generated_Source\PSoC6/I2C_1.h **** *
 355:Generated_Source\PSoC6/I2C_1.h **** *******************************************************************************/
 356:Generated_Source\PSoC6/I2C_1.h **** __STATIC_INLINE void I2C_1_MasterSetHighPhaseDutyCycle(uint32_t clockCycles)
 357:Generated_Source\PSoC6/I2C_1.h **** {
 358:Generated_Source\PSoC6/I2C_1.h ****     Cy_SCB_I2C_MasterSetHighPhaseDutyCycle(I2C_1_HW, clockCycles);
 359:Generated_Source\PSoC6/I2C_1.h **** }
 360:Generated_Source\PSoC6/I2C_1.h **** #endif /* (I2C_1_ENABLE_MASTER) */
 361:Generated_Source\PSoC6/I2C_1.h **** 
 362:Generated_Source\PSoC6/I2C_1.h **** 
 363:Generated_Source\PSoC6/I2C_1.h **** #if (I2C_1_ENABLE_SLAVE)
 364:Generated_Source\PSoC6/I2C_1.h **** /*******************************************************************************
 365:Generated_Source\PSoC6/I2C_1.h **** * Function Name: I2C_1_SlaveGetStatus
 366:Generated_Source\PSoC6/I2C_1.h **** ****************************************************************************//**
 367:Generated_Source\PSoC6/I2C_1.h **** *
 368:Generated_Source\PSoC6/I2C_1.h **** * Invokes the Cy_SCB_I2C_SlaveGetStatus() PDL driver function.
 369:Generated_Source\PSoC6/I2C_1.h **** *
 370:Generated_Source\PSoC6/I2C_1.h **** *******************************************************************************/
 371:Generated_Source\PSoC6/I2C_1.h **** __STATIC_INLINE uint32_t I2C_1_SlaveGetStatus(void)
 372:Generated_Source\PSoC6/I2C_1.h **** {
 373:Generated_Source\PSoC6/I2C_1.h ****     return Cy_SCB_I2C_SlaveGetStatus(I2C_1_HW, &I2C_1_context);
 374:Generated_Source\PSoC6/I2C_1.h **** }
 375:Generated_Source\PSoC6/I2C_1.h **** 
 376:Generated_Source\PSoC6/I2C_1.h **** 
 377:Generated_Source\PSoC6/I2C_1.h **** /*******************************************************************************
 378:Generated_Source\PSoC6/I2C_1.h **** * Function Name: I2C_1_SlaveConfigReadBuf
 379:Generated_Source\PSoC6/I2C_1.h **** ****************************************************************************//**
 380:Generated_Source\PSoC6/I2C_1.h **** *
 381:Generated_Source\PSoC6/I2C_1.h **** * Invokes the Cy_SCB_I2C_SlaveConfigReadBuf() PDL driver function.
 382:Generated_Source\PSoC6/I2C_1.h **** *
 383:Generated_Source\PSoC6/I2C_1.h **** *******************************************************************************/
 384:Generated_Source\PSoC6/I2C_1.h **** __STATIC_INLINE void I2C_1_SlaveConfigReadBuf(uint8_t *buffer, uint32_t size)
 385:Generated_Source\PSoC6/I2C_1.h **** {
 386:Generated_Source\PSoC6/I2C_1.h ****     Cy_SCB_I2C_SlaveConfigReadBuf(I2C_1_HW, buffer, size, &I2C_1_context);
 387:Generated_Source\PSoC6/I2C_1.h **** }
 388:Generated_Source\PSoC6/I2C_1.h **** 
 389:Generated_Source\PSoC6/I2C_1.h **** 
 390:Generated_Source\PSoC6/I2C_1.h **** /*******************************************************************************
ARM GAS  C:\Users\jlabe\AppData\Local\Temp\ccJbzXZ1.s 			page 17


 391:Generated_Source\PSoC6/I2C_1.h **** * Function Name: I2C_1_SlaveAbortRead
 392:Generated_Source\PSoC6/I2C_1.h **** ****************************************************************************//**
 393:Generated_Source\PSoC6/I2C_1.h **** *
 394:Generated_Source\PSoC6/I2C_1.h **** * Invokes the Cy_SCB_I2C_SlaveAbortRead() PDL driver function.
 395:Generated_Source\PSoC6/I2C_1.h **** *
 396:Generated_Source\PSoC6/I2C_1.h **** *******************************************************************************/
 397:Generated_Source\PSoC6/I2C_1.h **** __STATIC_INLINE void I2C_1_SlaveAbortRead(void)
 398:Generated_Source\PSoC6/I2C_1.h **** {
 399:Generated_Source\PSoC6/I2C_1.h ****     Cy_SCB_I2C_SlaveAbortRead(I2C_1_HW, &I2C_1_context);
 400:Generated_Source\PSoC6/I2C_1.h **** }
 401:Generated_Source\PSoC6/I2C_1.h **** 
 402:Generated_Source\PSoC6/I2C_1.h **** 
 403:Generated_Source\PSoC6/I2C_1.h **** /*******************************************************************************
 404:Generated_Source\PSoC6/I2C_1.h **** * Function Name: I2C_1_SlaveGetReadTransferCount
 405:Generated_Source\PSoC6/I2C_1.h **** ****************************************************************************//**
 406:Generated_Source\PSoC6/I2C_1.h **** *
 407:Generated_Source\PSoC6/I2C_1.h **** * Invokes the Cy_SCB_I2C_SlaveGetReadTransferCount() PDL driver function.
 408:Generated_Source\PSoC6/I2C_1.h **** *
 409:Generated_Source\PSoC6/I2C_1.h **** *******************************************************************************/
 410:Generated_Source\PSoC6/I2C_1.h **** __STATIC_INLINE uint32_t I2C_1_SlaveGetReadTransferCount(void)
 411:Generated_Source\PSoC6/I2C_1.h **** {
 412:Generated_Source\PSoC6/I2C_1.h ****     return Cy_SCB_I2C_SlaveGetReadTransferCount(I2C_1_HW, &I2C_1_context);
 413:Generated_Source\PSoC6/I2C_1.h **** }
 414:Generated_Source\PSoC6/I2C_1.h **** 
 415:Generated_Source\PSoC6/I2C_1.h **** 
 416:Generated_Source\PSoC6/I2C_1.h **** /*******************************************************************************
 417:Generated_Source\PSoC6/I2C_1.h **** * Function Name: I2C_1_SlaveClearReadStatus
 418:Generated_Source\PSoC6/I2C_1.h **** ****************************************************************************//**
 419:Generated_Source\PSoC6/I2C_1.h **** *
 420:Generated_Source\PSoC6/I2C_1.h **** * Invokes the Cy_SCB_I2C_SlaveClearReadStatus() PDL driver function.
 421:Generated_Source\PSoC6/I2C_1.h **** *
 422:Generated_Source\PSoC6/I2C_1.h **** *******************************************************************************/
 423:Generated_Source\PSoC6/I2C_1.h **** __STATIC_INLINE uint32_t I2C_1_SlaveClearReadStatus(void)
 424:Generated_Source\PSoC6/I2C_1.h **** {
 425:Generated_Source\PSoC6/I2C_1.h ****     return Cy_SCB_I2C_SlaveClearReadStatus(I2C_1_HW, &I2C_1_context);
 426:Generated_Source\PSoC6/I2C_1.h **** }
 427:Generated_Source\PSoC6/I2C_1.h **** 
 428:Generated_Source\PSoC6/I2C_1.h **** 
 429:Generated_Source\PSoC6/I2C_1.h **** /*******************************************************************************
 430:Generated_Source\PSoC6/I2C_1.h **** * Function Name: I2C_1_SlaveConfigWriteBuf
 431:Generated_Source\PSoC6/I2C_1.h **** ****************************************************************************//**
 432:Generated_Source\PSoC6/I2C_1.h **** *
 433:Generated_Source\PSoC6/I2C_1.h **** * Invokes the Cy_SCB_I2C_SlaveConfigWriteBuf() PDL driver function.
 434:Generated_Source\PSoC6/I2C_1.h **** *
 435:Generated_Source\PSoC6/I2C_1.h **** *******************************************************************************/
 436:Generated_Source\PSoC6/I2C_1.h **** __STATIC_INLINE void I2C_1_SlaveConfigWriteBuf(uint8_t *buffer, uint32_t size)
 437:Generated_Source\PSoC6/I2C_1.h **** {
 438:Generated_Source\PSoC6/I2C_1.h ****     Cy_SCB_I2C_SlaveConfigWriteBuf(I2C_1_HW, buffer, size, &I2C_1_context);
 439:Generated_Source\PSoC6/I2C_1.h **** }
 440:Generated_Source\PSoC6/I2C_1.h **** 
 441:Generated_Source\PSoC6/I2C_1.h **** 
 442:Generated_Source\PSoC6/I2C_1.h **** /*******************************************************************************
 443:Generated_Source\PSoC6/I2C_1.h **** * Function Name: I2C_1_SlaveAbortWrite
 444:Generated_Source\PSoC6/I2C_1.h **** ****************************************************************************//**
 445:Generated_Source\PSoC6/I2C_1.h **** *
 446:Generated_Source\PSoC6/I2C_1.h **** * Invokes the Cy_SCB_I2C_SlaveAbortWrite() PDL driver function.
 447:Generated_Source\PSoC6/I2C_1.h **** *
ARM GAS  C:\Users\jlabe\AppData\Local\Temp\ccJbzXZ1.s 			page 18


 448:Generated_Source\PSoC6/I2C_1.h **** *******************************************************************************/
 449:Generated_Source\PSoC6/I2C_1.h **** __STATIC_INLINE void I2C_1_SlaveAbortWrite(void)
 450:Generated_Source\PSoC6/I2C_1.h **** {
 451:Generated_Source\PSoC6/I2C_1.h ****     Cy_SCB_I2C_SlaveAbortWrite(I2C_1_HW, &I2C_1_context);
 452:Generated_Source\PSoC6/I2C_1.h **** }
 453:Generated_Source\PSoC6/I2C_1.h **** 
 454:Generated_Source\PSoC6/I2C_1.h **** 
 455:Generated_Source\PSoC6/I2C_1.h **** /*******************************************************************************
 456:Generated_Source\PSoC6/I2C_1.h **** * Function Name: I2C_1_SlaveGetWriteTransferCount
 457:Generated_Source\PSoC6/I2C_1.h **** ****************************************************************************//**
 458:Generated_Source\PSoC6/I2C_1.h **** *
 459:Generated_Source\PSoC6/I2C_1.h **** * Invokes the Cy_SCB_I2C_SlaveGetWriteTransferCount() PDL driver function.
 460:Generated_Source\PSoC6/I2C_1.h **** *
 461:Generated_Source\PSoC6/I2C_1.h **** *******************************************************************************/
 462:Generated_Source\PSoC6/I2C_1.h **** __STATIC_INLINE uint32_t I2C_1_SlaveGetWriteTransferCount(void)
 463:Generated_Source\PSoC6/I2C_1.h **** {
 464:Generated_Source\PSoC6/I2C_1.h ****     return Cy_SCB_I2C_SlaveGetWriteTransferCount(I2C_1_HW, &I2C_1_context);
 465:Generated_Source\PSoC6/I2C_1.h **** }
 466:Generated_Source\PSoC6/I2C_1.h **** 
 467:Generated_Source\PSoC6/I2C_1.h **** 
 468:Generated_Source\PSoC6/I2C_1.h **** /*******************************************************************************
 469:Generated_Source\PSoC6/I2C_1.h **** * Function Name: I2C_1_SlaveClearWriteStatus
 470:Generated_Source\PSoC6/I2C_1.h **** ****************************************************************************//**
 471:Generated_Source\PSoC6/I2C_1.h **** *
 472:Generated_Source\PSoC6/I2C_1.h **** * Invokes the Cy_SCB_I2C_SlaveClearWriteStatus() PDL driver function.
 473:Generated_Source\PSoC6/I2C_1.h **** *
 474:Generated_Source\PSoC6/I2C_1.h **** *******************************************************************************/
 475:Generated_Source\PSoC6/I2C_1.h **** __STATIC_INLINE uint32_t I2C_1_SlaveClearWriteStatus(void)
 476:Generated_Source\PSoC6/I2C_1.h **** {
 477:Generated_Source\PSoC6/I2C_1.h ****     return Cy_SCB_I2C_SlaveClearWriteStatus(I2C_1_HW, &I2C_1_context);
 478:Generated_Source\PSoC6/I2C_1.h **** }
 479:Generated_Source\PSoC6/I2C_1.h **** #endif /* (I2C_1_ENABLE_SLAVE) */
 480:Generated_Source\PSoC6/I2C_1.h **** 
 481:Generated_Source\PSoC6/I2C_1.h **** 
 482:Generated_Source\PSoC6/I2C_1.h **** #if (I2C_1_ENABLE_MASTER)
 483:Generated_Source\PSoC6/I2C_1.h **** /*******************************************************************************
 484:Generated_Source\PSoC6/I2C_1.h **** * Function Name: I2C_1_MasterGetStatus
 485:Generated_Source\PSoC6/I2C_1.h **** ****************************************************************************//**
 486:Generated_Source\PSoC6/I2C_1.h **** *
 487:Generated_Source\PSoC6/I2C_1.h **** * Invokes the Cy_SCB_I2C_MasterGetStatus() PDL driver function.
 488:Generated_Source\PSoC6/I2C_1.h **** *
 489:Generated_Source\PSoC6/I2C_1.h **** *******************************************************************************/
 490:Generated_Source\PSoC6/I2C_1.h **** __STATIC_INLINE uint32_t I2C_1_MasterGetStatus(void)
 491:Generated_Source\PSoC6/I2C_1.h **** {
 492:Generated_Source\PSoC6/I2C_1.h ****     return Cy_SCB_I2C_MasterGetStatus(I2C_1_HW, &I2C_1_context);
 493:Generated_Source\PSoC6/I2C_1.h **** }
 494:Generated_Source\PSoC6/I2C_1.h **** 
 495:Generated_Source\PSoC6/I2C_1.h **** 
 496:Generated_Source\PSoC6/I2C_1.h **** /*******************************************************************************
 497:Generated_Source\PSoC6/I2C_1.h **** * Function Name: I2C_1_MasterRead
 498:Generated_Source\PSoC6/I2C_1.h **** ****************************************************************************//**
 499:Generated_Source\PSoC6/I2C_1.h **** *
 500:Generated_Source\PSoC6/I2C_1.h **** * Invokes the Cy_SCB_I2C_MasterRead() PDL driver function.
 501:Generated_Source\PSoC6/I2C_1.h **** *
 502:Generated_Source\PSoC6/I2C_1.h **** *******************************************************************************/
 503:Generated_Source\PSoC6/I2C_1.h **** __STATIC_INLINE cy_en_scb_i2c_status_t I2C_1_MasterRead(cy_stc_scb_i2c_master_xfer_config_t *xferCo
 504:Generated_Source\PSoC6/I2C_1.h **** {
ARM GAS  C:\Users\jlabe\AppData\Local\Temp\ccJbzXZ1.s 			page 19


 505:Generated_Source\PSoC6/I2C_1.h ****     return Cy_SCB_I2C_MasterRead(I2C_1_HW, xferConfig, &I2C_1_context);
 506:Generated_Source\PSoC6/I2C_1.h **** }
 507:Generated_Source\PSoC6/I2C_1.h **** 
 508:Generated_Source\PSoC6/I2C_1.h **** 
 509:Generated_Source\PSoC6/I2C_1.h **** /*******************************************************************************
 510:Generated_Source\PSoC6/I2C_1.h **** * Function Name: I2C_1_MasterAbortRead
 511:Generated_Source\PSoC6/I2C_1.h **** ****************************************************************************//**
 512:Generated_Source\PSoC6/I2C_1.h **** *
 513:Generated_Source\PSoC6/I2C_1.h **** * Invokes the Cy_SCB_I2C_MasterAbortRead() PDL driver function.
 514:Generated_Source\PSoC6/I2C_1.h **** *
 515:Generated_Source\PSoC6/I2C_1.h **** ******************************************************************************/
 516:Generated_Source\PSoC6/I2C_1.h **** __STATIC_INLINE void I2C_1_MasterAbortRead(void)
 517:Generated_Source\PSoC6/I2C_1.h **** {
 518:Generated_Source\PSoC6/I2C_1.h ****     Cy_SCB_I2C_MasterAbortRead(I2C_1_HW, &I2C_1_context);
 519:Generated_Source\PSoC6/I2C_1.h **** }
 520:Generated_Source\PSoC6/I2C_1.h **** 
 521:Generated_Source\PSoC6/I2C_1.h **** 
 522:Generated_Source\PSoC6/I2C_1.h **** /*******************************************************************************
 523:Generated_Source\PSoC6/I2C_1.h **** * Function Name: I2C_1_MasterWrite
 524:Generated_Source\PSoC6/I2C_1.h **** ****************************************************************************//**
 525:Generated_Source\PSoC6/I2C_1.h **** *
 526:Generated_Source\PSoC6/I2C_1.h **** * Invokes the Cy_SCB_I2C_MasterWrite() PDL driver function.
 527:Generated_Source\PSoC6/I2C_1.h **** *
 528:Generated_Source\PSoC6/I2C_1.h **** *******************************************************************************/
 529:Generated_Source\PSoC6/I2C_1.h **** __STATIC_INLINE cy_en_scb_i2c_status_t I2C_1_MasterWrite(cy_stc_scb_i2c_master_xfer_config_t *xferC
 530:Generated_Source\PSoC6/I2C_1.h **** {
 531:Generated_Source\PSoC6/I2C_1.h ****     return Cy_SCB_I2C_MasterWrite(I2C_1_HW, xferConfig, &I2C_1_context);
 532:Generated_Source\PSoC6/I2C_1.h **** }
 533:Generated_Source\PSoC6/I2C_1.h **** 
 534:Generated_Source\PSoC6/I2C_1.h **** 
 535:Generated_Source\PSoC6/I2C_1.h **** /*******************************************************************************
 536:Generated_Source\PSoC6/I2C_1.h **** * Function Name: I2C_1_MasterAbortWrite
 537:Generated_Source\PSoC6/I2C_1.h **** ****************************************************************************//**
 538:Generated_Source\PSoC6/I2C_1.h **** *
 539:Generated_Source\PSoC6/I2C_1.h **** * Invokes the Cy_SCB_I2C_MasterAbortWrite() PDL driver function.
 540:Generated_Source\PSoC6/I2C_1.h **** *
 541:Generated_Source\PSoC6/I2C_1.h **** *******************************************************************************/
 542:Generated_Source\PSoC6/I2C_1.h **** __STATIC_INLINE void I2C_1_MasterAbortWrite(void)
 543:Generated_Source\PSoC6/I2C_1.h **** {
 544:Generated_Source\PSoC6/I2C_1.h ****     Cy_SCB_I2C_MasterAbortWrite(I2C_1_HW, &I2C_1_context);
 545:Generated_Source\PSoC6/I2C_1.h **** }
 546:Generated_Source\PSoC6/I2C_1.h **** 
 547:Generated_Source\PSoC6/I2C_1.h **** 
 548:Generated_Source\PSoC6/I2C_1.h **** /*******************************************************************************
 549:Generated_Source\PSoC6/I2C_1.h **** * Function Name: I2C_1_MasterGetTransferCount
 550:Generated_Source\PSoC6/I2C_1.h **** ****************************************************************************//**
 551:Generated_Source\PSoC6/I2C_1.h **** *
 552:Generated_Source\PSoC6/I2C_1.h **** * Invokes the Cy_SCB_I2C_MasterGetTransferCount() PDL driver function.
 553:Generated_Source\PSoC6/I2C_1.h **** *
 554:Generated_Source\PSoC6/I2C_1.h **** *******************************************************************************/
 555:Generated_Source\PSoC6/I2C_1.h **** __STATIC_INLINE uint32_t I2C_1_MasterGetTransferCount(void)
 556:Generated_Source\PSoC6/I2C_1.h **** {
 557:Generated_Source\PSoC6/I2C_1.h ****     return Cy_SCB_I2C_MasterGetTransferCount(I2C_1_HW, &I2C_1_context);
 558:Generated_Source\PSoC6/I2C_1.h **** }
 559:Generated_Source\PSoC6/I2C_1.h **** 
 560:Generated_Source\PSoC6/I2C_1.h **** 
 561:Generated_Source\PSoC6/I2C_1.h **** /*******************************************************************************
ARM GAS  C:\Users\jlabe\AppData\Local\Temp\ccJbzXZ1.s 			page 20


 562:Generated_Source\PSoC6/I2C_1.h **** * Function Name: I2C_1_MasterSendStart
 563:Generated_Source\PSoC6/I2C_1.h **** ****************************************************************************//**
 564:Generated_Source\PSoC6/I2C_1.h **** *
 565:Generated_Source\PSoC6/I2C_1.h **** * Invokes the Cy_SCB_I2C_MasterSendStart() PDL driver function.
 566:Generated_Source\PSoC6/I2C_1.h **** *
 567:Generated_Source\PSoC6/I2C_1.h **** *******************************************************************************/
 568:Generated_Source\PSoC6/I2C_1.h **** __STATIC_INLINE cy_en_scb_i2c_status_t I2C_1_MasterSendStart(uint32_t address, cy_en_scb_i2c_direct
 569:Generated_Source\PSoC6/I2C_1.h **** {
 570:Generated_Source\PSoC6/I2C_1.h ****     return Cy_SCB_I2C_MasterSendStart(I2C_1_HW, address, bitRnW, timeoutMs, &I2C_1_context);
 250              		.loc 2 570 0
 251 0006 144C     		ldr	r4, .L15
 252 0008 144D     		ldr	r5, .L15+4
 253 000a 0095     		str	r5, [sp]
 254 000c 6423     		movs	r3, #100
 255 000e 0022     		movs	r2, #0
 256 0010 5721     		movs	r1, #87
 257 0012 2046     		mov	r0, r4
 258              	.LVL29:
 259 0014 FFF7FEFF 		bl	Cy_SCB_I2C_MasterSendStart
 260              	.LVL30:
 261              	.LBE37:
 262              	.LBE36:
 263              	.LBB38:
 264              	.LBB39:
 571:Generated_Source\PSoC6/I2C_1.h **** }
 572:Generated_Source\PSoC6/I2C_1.h **** 
 573:Generated_Source\PSoC6/I2C_1.h **** 
 574:Generated_Source\PSoC6/I2C_1.h **** /*******************************************************************************
 575:Generated_Source\PSoC6/I2C_1.h **** * Function Name: I2C_1_MasterSendReStart
 576:Generated_Source\PSoC6/I2C_1.h **** ****************************************************************************//**
 577:Generated_Source\PSoC6/I2C_1.h **** *
 578:Generated_Source\PSoC6/I2C_1.h **** * Invokes the Cy_SCB_I2C_MasterSendReStart() PDL driver function.
 579:Generated_Source\PSoC6/I2C_1.h **** *
 580:Generated_Source\PSoC6/I2C_1.h **** *******************************************************************************/
 581:Generated_Source\PSoC6/I2C_1.h **** __STATIC_INLINE cy_en_scb_i2c_status_t I2C_1_MasterSendReStart(uint32_t address, cy_en_scb_i2c_dire
 582:Generated_Source\PSoC6/I2C_1.h **** {
 583:Generated_Source\PSoC6/I2C_1.h ****     return Cy_SCB_I2C_MasterSendReStart(I2C_1_HW, address, bitRnW, timeoutMs, &I2C_1_context);
 584:Generated_Source\PSoC6/I2C_1.h **** }
 585:Generated_Source\PSoC6/I2C_1.h **** 
 586:Generated_Source\PSoC6/I2C_1.h **** 
 587:Generated_Source\PSoC6/I2C_1.h **** /*******************************************************************************
 588:Generated_Source\PSoC6/I2C_1.h **** * Function Name: I2C_1_MasterSendStop
 589:Generated_Source\PSoC6/I2C_1.h **** ****************************************************************************//**
 590:Generated_Source\PSoC6/I2C_1.h **** *
 591:Generated_Source\PSoC6/I2C_1.h **** * Invokes the Cy_SCB_I2C_MasterSendStop() PDL driver function.
 592:Generated_Source\PSoC6/I2C_1.h **** *
 593:Generated_Source\PSoC6/I2C_1.h **** *******************************************************************************/
 594:Generated_Source\PSoC6/I2C_1.h **** __STATIC_INLINE cy_en_scb_i2c_status_t I2C_1_MasterSendStop(uint32_t timeoutMs)
 595:Generated_Source\PSoC6/I2C_1.h **** {
 596:Generated_Source\PSoC6/I2C_1.h ****     return Cy_SCB_I2C_MasterSendStop(I2C_1_HW, timeoutMs, &I2C_1_context);
 597:Generated_Source\PSoC6/I2C_1.h **** }
 598:Generated_Source\PSoC6/I2C_1.h **** 
 599:Generated_Source\PSoC6/I2C_1.h **** 
 600:Generated_Source\PSoC6/I2C_1.h **** /*******************************************************************************
 601:Generated_Source\PSoC6/I2C_1.h **** * Function Name: I2C_1_MasterReadByte
 602:Generated_Source\PSoC6/I2C_1.h **** ****************************************************************************//**
 603:Generated_Source\PSoC6/I2C_1.h **** *
ARM GAS  C:\Users\jlabe\AppData\Local\Temp\ccJbzXZ1.s 			page 21


 604:Generated_Source\PSoC6/I2C_1.h **** * Invokes the Cy_SCB_I2C_MasterReadByte() PDL driver function.
 605:Generated_Source\PSoC6/I2C_1.h **** *
 606:Generated_Source\PSoC6/I2C_1.h **** *******************************************************************************/
 607:Generated_Source\PSoC6/I2C_1.h **** __STATIC_INLINE cy_en_scb_i2c_status_t I2C_1_MasterReadByte(cy_en_scb_i2c_command_t ackNack, uint8_
 608:Generated_Source\PSoC6/I2C_1.h **** {
 609:Generated_Source\PSoC6/I2C_1.h ****     return Cy_SCB_I2C_MasterReadByte(I2C_1_HW, ackNack, byte, timeoutMs, &I2C_1_context);
 610:Generated_Source\PSoC6/I2C_1.h **** }
 611:Generated_Source\PSoC6/I2C_1.h **** 
 612:Generated_Source\PSoC6/I2C_1.h **** 
 613:Generated_Source\PSoC6/I2C_1.h **** /*******************************************************************************
 614:Generated_Source\PSoC6/I2C_1.h **** * Function Name: I2C_1_MasterWriteByte
 615:Generated_Source\PSoC6/I2C_1.h **** ****************************************************************************//**
 616:Generated_Source\PSoC6/I2C_1.h **** *
 617:Generated_Source\PSoC6/I2C_1.h **** * Invokes the Cy_SCB_I2C_MasterWriteByte() PDL driver function.
 618:Generated_Source\PSoC6/I2C_1.h **** *
 619:Generated_Source\PSoC6/I2C_1.h **** *******************************************************************************/
 620:Generated_Source\PSoC6/I2C_1.h **** __STATIC_INLINE cy_en_scb_i2c_status_t I2C_1_MasterWriteByte(uint8_t byte, uint32_t timeoutMs)
 621:Generated_Source\PSoC6/I2C_1.h **** {
 622:Generated_Source\PSoC6/I2C_1.h ****     return Cy_SCB_I2C_MasterWriteByte(I2C_1_HW, byte, timeoutMs, &I2C_1_context);
 265              		.loc 2 622 0
 266 0018 2B46     		mov	r3, r5
 267 001a 6422     		movs	r2, #100
 268 001c 3146     		mov	r1, r6
 269 001e 2046     		mov	r0, r4
 270 0020 FFF7FEFF 		bl	Cy_SCB_I2C_MasterWriteByte
 271              	.LVL31:
 272              	.LBE39:
 273              	.LBE38:
 274              	.LBB40:
 275              	.LBB41:
 583:Generated_Source\PSoC6/I2C_1.h **** }
 276              		.loc 2 583 0
 277 0024 0095     		str	r5, [sp]
 278 0026 6423     		movs	r3, #100
 279 0028 0122     		movs	r2, #1
 280 002a 5721     		movs	r1, #87
 281 002c 2046     		mov	r0, r4
 282 002e FFF7FEFF 		bl	Cy_SCB_I2C_MasterSendReStart
 283              	.LVL32:
 284              	.LBE41:
 285              	.LBE40:
  35:Communication.c ****     
 286              		.loc 1 35 0
 287 0032 0021     		movs	r1, #0
 288 0034 04AA     		add	r2, sp, #16
 289 0036 02F8011D 		strb	r1, [r2, #-1]!
 290              	.LVL33:
 291              	.LBB42:
 292              	.LBB43:
 609:Generated_Source\PSoC6/I2C_1.h **** }
 293              		.loc 2 609 0
 294 003a 0095     		str	r5, [sp]
 295 003c 6423     		movs	r3, #100
 296 003e 2046     		mov	r0, r4
 297 0040 FFF7FEFF 		bl	Cy_SCB_I2C_MasterReadByte
 298              	.LVL34:
 299              	.LBE43:
ARM GAS  C:\Users\jlabe\AppData\Local\Temp\ccJbzXZ1.s 			page 22


 300              	.LBE42:
 301              	.LBB44:
 302              	.LBB45:
 596:Generated_Source\PSoC6/I2C_1.h **** }
 303              		.loc 2 596 0
 304 0044 2A46     		mov	r2, r5
 305 0046 6421     		movs	r1, #100
 306 0048 2046     		mov	r0, r4
 307 004a FFF7FEFF 		bl	Cy_SCB_I2C_MasterSendStop
 308              	.LVL35:
 309              	.LBE45:
 310              	.LBE44:
  42:Communication.c **** 
 311              		.loc 1 42 0
 312 004e 9DF80F00 		ldrb	r0, [sp, #15]	@ zero_extendqisi2
 313 0052 04B0     		add	sp, sp, #16
 314              		.cfi_def_cfa_offset 16
 315              		@ sp needed
 316 0054 70BD     		pop	{r4, r5, r6, pc}
 317              	.L16:
 318 0056 00BF     		.align	2
 319              	.L15:
 320 0058 00006440 		.word	1080295424
 321 005c 00000000 		.word	I2C_1_context
 322              		.cfi_endproc
 323              	.LFE693:
 324              		.size	MAX30102Read, .-MAX30102Read
 325              		.section	.text.MAX30102Write,"ax",%progbits
 326              		.align	2
 327              		.global	MAX30102Write
 328              		.thumb
 329              		.thumb_func
 330              		.type	MAX30102Write, %function
 331              	MAX30102Write:
 332              	.LFB694:
  44:Communication.c ****     
 333              		.loc 1 44 0
 334              		.cfi_startproc
 335              		@ args = 0, pretend = 0, frame = 0
 336              		@ frame_needed = 0, uses_anonymous_args = 0
 337              	.LVL36:
 338 0000 F0B5     		push	{r4, r5, r6, r7, lr}
 339              		.cfi_def_cfa_offset 20
 340              		.cfi_offset 4, -20
 341              		.cfi_offset 5, -16
 342              		.cfi_offset 6, -12
 343              		.cfi_offset 7, -8
 344              		.cfi_offset 14, -4
 345 0002 83B0     		sub	sp, sp, #12
 346              		.cfi_def_cfa_offset 32
 347 0004 0746     		mov	r7, r0
 348 0006 0E46     		mov	r6, r1
 349              	.LVL37:
 350              	.LBB46:
 351              	.LBB47:
 570:Generated_Source\PSoC6/I2C_1.h **** }
 352              		.loc 2 570 0
ARM GAS  C:\Users\jlabe\AppData\Local\Temp\ccJbzXZ1.s 			page 23


 353 0008 0D4C     		ldr	r4, .L19
 354 000a 0E4D     		ldr	r5, .L19+4
 355 000c 0095     		str	r5, [sp]
 356 000e 6423     		movs	r3, #100
 357 0010 0022     		movs	r2, #0
 358 0012 5721     		movs	r1, #87
 359              	.LVL38:
 360 0014 2046     		mov	r0, r4
 361              	.LVL39:
 362 0016 FFF7FEFF 		bl	Cy_SCB_I2C_MasterSendStart
 363              	.LVL40:
 364              	.LBE47:
 365              	.LBE46:
 366              	.LBB48:
 367              	.LBB49:
 368              		.loc 2 622 0
 369 001a 2B46     		mov	r3, r5
 370 001c 6422     		movs	r2, #100
 371 001e 3946     		mov	r1, r7
 372 0020 2046     		mov	r0, r4
 373 0022 FFF7FEFF 		bl	Cy_SCB_I2C_MasterWriteByte
 374              	.LVL41:
 375              	.LBE49:
 376              	.LBE48:
 377              	.LBB50:
 378              	.LBB51:
 379 0026 2B46     		mov	r3, r5
 380 0028 6422     		movs	r2, #100
 381 002a 3146     		mov	r1, r6
 382 002c 2046     		mov	r0, r4
 383 002e FFF7FEFF 		bl	Cy_SCB_I2C_MasterWriteByte
 384              	.LVL42:
 385              	.LBE51:
 386              	.LBE50:
 387              	.LBB52:
 388              	.LBB53:
 596:Generated_Source\PSoC6/I2C_1.h **** }
 389              		.loc 2 596 0
 390 0032 2A46     		mov	r2, r5
 391 0034 6421     		movs	r1, #100
 392 0036 2046     		mov	r0, r4
 393 0038 FFF7FEFF 		bl	Cy_SCB_I2C_MasterSendStop
 394              	.LVL43:
 395              	.LBE53:
 396              	.LBE52:
  51:Communication.c **** 
 397              		.loc 1 51 0
 398 003c 03B0     		add	sp, sp, #12
 399              		.cfi_def_cfa_offset 20
 400              		@ sp needed
 401 003e F0BD     		pop	{r4, r5, r6, r7, pc}
 402              	.L20:
 403              		.align	2
 404              	.L19:
 405 0040 00006440 		.word	1080295424
 406 0044 00000000 		.word	I2C_1_context
 407              		.cfi_endproc
ARM GAS  C:\Users\jlabe\AppData\Local\Temp\ccJbzXZ1.s 			page 24


 408              	.LFE694:
 409              		.size	MAX30102Write, .-MAX30102Write
 410              		.section	.text.MAX30102ReadMultipleBytes,"ax",%progbits
 411              		.align	2
 412              		.global	MAX30102ReadMultipleBytes
 413              		.thumb
 414              		.thumb_func
 415              		.type	MAX30102ReadMultipleBytes, %function
 416              	MAX30102ReadMultipleBytes:
 417              	.LFB695:
  54:Communication.c ****     I2C_1_MasterSendStart(MAX30102_I2C_ADDR,CY_SCB_I2C_WRITE_XFER,I2C_TIMEOUT); 
 418              		.loc 1 54 0
 419              		.cfi_startproc
 420              		@ args = 0, pretend = 0, frame = 0
 421              		@ frame_needed = 0, uses_anonymous_args = 0
 422              	.LVL44:
 423 0000 2DE9F041 		push	{r4, r5, r6, r7, r8, lr}
 424              		.cfi_def_cfa_offset 24
 425              		.cfi_offset 4, -24
 426              		.cfi_offset 5, -20
 427              		.cfi_offset 6, -16
 428              		.cfi_offset 7, -12
 429              		.cfi_offset 8, -8
 430              		.cfi_offset 14, -4
 431 0004 82B0     		sub	sp, sp, #8
 432              		.cfi_def_cfa_offset 32
 433 0006 8046     		mov	r8, r0
 434 0008 0D46     		mov	r5, r1
 435 000a 1646     		mov	r6, r2
 436              	.LVL45:
 437              	.LBB54:
 438              	.LBB55:
 570:Generated_Source\PSoC6/I2C_1.h **** }
 439              		.loc 2 570 0
 440 000c 1A4C     		ldr	r4, .L25
 441 000e 1B4F     		ldr	r7, .L25+4
 442 0010 0097     		str	r7, [sp]
 443 0012 6423     		movs	r3, #100
 444 0014 0022     		movs	r2, #0
 445              	.LVL46:
 446 0016 5721     		movs	r1, #87
 447              	.LVL47:
 448 0018 2046     		mov	r0, r4
 449              	.LVL48:
 450 001a FFF7FEFF 		bl	Cy_SCB_I2C_MasterSendStart
 451              	.LVL49:
 452              	.LBE55:
 453              	.LBE54:
 454              	.LBB56:
 455              	.LBB57:
 456              		.loc 2 622 0
 457 001e 3B46     		mov	r3, r7
 458 0020 6422     		movs	r2, #100
 459 0022 4146     		mov	r1, r8
 460 0024 2046     		mov	r0, r4
 461 0026 FFF7FEFF 		bl	Cy_SCB_I2C_MasterWriteByte
 462              	.LVL50:
ARM GAS  C:\Users\jlabe\AppData\Local\Temp\ccJbzXZ1.s 			page 25


 463              	.LBE57:
 464              	.LBE56:
 465              	.LBB58:
 466              	.LBB59:
 583:Generated_Source\PSoC6/I2C_1.h **** }
 467              		.loc 2 583 0
 468 002a 0097     		str	r7, [sp]
 469 002c 6423     		movs	r3, #100
 470 002e 0122     		movs	r2, #1
 471 0030 5721     		movs	r1, #87
 472 0032 2046     		mov	r0, r4
 473 0034 FFF7FEFF 		bl	Cy_SCB_I2C_MasterSendReStart
 474              	.LVL51:
 475              	.LBE59:
 476              	.LBE58:
  59:Communication.c ****         I2C_1_MasterReadByte(CY_SCB_I2C_ACK,(uint8_t*)&buffer[idx],I2C_TIMEOUT);  
 477              		.loc 1 59 0
 478 0038 0024     		movs	r4, #0
 479 003a 09E0     		b	.L22
 480              	.LVL52:
 481              	.L23:
 482              	.LBB60:
 483              	.LBB61:
 609:Generated_Source\PSoC6/I2C_1.h **** }
 484              		.loc 2 609 0 discriminator 3
 485 003c 0F4B     		ldr	r3, .L25+4
 486 003e 0093     		str	r3, [sp]
 487 0040 6423     		movs	r3, #100
 488 0042 2A19     		adds	r2, r5, r4
 489              	.LVL53:
 490 0044 0021     		movs	r1, #0
 491 0046 0C48     		ldr	r0, .L25
 492 0048 FFF7FEFF 		bl	Cy_SCB_I2C_MasterReadByte
 493              	.LVL54:
 494              	.LBE61:
 495              	.LBE60:
  59:Communication.c ****         I2C_1_MasterReadByte(CY_SCB_I2C_ACK,(uint8_t*)&buffer[idx],I2C_TIMEOUT);  
 496              		.loc 1 59 0 discriminator 3
 497 004c 0134     		adds	r4, r4, #1
 498              	.LVL55:
 499 004e E4B2     		uxtb	r4, r4
 500              	.LVL56:
 501              	.L22:
  59:Communication.c ****         I2C_1_MasterReadByte(CY_SCB_I2C_ACK,(uint8_t*)&buffer[idx],I2C_TIMEOUT);  
 502              		.loc 1 59 0 is_stmt 0 discriminator 1
 503 0050 731E     		subs	r3, r6, #1
 504 0052 9C42     		cmp	r4, r3
 505 0054 F2DB     		blt	.L23
 506              	.LVL57:
 507              	.LBB62:
 508              	.LBB63:
 609:Generated_Source\PSoC6/I2C_1.h **** }
 509              		.loc 2 609 0 is_stmt 1
 510 0056 084E     		ldr	r6, .L25
 511 0058 084F     		ldr	r7, .L25+4
 512 005a 0097     		str	r7, [sp]
 513 005c 6423     		movs	r3, #100
ARM GAS  C:\Users\jlabe\AppData\Local\Temp\ccJbzXZ1.s 			page 26


 514 005e 2A19     		adds	r2, r5, r4
 515              	.LVL58:
 516 0060 0121     		movs	r1, #1
 517 0062 3046     		mov	r0, r6
 518 0064 FFF7FEFF 		bl	Cy_SCB_I2C_MasterReadByte
 519              	.LVL59:
 520              	.LBE63:
 521              	.LBE62:
 522              	.LBB64:
 523              	.LBB65:
 596:Generated_Source\PSoC6/I2C_1.h **** }
 524              		.loc 2 596 0
 525 0068 3A46     		mov	r2, r7
 526 006a 6421     		movs	r1, #100
 527 006c 3046     		mov	r0, r6
 528 006e FFF7FEFF 		bl	Cy_SCB_I2C_MasterSendStop
 529              	.LVL60:
 530              	.LBE65:
 531              	.LBE64:
  64:Communication.c **** 
 532              		.loc 1 64 0
 533 0072 02B0     		add	sp, sp, #8
 534              		.cfi_def_cfa_offset 24
 535              		@ sp needed
 536 0074 BDE8F081 		pop	{r4, r5, r6, r7, r8, pc}
 537              	.LVL61:
 538              	.L26:
 539              		.align	2
 540              	.L25:
 541 0078 00006440 		.word	1080295424
 542 007c 00000000 		.word	I2C_1_context
 543              		.cfi_endproc
 544              	.LFE695:
 545              		.size	MAX30102ReadMultipleBytes, .-MAX30102ReadMultipleBytes
 546              		.section	.text.MAX30102ReadFIFO16bits,"ax",%progbits
 547              		.align	2
 548              		.global	MAX30102ReadFIFO16bits
 549              		.thumb
 550              		.thumb_func
 551              		.type	MAX30102ReadFIFO16bits, %function
 552              	MAX30102ReadFIFO16bits:
 553              	.LFB696:
  67:Communication.c ****      
 554              		.loc 1 67 0
 555              		.cfi_startproc
 556              		@ args = 0, pretend = 0, frame = 8
 557              		@ frame_needed = 0, uses_anonymous_args = 0
 558              	.LVL62:
 559 0000 70B5     		push	{r4, r5, r6, lr}
 560              		.cfi_def_cfa_offset 16
 561              		.cfi_offset 4, -16
 562              		.cfi_offset 5, -12
 563              		.cfi_offset 6, -8
 564              		.cfi_offset 14, -4
 565 0002 82B0     		sub	sp, sp, #8
 566              		.cfi_def_cfa_offset 24
 567 0004 0646     		mov	r6, r0
ARM GAS  C:\Users\jlabe\AppData\Local\Temp\ccJbzXZ1.s 			page 27


 568 0006 0D46     		mov	r5, r1
  75:Communication.c ****         for (int i = 0 ; i < BUFFER_SIZE ; i++){
 569              		.loc 1 75 0
 570 0008 0020     		movs	r0, #0
 571              	.LVL63:
 572 000a FFF7FEFF 		bl	MAX30102Read
 573              	.LVL64:
 574              	.LBB66:
  76:Communication.c ****             data_red[i] = 0; //initialisation
 575              		.loc 1 76 0
 576 000e 0024     		movs	r4, #0
 577 0010 26E0     		b	.L28
 578              	.LVL65:
 579              	.L29:
  77:Communication.c ****             data_ir[i] = 0;
 580              		.loc 1 77 0 discriminator 3
 581 0012 0023     		movs	r3, #0
 582 0014 26F81430 		strh	r3, [r6, r4, lsl #1]	@ movhi
  78:Communication.c ****             
 583              		.loc 1 78 0 discriminator 3
 584 0018 25F81430 		strh	r3, [r5, r4, lsl #1]	@ movhi
  81:Communication.c ****             
 585              		.loc 1 81 0 discriminator 3
 586 001c 0622     		movs	r2, #6
 587 001e 6946     		mov	r1, sp
 588 0020 0720     		movs	r0, #7
 589 0022 FFF7FEFF 		bl	MAX30102ReadMultipleBytes
 590              	.LVL66:
  85:Communication.c ****             temp = temp_buffer[1]; //remplissage de 8bits
 591              		.loc 1 85 0 discriminator 3
 592 0026 36F81430 		ldrh	r3, [r6, r4, lsl #1]
  86:Communication.c ****             temp <<= 8; //bitshift de 8bits
 593              		.loc 1 86 0 discriminator 3
 594 002a 9DF80120 		ldrb	r2, [sp, #1]	@ zero_extendqisi2
 595              	.LVL67:
  88:Communication.c ****             temp = temp_buffer[2]; //remplissage de 8bits
 596              		.loc 1 88 0 discriminator 3
 597 002e 03EB0223 		add	r3, r3, r2, lsl #8
 598 0032 9BB2     		uxth	r3, r3
 599 0034 26F81430 		strh	r3, [r6, r4, lsl #1]	@ movhi
  89:Communication.c ****             data_red[i] += temp; //ajout de 8bits pour un total de 24bits sur 32
 600              		.loc 1 89 0 discriminator 3
 601 0038 9DF80220 		ldrb	r2, [sp, #2]	@ zero_extendqisi2
 602              	.LVL68:
  90:Communication.c ****             
 603              		.loc 1 90 0 discriminator 3
 604 003c 1344     		add	r3, r3, r2
 605 003e 26F81430 		strh	r3, [r6, r4, lsl #1]	@ movhi
 606              	.LVL69:
  94:Communication.c ****             temp = temp_buffer[4];
 607              		.loc 1 94 0 discriminator 3
 608 0042 35F81430 		ldrh	r3, [r5, r4, lsl #1]
  95:Communication.c ****             temp <<= 8;
 609              		.loc 1 95 0 discriminator 3
 610 0046 9DF80420 		ldrb	r2, [sp, #4]	@ zero_extendqisi2
 611              	.LVL70:
  97:Communication.c ****             temp = temp_buffer[5];
ARM GAS  C:\Users\jlabe\AppData\Local\Temp\ccJbzXZ1.s 			page 28


 612              		.loc 1 97 0 discriminator 3
 613 004a 03EB0223 		add	r3, r3, r2, lsl #8
 614 004e 9BB2     		uxth	r3, r3
 615 0050 25F81430 		strh	r3, [r5, r4, lsl #1]	@ movhi
  98:Communication.c ****             data_ir[i] += temp;
 616              		.loc 1 98 0 discriminator 3
 617 0054 9DF80520 		ldrb	r2, [sp, #5]	@ zero_extendqisi2
 618              	.LVL71:
  99:Communication.c ****             
 619              		.loc 1 99 0 discriminator 3
 620 0058 1344     		add	r3, r3, r2
 621 005a 25F81430 		strh	r3, [r5, r4, lsl #1]	@ movhi
  76:Communication.c ****             data_red[i] = 0; //initialisation
 622              		.loc 1 76 0 discriminator 3
 623 005e 0134     		adds	r4, r4, #1
 624              	.LVL72:
 625              	.L28:
  76:Communication.c ****             data_red[i] = 0; //initialisation
 626              		.loc 1 76 0 is_stmt 0 discriminator 1
 627 0060 B4F57A7F 		cmp	r4, #1000
 628 0064 D5DB     		blt	.L29
 629              	.LBE66:
 104:Communication.c **** 
 630              		.loc 1 104 0 is_stmt 1
 631 0066 02B0     		add	sp, sp, #8
 632              		.cfi_def_cfa_offset 16
 633              		@ sp needed
 634 0068 70BD     		pop	{r4, r5, r6, pc}
 635              		.cfi_endproc
 636              	.LFE696:
 637              		.size	MAX30102ReadFIFO16bits, .-MAX30102ReadFIFO16bits
 638 006a 00BF     		.section	.text.MAX30102ReadFIFO32bits,"ax",%progbits
 639              		.align	2
 640              		.global	MAX30102ReadFIFO32bits
 641              		.thumb
 642              		.thumb_func
 643              		.type	MAX30102ReadFIFO32bits, %function
 644              	MAX30102ReadFIFO32bits:
 645              	.LFB697:
 108:Communication.c **** 
 646              		.loc 1 108 0
 647              		.cfi_startproc
 648              		@ args = 0, pretend = 0, frame = 8
 649              		@ frame_needed = 0, uses_anonymous_args = 0
 650              	.LVL73:
 651 0000 30B5     		push	{r4, r5, lr}
 652              		.cfi_def_cfa_offset 12
 653              		.cfi_offset 4, -12
 654              		.cfi_offset 5, -8
 655              		.cfi_offset 14, -4
 656 0002 83B0     		sub	sp, sp, #12
 657              		.cfi_def_cfa_offset 24
 658 0004 0446     		mov	r4, r0
 659 0006 0D46     		mov	r5, r1
 117:Communication.c ****     *data_ir = 0;
 660              		.loc 1 117 0
 661 0008 0023     		movs	r3, #0
ARM GAS  C:\Users\jlabe\AppData\Local\Temp\ccJbzXZ1.s 			page 29


 662 000a 0360     		str	r3, [r0]
 118:Communication.c **** 
 663              		.loc 1 118 0
 664 000c 0B60     		str	r3, [r1]
 120:Communication.c ****     
 665              		.loc 1 120 0
 666 000e 0622     		movs	r2, #6
 667 0010 6946     		mov	r1, sp
 668              	.LVL74:
 669 0012 0720     		movs	r0, #7
 670              	.LVL75:
 671 0014 FFF7FEFF 		bl	MAX30102ReadMultipleBytes
 672              	.LVL76:
 122:Communication.c ****     temp <<= 16; //bitshift de 16bits (supprime un byte si 16bit)
 673              		.loc 1 122 0
 674 0018 9DF80020 		ldrb	r2, [sp]	@ zero_extendqisi2
 675              	.LVL77:
 124:Communication.c ****     temp = temp_buffer[1]; //remplissage de 8bits
 676              		.loc 1 124 0
 677 001c 2368     		ldr	r3, [r4]
 678 001e 03EB0243 		add	r3, r3, r2, lsl #16
 125:Communication.c ****     temp <<= 8; //bitshift de 8bits
 679              		.loc 1 125 0
 680 0022 9DF80120 		ldrb	r2, [sp, #1]	@ zero_extendqisi2
 681              	.LVL78:
 127:Communication.c ****     temp = temp_buffer[2]; //remplissage de 8bits
 682              		.loc 1 127 0
 683 0026 03EB0223 		add	r3, r3, r2, lsl #8
 128:Communication.c ****     *data_red += temp; //ajout de 8bits pour un total de 24bits sur 32
 684              		.loc 1 128 0
 685 002a 9DF80220 		ldrb	r2, [sp, #2]	@ zero_extendqisi2
 686              	.LVL79:
 129:Communication.c ****     
 687              		.loc 1 129 0
 688 002e 1344     		add	r3, r3, r2
 689 0030 2360     		str	r3, [r4]
 131:Communication.c ****     temp <<= 16;
 690              		.loc 1 131 0
 691 0032 9DF80320 		ldrb	r2, [sp, #3]	@ zero_extendqisi2
 692              	.LVL80:
 133:Communication.c ****     temp = temp_buffer[4];
 693              		.loc 1 133 0
 694 0036 2B68     		ldr	r3, [r5]
 695 0038 03EB0243 		add	r3, r3, r2, lsl #16
 134:Communication.c ****     temp <<= 8;
 696              		.loc 1 134 0
 697 003c 9DF80420 		ldrb	r2, [sp, #4]	@ zero_extendqisi2
 698              	.LVL81:
 136:Communication.c ****     temp = temp_buffer[5];
 699              		.loc 1 136 0
 700 0040 03EB0223 		add	r3, r3, r2, lsl #8
 137:Communication.c ****     *data_ir += temp;
 701              		.loc 1 137 0
 702 0044 9DF80520 		ldrb	r2, [sp, #5]	@ zero_extendqisi2
 703              	.LVL82:
 138:Communication.c ****     
 704              		.loc 1 138 0
ARM GAS  C:\Users\jlabe\AppData\Local\Temp\ccJbzXZ1.s 			page 30


 705 0048 1344     		add	r3, r3, r2
 140:Communication.c ****     *data_red &= UN_MIN;
 706              		.loc 1 140 0
 707 004a C3F31103 		ubfx	r3, r3, #0, #18
 708 004e 2B60     		str	r3, [r5]
 141:Communication.c ****     
 709              		.loc 1 141 0
 710 0050 2368     		ldr	r3, [r4]
 711 0052 C3F31103 		ubfx	r3, r3, #0, #18
 712 0056 2360     		str	r3, [r4]
 143:Communication.c **** 
 713              		.loc 1 143 0
 714 0058 03B0     		add	sp, sp, #12
 715              		.cfi_def_cfa_offset 12
 716              		@ sp needed
 717 005a 30BD     		pop	{r4, r5, pc}
 718              		.cfi_endproc
 719              	.LFE697:
 720              		.size	MAX30102ReadFIFO32bits, .-MAX30102ReadFIFO32bits
 721              		.section	.text.MAX30102Config,"ax",%progbits
 722              		.align	2
 723              		.global	MAX30102Config
 724              		.thumb
 725              		.thumb_func
 726              		.type	MAX30102Config, %function
 727              	MAX30102Config:
 728              	.LFB698:
 146:Communication.c ****     //REG_INTR_ENABLE_1
 729              		.loc 1 146 0
 730              		.cfi_startproc
 731              		@ args = 0, pretend = 0, frame = 0
 732              		@ frame_needed = 0, uses_anonymous_args = 0
 733 0000 08B5     		push	{r3, lr}
 734              		.cfi_def_cfa_offset 8
 735              		.cfi_offset 3, -8
 736              		.cfi_offset 14, -4
 149:Communication.c ****         (A_FULL_YES << A_FULL_RM_BIT)|(PPG_RDY_YES << PPG_RDY_RM_BIT)
 737              		.loc 1 149 0
 738 0002 C021     		movs	r1, #192
 739 0004 0220     		movs	r0, #2
 740 0006 FFF7FEFF 		bl	MAX30102Write
 741              	.LVL83:
 155:Communication.c ****         (DIE_TEMP_READY_NO << DIE_TEMP_READY_RM_BIT));
 742              		.loc 1 155 0
 743 000a 0021     		movs	r1, #0
 744 000c 0320     		movs	r0, #3
 745 000e FFF7FEFF 		bl	MAX30102Write
 746              	.LVL84:
 160:Communication.c **** 
 747              		.loc 1 160 0
 748 0012 0021     		movs	r1, #0
 749 0014 0420     		movs	r0, #4
 750 0016 FFF7FEFF 		bl	MAX30102Write
 751              	.LVL85:
 164:Communication.c ****     
 752              		.loc 1 164 0
 753 001a 0021     		movs	r1, #0
ARM GAS  C:\Users\jlabe\AppData\Local\Temp\ccJbzXZ1.s 			page 31


 754 001c 0520     		movs	r0, #5
 755 001e FFF7FEFF 		bl	MAX30102Write
 756              	.LVL86:
 168:Communication.c **** 
 757              		.loc 1 168 0
 758 0022 0021     		movs	r1, #0
 759 0024 0620     		movs	r0, #6
 760 0026 FFF7FEFF 		bl	MAX30102Write
 761              	.LVL87:
 172:Communication.c ****         (SMP_AVE_2 << SMP_AVE_RM_BIT) | (FIFO_ROLLOVER_EN_0 << FIFO_A_FULL_RM_BIT)
 762              		.loc 1 172 0
 763 002a 2F21     		movs	r1, #47
 764 002c 0820     		movs	r0, #8
 765 002e FFF7FEFF 		bl	MAX30102Write
 766              	.LVL88:
 178:Communication.c ****     (SHDN_NO << SHDN_RM_BIT)|(RESET_NO << RESET_RM_BIT)|(MODE_SPO2 << MODE_RM_BIT));
 767              		.loc 1 178 0
 768 0032 0321     		movs	r1, #3
 769 0034 0920     		movs	r0, #9
 770 0036 FFF7FEFF 		bl	MAX30102Write
 771              	.LVL89:
 183:Communication.c ****     (SPO2_ADC_RGE_4096 << 5)|(SPO2_SR_100 << 2)|(LED_PW_411));
 772              		.loc 1 183 0
 773 003a 2721     		movs	r1, #39
 774 003c 0A20     		movs	r0, #10
 775 003e FFF7FEFF 		bl	MAX30102Write
 776              	.LVL90:
 187:Communication.c **** 
 777              		.loc 1 187 0
 778 0042 0A21     		movs	r1, #10
 779 0044 0C20     		movs	r0, #12
 780 0046 FFF7FEFF 		bl	MAX30102Write
 781              	.LVL91:
 190:Communication.c **** 
 782              		.loc 1 190 0
 783 004a 0A21     		movs	r1, #10
 784 004c 0D20     		movs	r0, #13
 785 004e FFF7FEFF 		bl	MAX30102Write
 786              	.LVL92:
 193:Communication.c ****     
 787              		.loc 1 193 0
 788 0052 7D21     		movs	r1, #125
 789 0054 1020     		movs	r0, #16
 790 0056 FFF7FEFF 		bl	MAX30102Write
 791              	.LVL93:
 196:Communication.c **** 
 792              		.loc 1 196 0
 793 005a 0121     		movs	r1, #1
 794 005c 2120     		movs	r0, #33
 795 005e FFF7FEFF 		bl	MAX30102Write
 796              	.LVL94:
 797 0062 08BD     		pop	{r3, pc}
 798              		.cfi_endproc
 799              	.LFE698:
 800              		.size	MAX30102Config, .-MAX30102Config
 801              		.section	.text.MAX30102Reset,"ax",%progbits
 802              		.align	2
ARM GAS  C:\Users\jlabe\AppData\Local\Temp\ccJbzXZ1.s 			page 32


 803              		.global	MAX30102Reset
 804              		.thumb
 805              		.thumb_func
 806              		.type	MAX30102Reset, %function
 807              	MAX30102Reset:
 808              	.LFB699:
 200:Communication.c ****     MAX30102Write(REG_MODE_CONFIG, RESET_YES << RESET_RM_BIT);
 809              		.loc 1 200 0
 810              		.cfi_startproc
 811              		@ args = 0, pretend = 0, frame = 0
 812              		@ frame_needed = 0, uses_anonymous_args = 0
 813 0000 08B5     		push	{r3, lr}
 814              		.cfi_def_cfa_offset 8
 815              		.cfi_offset 3, -8
 816              		.cfi_offset 14, -4
 201:Communication.c **** }
 817              		.loc 1 201 0
 818 0002 4021     		movs	r1, #64
 819 0004 0920     		movs	r0, #9
 820 0006 FFF7FEFF 		bl	MAX30102Write
 821              	.LVL95:
 822 000a 08BD     		pop	{r3, pc}
 823              		.cfi_endproc
 824              	.LFE699:
 825              		.size	MAX30102Reset, .-MAX30102Reset
 826              		.section	.text.change_RED_LED_amp,"ax",%progbits
 827              		.align	2
 828              		.global	change_RED_LED_amp
 829              		.thumb
 830              		.thumb_func
 831              		.type	change_RED_LED_amp, %function
 832              	change_RED_LED_amp:
 833              	.LFB700:
 204:Communication.c ****     
 834              		.loc 1 204 0
 835              		.cfi_startproc
 836              		@ args = 0, pretend = 0, frame = 0
 837              		@ frame_needed = 0, uses_anonymous_args = 0
 838              	.LVL96:
 839 0000 08B5     		push	{r3, lr}
 840              		.cfi_def_cfa_offset 8
 841              		.cfi_offset 3, -8
 842              		.cfi_offset 14, -4
 206:Communication.c **** }
 843              		.loc 1 206 0
 844 0002 0146     		mov	r1, r0
 845 0004 0C20     		movs	r0, #12
 846              	.LVL97:
 847 0006 FFF7FEFF 		bl	MAX30102Write
 848              	.LVL98:
 849 000a 08BD     		pop	{r3, pc}
 850              		.cfi_endproc
 851              	.LFE700:
 852              		.size	change_RED_LED_amp, .-change_RED_LED_amp
 853              		.section	.text.MAX30102ReadTemperature,"ax",%progbits
 854              		.align	2
 855              		.global	MAX30102ReadTemperature
ARM GAS  C:\Users\jlabe\AppData\Local\Temp\ccJbzXZ1.s 			page 33


 856              		.thumb
 857              		.thumb_func
 858              		.type	MAX30102ReadTemperature, %function
 859              	MAX30102ReadTemperature:
 860              	.LFB701:
 209:Communication.c ****     
 861              		.loc 1 209 0
 862              		.cfi_startproc
 863              		@ args = 0, pretend = 0, frame = 0
 864              		@ frame_needed = 0, uses_anonymous_args = 0
 865              	.LVL99:
 866 0000 08B5     		push	{r3, lr}
 867              		.cfi_def_cfa_offset 8
 868              		.cfi_offset 3, -8
 869              		.cfi_offset 14, -4
 211:Communication.c **** 
 870              		.loc 1 211 0
 871 0002 0822     		movs	r2, #8
 872 0004 0146     		mov	r1, r0
 873 0006 1F20     		movs	r0, #31
 874              	.LVL100:
 875 0008 FFF7FEFF 		bl	MAX30102ReadMultipleBytes
 876              	.LVL101:
 877 000c 08BD     		pop	{r3, pc}
 878              		.cfi_endproc
 879              	.LFE701:
 880              		.size	MAX30102ReadTemperature, .-MAX30102ReadTemperature
 881 000e 00BF     		.section	.text.MAX30102Task,"ax",%progbits
 882              		.align	2
 883              		.global	MAX30102Task
 884              		.thumb
 885              		.thumb_func
 886              		.type	MAX30102Task, %function
 887              	MAX30102Task:
 888              	.LFB702:
 216:Communication.c ****     (void)arg;
 889              		.loc 1 216 0
 890              		.cfi_startproc
 891              		@ args = 0, pretend = 0, frame = 8000
 892              		@ frame_needed = 0, uses_anonymous_args = 0
 893              	.LVL102:
 894 0000 30B5     		push	{r4, r5, lr}
 895              		.cfi_def_cfa_offset 12
 896              		.cfi_offset 4, -12
 897              		.cfi_offset 5, -8
 898              		.cfi_offset 14, -4
 899 0002 ADF5FA5D 		sub	sp, sp, #8000
 900              		.cfi_def_cfa_offset 8012
 901 0006 81B0     		sub	sp, sp, #4
 902              		.cfi_def_cfa_offset 8016
 903              	.LVL103:
 221:Communication.c ****     //uint8_t temperature;
 904              		.loc 1 221 0
 905 0008 0024     		movs	r4, #0
 906              	.LVL104:
 907              	.L44:
 225:Communication.c ****             i++;
ARM GAS  C:\Users\jlabe\AppData\Local\Temp\ccJbzXZ1.s 			page 34


 908              		.loc 1 225 0
 909 000a B4F57A7F 		cmp	r4, #1000
 910 000e 01D0     		beq	.L43
 226:Communication.c ****         }
 911              		.loc 1 226 0
 912 0010 0134     		adds	r4, r4, #1
 913              	.LVL105:
 914 0012 A4B2     		uxth	r4, r4
 915              	.LVL106:
 916              	.L43:
 917              	.LBB67:
 918              	.LBB68:
 919              		.file 3 "Generated_Source\\PSoC6\\pdl\\drivers/peripheral/gpio/cy_gpio.h"
   1:Generated_Source\PSoC6\pdl\drivers/peripheral/gpio/cy_gpio.h **** /***************************************************************************//**
   2:Generated_Source\PSoC6\pdl\drivers/peripheral/gpio/cy_gpio.h **** * \file cy_gpio.h
   3:Generated_Source\PSoC6\pdl\drivers/peripheral/gpio/cy_gpio.h **** * \version 1.20
   4:Generated_Source\PSoC6\pdl\drivers/peripheral/gpio/cy_gpio.h **** *
   5:Generated_Source\PSoC6\pdl\drivers/peripheral/gpio/cy_gpio.h **** * Provides an API declaration of the GPIO driver
   6:Generated_Source\PSoC6\pdl\drivers/peripheral/gpio/cy_gpio.h **** *
   7:Generated_Source\PSoC6\pdl\drivers/peripheral/gpio/cy_gpio.h **** ********************************************************************************
   8:Generated_Source\PSoC6\pdl\drivers/peripheral/gpio/cy_gpio.h **** * \copyright
   9:Generated_Source\PSoC6\pdl\drivers/peripheral/gpio/cy_gpio.h **** * Copyright 2016-2018, Cypress Semiconductor Corporation. All rights reserved.
  10:Generated_Source\PSoC6\pdl\drivers/peripheral/gpio/cy_gpio.h **** * You may use this file only in accordance with the license, terms, conditions,
  11:Generated_Source\PSoC6\pdl\drivers/peripheral/gpio/cy_gpio.h **** * disclaimers, and limitations in the end user license agreement accompanying
  12:Generated_Source\PSoC6\pdl\drivers/peripheral/gpio/cy_gpio.h **** * the software package with which this file was provided.
  13:Generated_Source\PSoC6\pdl\drivers/peripheral/gpio/cy_gpio.h **** *******************************************************************************/
  14:Generated_Source\PSoC6\pdl\drivers/peripheral/gpio/cy_gpio.h **** 
  15:Generated_Source\PSoC6\pdl\drivers/peripheral/gpio/cy_gpio.h **** /**
  16:Generated_Source\PSoC6\pdl\drivers/peripheral/gpio/cy_gpio.h **** * \addtogroup group_gpio
  17:Generated_Source\PSoC6\pdl\drivers/peripheral/gpio/cy_gpio.h **** * \{
  18:Generated_Source\PSoC6\pdl\drivers/peripheral/gpio/cy_gpio.h **** * The GPIO driver provides an API to configure and access device Input/Output pins.
  19:Generated_Source\PSoC6\pdl\drivers/peripheral/gpio/cy_gpio.h **** *
  20:Generated_Source\PSoC6\pdl\drivers/peripheral/gpio/cy_gpio.h **** * The functions and other declarations used in this driver are in cy_gpio.h. 
  21:Generated_Source\PSoC6\pdl\drivers/peripheral/gpio/cy_gpio.h **** * You can include cy_pdl.h (ModusToolbox only) to get access to all functions 
  22:Generated_Source\PSoC6\pdl\drivers/peripheral/gpio/cy_gpio.h **** * and declarations in the PDL.
  23:Generated_Source\PSoC6\pdl\drivers/peripheral/gpio/cy_gpio.h **** *
  24:Generated_Source\PSoC6\pdl\drivers/peripheral/gpio/cy_gpio.h **** * IO pins include all general purpose types such as GPIO, SIO, HSIO, AUXIO, and
  25:Generated_Source\PSoC6\pdl\drivers/peripheral/gpio/cy_gpio.h **** * their variants.
  26:Generated_Source\PSoC6\pdl\drivers/peripheral/gpio/cy_gpio.h **** *
  27:Generated_Source\PSoC6\pdl\drivers/peripheral/gpio/cy_gpio.h **** * Initialization can be performed either at the port level or by configuring the
  28:Generated_Source\PSoC6\pdl\drivers/peripheral/gpio/cy_gpio.h **** * individual pins. For efficient use of code space, port
  29:Generated_Source\PSoC6\pdl\drivers/peripheral/gpio/cy_gpio.h **** * configuration should be used in the field. Refer to the product device header files 
  30:Generated_Source\PSoC6\pdl\drivers/peripheral/gpio/cy_gpio.h **** * for the list of supported ports and pins.
  31:Generated_Source\PSoC6\pdl\drivers/peripheral/gpio/cy_gpio.h **** * 
  32:Generated_Source\PSoC6\pdl\drivers/peripheral/gpio/cy_gpio.h **** * - Single pin configuration is performed by using \ref Cy_GPIO_Pin_FastInit 
  33:Generated_Source\PSoC6\pdl\drivers/peripheral/gpio/cy_gpio.h **** *   (provide specific values) or \ref Cy_GPIO_Pin_Init (provide a filled
  34:Generated_Source\PSoC6\pdl\drivers/peripheral/gpio/cy_gpio.h **** *   cy_stc_gpio_pin_config_t structure).
  35:Generated_Source\PSoC6\pdl\drivers/peripheral/gpio/cy_gpio.h **** * - An entire port can be configured using \ref Cy_GPIO_Port_Init. Provide a filled 
  36:Generated_Source\PSoC6\pdl\drivers/peripheral/gpio/cy_gpio.h **** *   cy_stc_gpio_prt_config_t structure. The values in the structure are 
  37:Generated_Source\PSoC6\pdl\drivers/peripheral/gpio/cy_gpio.h **** *   bitfields representing the desired value for each pin in the port.
  38:Generated_Source\PSoC6\pdl\drivers/peripheral/gpio/cy_gpio.h **** * - Pin configuration and management is based on the port address and pin number.
  39:Generated_Source\PSoC6\pdl\drivers/peripheral/gpio/cy_gpio.h **** *   \ref Cy_GPIO_PortToAddr function can optionally be used to calculate the port
  40:Generated_Source\PSoC6\pdl\drivers/peripheral/gpio/cy_gpio.h **** *   address from the port number at run-time.
  41:Generated_Source\PSoC6\pdl\drivers/peripheral/gpio/cy_gpio.h **** *
  42:Generated_Source\PSoC6\pdl\drivers/peripheral/gpio/cy_gpio.h **** * Once the pin/port initialization is complete, each pin can be accessed by 
  43:Generated_Source\PSoC6\pdl\drivers/peripheral/gpio/cy_gpio.h **** * specifying the port (GPIO_PRT_Type) and the pin (0-7) in the provided API 
  44:Generated_Source\PSoC6\pdl\drivers/peripheral/gpio/cy_gpio.h **** * functions.
ARM GAS  C:\Users\jlabe\AppData\Local\Temp\ccJbzXZ1.s 			page 35


  45:Generated_Source\PSoC6\pdl\drivers/peripheral/gpio/cy_gpio.h **** *
  46:Generated_Source\PSoC6\pdl\drivers/peripheral/gpio/cy_gpio.h **** * \section group_gpio_configuration Configuration Considerations
  47:Generated_Source\PSoC6\pdl\drivers/peripheral/gpio/cy_gpio.h **** *
  48:Generated_Source\PSoC6\pdl\drivers/peripheral/gpio/cy_gpio.h **** * 1. Pin multiplexing is controlled through the High-Speed IO Matrix (HSIOM) selection.
  49:Generated_Source\PSoC6\pdl\drivers/peripheral/gpio/cy_gpio.h **** *    This allows the pin to connect to signal sources/sinks throughout the device,
  50:Generated_Source\PSoC6\pdl\drivers/peripheral/gpio/cy_gpio.h **** *    as defined by the pin HSIOM selection options (en_hsiom_sel_t).
  51:Generated_Source\PSoC6\pdl\drivers/peripheral/gpio/cy_gpio.h **** * 2. All pins are initialized to High-Z drive mode with HSIOM connected to CPU (SW
  52:Generated_Source\PSoC6\pdl\drivers/peripheral/gpio/cy_gpio.h **** *    control digital pin only) at Power-On-Reset(POR).
  53:Generated_Source\PSoC6\pdl\drivers/peripheral/gpio/cy_gpio.h **** * 3. Some API functions perform read-modify-write operations on shared port
  54:Generated_Source\PSoC6\pdl\drivers/peripheral/gpio/cy_gpio.h **** *    registers. These functions are not thread safe and care must be taken when
  55:Generated_Source\PSoC6\pdl\drivers/peripheral/gpio/cy_gpio.h **** *    called by the application.
  56:Generated_Source\PSoC6\pdl\drivers/peripheral/gpio/cy_gpio.h **** * 4. Digital input buffer provides a high-impedance buffer for the external 
  57:Generated_Source\PSoC6\pdl\drivers/peripheral/gpio/cy_gpio.h **** *    digital input. The input buffer is connected to the HSIOM for routing to 
  58:Generated_Source\PSoC6\pdl\drivers/peripheral/gpio/cy_gpio.h **** *    the CPU port registers and selected peripheral. Enabling the input 
  59:Generated_Source\PSoC6\pdl\drivers/peripheral/gpio/cy_gpio.h **** *    buffer provides possibility to read the pin state via the CPU.
  60:Generated_Source\PSoC6\pdl\drivers/peripheral/gpio/cy_gpio.h **** *    If pin is connected to an analog signal, the input buffer should be 
  61:Generated_Source\PSoC6\pdl\drivers/peripheral/gpio/cy_gpio.h **** *    disabled to avoid crowbar currents. For more information refer to device 
  62:Generated_Source\PSoC6\pdl\drivers/peripheral/gpio/cy_gpio.h **** *    TRM and the device datasheet.
  63:Generated_Source\PSoC6\pdl\drivers/peripheral/gpio/cy_gpio.h **** *
  64:Generated_Source\PSoC6\pdl\drivers/peripheral/gpio/cy_gpio.h **** * Multiple pins on a port can be updated using direct port register writes with an
  65:Generated_Source\PSoC6\pdl\drivers/peripheral/gpio/cy_gpio.h **** * appropriate port mask. An example is shown below, highlighting the different ways of 
  66:Generated_Source\PSoC6\pdl\drivers/peripheral/gpio/cy_gpio.h **** * configuring Port 1 pins using:
  67:Generated_Source\PSoC6\pdl\drivers/peripheral/gpio/cy_gpio.h **** * 
  68:Generated_Source\PSoC6\pdl\drivers/peripheral/gpio/cy_gpio.h **** * - Port output data register
  69:Generated_Source\PSoC6\pdl\drivers/peripheral/gpio/cy_gpio.h **** * - Port output data set register
  70:Generated_Source\PSoC6\pdl\drivers/peripheral/gpio/cy_gpio.h **** * - Port output data clear register
  71:Generated_Source\PSoC6\pdl\drivers/peripheral/gpio/cy_gpio.h **** *
  72:Generated_Source\PSoC6\pdl\drivers/peripheral/gpio/cy_gpio.h **** * \snippet gpio/gpio_v1_10_sut_01.cydsn/main_cm4.c Cy_GPIO_Snippet
  73:Generated_Source\PSoC6\pdl\drivers/peripheral/gpio/cy_gpio.h **** *
  74:Generated_Source\PSoC6\pdl\drivers/peripheral/gpio/cy_gpio.h **** * \section group_gpio_more_information More Information
  75:Generated_Source\PSoC6\pdl\drivers/peripheral/gpio/cy_gpio.h **** *
  76:Generated_Source\PSoC6\pdl\drivers/peripheral/gpio/cy_gpio.h **** * Refer to the technical reference manual (TRM) and the device datasheet.
  77:Generated_Source\PSoC6\pdl\drivers/peripheral/gpio/cy_gpio.h **** *
  78:Generated_Source\PSoC6\pdl\drivers/peripheral/gpio/cy_gpio.h **** * \section group_gpio_MISRA MISRA-C Compliance
  79:Generated_Source\PSoC6\pdl\drivers/peripheral/gpio/cy_gpio.h **** * The GPIO driver has the following specific deviations:
  80:Generated_Source\PSoC6\pdl\drivers/peripheral/gpio/cy_gpio.h **** *
  81:Generated_Source\PSoC6\pdl\drivers/peripheral/gpio/cy_gpio.h **** * <table class="doxtable">
  82:Generated_Source\PSoC6\pdl\drivers/peripheral/gpio/cy_gpio.h **** *   <tr>
  83:Generated_Source\PSoC6\pdl\drivers/peripheral/gpio/cy_gpio.h **** *     <th>MISRA Rule</th>
  84:Generated_Source\PSoC6\pdl\drivers/peripheral/gpio/cy_gpio.h **** *     <th>Rule Class (Required/Advisory)</th>
  85:Generated_Source\PSoC6\pdl\drivers/peripheral/gpio/cy_gpio.h **** *     <th>Rule Description</th>
  86:Generated_Source\PSoC6\pdl\drivers/peripheral/gpio/cy_gpio.h **** *     <th>Description of Deviation(s)</th>
  87:Generated_Source\PSoC6\pdl\drivers/peripheral/gpio/cy_gpio.h **** *   </tr>
  88:Generated_Source\PSoC6\pdl\drivers/peripheral/gpio/cy_gpio.h **** *   <tr>
  89:Generated_Source\PSoC6\pdl\drivers/peripheral/gpio/cy_gpio.h **** *     <td>11.4</td>
  90:Generated_Source\PSoC6\pdl\drivers/peripheral/gpio/cy_gpio.h **** *     <td>A</td>
  91:Generated_Source\PSoC6\pdl\drivers/peripheral/gpio/cy_gpio.h **** *     <td>A cast should not be performed between a pointer to object type and
  92:Generated_Source\PSoC6\pdl\drivers/peripheral/gpio/cy_gpio.h **** *         a different pointer to object type.</td>
  93:Generated_Source\PSoC6\pdl\drivers/peripheral/gpio/cy_gpio.h **** *     <td> This code is safe because the elements of both GPIO_PRT_V1_Type and GPIO_PRT_V2_Type 
  94:Generated_Source\PSoC6\pdl\drivers/peripheral/gpio/cy_gpio.h **** *          types have identical alignment.</td>
  95:Generated_Source\PSoC6\pdl\drivers/peripheral/gpio/cy_gpio.h **** *   </tr>
  96:Generated_Source\PSoC6\pdl\drivers/peripheral/gpio/cy_gpio.h **** *   <tr>
  97:Generated_Source\PSoC6\pdl\drivers/peripheral/gpio/cy_gpio.h **** *     <td>16.7</td>
  98:Generated_Source\PSoC6\pdl\drivers/peripheral/gpio/cy_gpio.h **** *     <td>A</td>
  99:Generated_Source\PSoC6\pdl\drivers/peripheral/gpio/cy_gpio.h **** *     <td>A pointer parameter in a function prototype should be declared as pointer 
 100:Generated_Source\PSoC6\pdl\drivers/peripheral/gpio/cy_gpio.h **** *         to const if the pointer is not used to modify the addressed object.</td>
 101:Generated_Source\PSoC6\pdl\drivers/peripheral/gpio/cy_gpio.h **** *     <td>The objects pointed to by the base addresses of the GPIO port are not always modified.
ARM GAS  C:\Users\jlabe\AppData\Local\Temp\ccJbzXZ1.s 			page 36


 102:Generated_Source\PSoC6\pdl\drivers/peripheral/gpio/cy_gpio.h **** *         While a const qualifier can be used in select scenarios, it brings little benefit
 103:Generated_Source\PSoC6\pdl\drivers/peripheral/gpio/cy_gpio.h **** *         in adding this to the affected functions. </td>
 104:Generated_Source\PSoC6\pdl\drivers/peripheral/gpio/cy_gpio.h **** *   </tr>
 105:Generated_Source\PSoC6\pdl\drivers/peripheral/gpio/cy_gpio.h **** * </table>
 106:Generated_Source\PSoC6\pdl\drivers/peripheral/gpio/cy_gpio.h **** *
 107:Generated_Source\PSoC6\pdl\drivers/peripheral/gpio/cy_gpio.h **** * \section group_gpio_changelog Changelog
 108:Generated_Source\PSoC6\pdl\drivers/peripheral/gpio/cy_gpio.h **** * <table class="doxtable">
 109:Generated_Source\PSoC6\pdl\drivers/peripheral/gpio/cy_gpio.h **** *   <tr><th>Version</th><th>Changes</th><th>Reason for Change</th></tr>
 110:Generated_Source\PSoC6\pdl\drivers/peripheral/gpio/cy_gpio.h **** *   <tr>
 111:Generated_Source\PSoC6\pdl\drivers/peripheral/gpio/cy_gpio.h **** *     <td rowspan="3">1.20</td>
 112:Generated_Source\PSoC6\pdl\drivers/peripheral/gpio/cy_gpio.h **** *     <td>Flattened the organization of the driver source code into the single source directory and
 113:Generated_Source\PSoC6\pdl\drivers/peripheral/gpio/cy_gpio.h **** *     <td>Driver library directory-structure simplification.</td>
 114:Generated_Source\PSoC6\pdl\drivers/peripheral/gpio/cy_gpio.h **** *   </tr>
 115:Generated_Source\PSoC6\pdl\drivers/peripheral/gpio/cy_gpio.h **** *   <tr>
 116:Generated_Source\PSoC6\pdl\drivers/peripheral/gpio/cy_gpio.h **** *     <td>Added the functions for configuring the AMux bus splitter switch cells:
 117:Generated_Source\PSoC6\pdl\drivers/peripheral/gpio/cy_gpio.h **** *     - \ref Cy_GPIO_SetAmuxSplit
 118:Generated_Source\PSoC6\pdl\drivers/peripheral/gpio/cy_gpio.h **** *     - \ref Cy_GPIO_GetAmuxSplit
 119:Generated_Source\PSoC6\pdl\drivers/peripheral/gpio/cy_gpio.h **** *     </td>
 120:Generated_Source\PSoC6\pdl\drivers/peripheral/gpio/cy_gpio.h **** *     <td>Added a new functionality related to AMux bus.</td>
 121:Generated_Source\PSoC6\pdl\drivers/peripheral/gpio/cy_gpio.h **** *   </tr>
 122:Generated_Source\PSoC6\pdl\drivers/peripheral/gpio/cy_gpio.h **** *   <tr>
 123:Generated_Source\PSoC6\pdl\drivers/peripheral/gpio/cy_gpio.h **** *     <td>Added register access layer. Use register access macros instead
 124:Generated_Source\PSoC6\pdl\drivers/peripheral/gpio/cy_gpio.h **** *         of direct register access using dereferenced pointers.</td>
 125:Generated_Source\PSoC6\pdl\drivers/peripheral/gpio/cy_gpio.h **** *     <td>Makes register access device-independent, so that the PDL does 
 126:Generated_Source\PSoC6\pdl\drivers/peripheral/gpio/cy_gpio.h **** *         not need to be recompiled for each supported part number.</td>
 127:Generated_Source\PSoC6\pdl\drivers/peripheral/gpio/cy_gpio.h **** *   </tr>
 128:Generated_Source\PSoC6\pdl\drivers/peripheral/gpio/cy_gpio.h **** *   <tr>
 129:Generated_Source\PSoC6\pdl\drivers/peripheral/gpio/cy_gpio.h **** *     <td>1.10.1</td>
 130:Generated_Source\PSoC6\pdl\drivers/peripheral/gpio/cy_gpio.h **** *     <td>Updated description for the functions: \ref Cy_GPIO_GetInterruptStatus, 
 131:Generated_Source\PSoC6\pdl\drivers/peripheral/gpio/cy_gpio.h **** *         \ref Cy_GPIO_GetInterruptMask, \ref Cy_GPIO_GetInterruptStatusMasked.
 132:Generated_Source\PSoC6\pdl\drivers/peripheral/gpio/cy_gpio.h **** *
 133:Generated_Source\PSoC6\pdl\drivers/peripheral/gpio/cy_gpio.h **** *         Minor documentation edits.
 134:Generated_Source\PSoC6\pdl\drivers/peripheral/gpio/cy_gpio.h **** *     </td>
 135:Generated_Source\PSoC6\pdl\drivers/peripheral/gpio/cy_gpio.h **** *     <td>Documentation update and clarification</td>
 136:Generated_Source\PSoC6\pdl\drivers/peripheral/gpio/cy_gpio.h **** *   </tr>
 137:Generated_Source\PSoC6\pdl\drivers/peripheral/gpio/cy_gpio.h **** *   <tr>
 138:Generated_Source\PSoC6\pdl\drivers/peripheral/gpio/cy_gpio.h **** *     <td>1.10</td>
 139:Generated_Source\PSoC6\pdl\drivers/peripheral/gpio/cy_gpio.h **** *     <td>Added input parameter validation to the API functions</td>
 140:Generated_Source\PSoC6\pdl\drivers/peripheral/gpio/cy_gpio.h **** *     <td></td>
 141:Generated_Source\PSoC6\pdl\drivers/peripheral/gpio/cy_gpio.h **** *   </tr>
 142:Generated_Source\PSoC6\pdl\drivers/peripheral/gpio/cy_gpio.h **** *   <tr>
 143:Generated_Source\PSoC6\pdl\drivers/peripheral/gpio/cy_gpio.h **** *     <td>1.0</td>
 144:Generated_Source\PSoC6\pdl\drivers/peripheral/gpio/cy_gpio.h **** *     <td>Initial version</td>
 145:Generated_Source\PSoC6\pdl\drivers/peripheral/gpio/cy_gpio.h **** *     <td></td>
 146:Generated_Source\PSoC6\pdl\drivers/peripheral/gpio/cy_gpio.h **** *   </tr>
 147:Generated_Source\PSoC6\pdl\drivers/peripheral/gpio/cy_gpio.h **** * </table>
 148:Generated_Source\PSoC6\pdl\drivers/peripheral/gpio/cy_gpio.h **** *
 149:Generated_Source\PSoC6\pdl\drivers/peripheral/gpio/cy_gpio.h **** * \defgroup group_gpio_macros Macros
 150:Generated_Source\PSoC6\pdl\drivers/peripheral/gpio/cy_gpio.h **** * \defgroup group_gpio_functions Functions
 151:Generated_Source\PSoC6\pdl\drivers/peripheral/gpio/cy_gpio.h **** * \{
 152:Generated_Source\PSoC6\pdl\drivers/peripheral/gpio/cy_gpio.h **** *   \defgroup group_gpio_functions_init       Initialization Functions
 153:Generated_Source\PSoC6\pdl\drivers/peripheral/gpio/cy_gpio.h **** *   \defgroup group_gpio_functions_gpio       GPIO Functions
 154:Generated_Source\PSoC6\pdl\drivers/peripheral/gpio/cy_gpio.h **** *   \defgroup group_gpio_functions_sio        SIO Functions
 155:Generated_Source\PSoC6\pdl\drivers/peripheral/gpio/cy_gpio.h **** *   \defgroup group_gpio_functions_interrupt  Port Interrupt Functions
 156:Generated_Source\PSoC6\pdl\drivers/peripheral/gpio/cy_gpio.h **** * \}
 157:Generated_Source\PSoC6\pdl\drivers/peripheral/gpio/cy_gpio.h **** * \defgroup group_gpio_data_structures Data Structures
 158:Generated_Source\PSoC6\pdl\drivers/peripheral/gpio/cy_gpio.h **** * \defgroup group_gpio_enums Enumerated Types
ARM GAS  C:\Users\jlabe\AppData\Local\Temp\ccJbzXZ1.s 			page 37


 159:Generated_Source\PSoC6\pdl\drivers/peripheral/gpio/cy_gpio.h **** */
 160:Generated_Source\PSoC6\pdl\drivers/peripheral/gpio/cy_gpio.h **** 
 161:Generated_Source\PSoC6\pdl\drivers/peripheral/gpio/cy_gpio.h **** #if !defined(CY_GPIO_H)
 162:Generated_Source\PSoC6\pdl\drivers/peripheral/gpio/cy_gpio.h **** #define CY_GPIO_H
 163:Generated_Source\PSoC6\pdl\drivers/peripheral/gpio/cy_gpio.h **** 
 164:Generated_Source\PSoC6\pdl\drivers/peripheral/gpio/cy_gpio.h **** #include <stddef.h>
 165:Generated_Source\PSoC6\pdl\drivers/peripheral/gpio/cy_gpio.h **** #include "cy_device.h"
 166:Generated_Source\PSoC6\pdl\drivers/peripheral/gpio/cy_gpio.h **** #include "cy_device_headers.h"
 167:Generated_Source\PSoC6\pdl\drivers/peripheral/gpio/cy_gpio.h **** #include "cy_syslib.h"
 168:Generated_Source\PSoC6\pdl\drivers/peripheral/gpio/cy_gpio.h **** 
 169:Generated_Source\PSoC6\pdl\drivers/peripheral/gpio/cy_gpio.h **** #if defined(__cplusplus)
 170:Generated_Source\PSoC6\pdl\drivers/peripheral/gpio/cy_gpio.h **** extern "C" {
 171:Generated_Source\PSoC6\pdl\drivers/peripheral/gpio/cy_gpio.h **** #endif
 172:Generated_Source\PSoC6\pdl\drivers/peripheral/gpio/cy_gpio.h **** 
 173:Generated_Source\PSoC6\pdl\drivers/peripheral/gpio/cy_gpio.h **** /** \addtogroup group_gpio_macros
 174:Generated_Source\PSoC6\pdl\drivers/peripheral/gpio/cy_gpio.h **** * \{
 175:Generated_Source\PSoC6\pdl\drivers/peripheral/gpio/cy_gpio.h **** */
 176:Generated_Source\PSoC6\pdl\drivers/peripheral/gpio/cy_gpio.h **** 
 177:Generated_Source\PSoC6\pdl\drivers/peripheral/gpio/cy_gpio.h **** /** Driver major version */
 178:Generated_Source\PSoC6\pdl\drivers/peripheral/gpio/cy_gpio.h **** #define CY_GPIO_DRV_VERSION_MAJOR       1
 179:Generated_Source\PSoC6\pdl\drivers/peripheral/gpio/cy_gpio.h **** 
 180:Generated_Source\PSoC6\pdl\drivers/peripheral/gpio/cy_gpio.h **** /** Driver minor version */
 181:Generated_Source\PSoC6\pdl\drivers/peripheral/gpio/cy_gpio.h **** #define CY_GPIO_DRV_VERSION_MINOR       20
 182:Generated_Source\PSoC6\pdl\drivers/peripheral/gpio/cy_gpio.h **** 
 183:Generated_Source\PSoC6\pdl\drivers/peripheral/gpio/cy_gpio.h **** /** GPIO driver ID */
 184:Generated_Source\PSoC6\pdl\drivers/peripheral/gpio/cy_gpio.h **** #define CY_GPIO_ID CY_PDL_DRV_ID(0x16U)
 185:Generated_Source\PSoC6\pdl\drivers/peripheral/gpio/cy_gpio.h **** 
 186:Generated_Source\PSoC6\pdl\drivers/peripheral/gpio/cy_gpio.h **** /** \} group_gpio_macros */
 187:Generated_Source\PSoC6\pdl\drivers/peripheral/gpio/cy_gpio.h **** 
 188:Generated_Source\PSoC6\pdl\drivers/peripheral/gpio/cy_gpio.h **** 
 189:Generated_Source\PSoC6\pdl\drivers/peripheral/gpio/cy_gpio.h **** /***************************************
 190:Generated_Source\PSoC6\pdl\drivers/peripheral/gpio/cy_gpio.h **** *       Enumerations
 191:Generated_Source\PSoC6\pdl\drivers/peripheral/gpio/cy_gpio.h **** ***************************************/
 192:Generated_Source\PSoC6\pdl\drivers/peripheral/gpio/cy_gpio.h **** /**
 193:Generated_Source\PSoC6\pdl\drivers/peripheral/gpio/cy_gpio.h **** * \addtogroup group_gpio_enums
 194:Generated_Source\PSoC6\pdl\drivers/peripheral/gpio/cy_gpio.h **** * \{
 195:Generated_Source\PSoC6\pdl\drivers/peripheral/gpio/cy_gpio.h **** */
 196:Generated_Source\PSoC6\pdl\drivers/peripheral/gpio/cy_gpio.h **** 
 197:Generated_Source\PSoC6\pdl\drivers/peripheral/gpio/cy_gpio.h **** /** GPIO Driver error codes */
 198:Generated_Source\PSoC6\pdl\drivers/peripheral/gpio/cy_gpio.h **** typedef enum 
 199:Generated_Source\PSoC6\pdl\drivers/peripheral/gpio/cy_gpio.h **** {
 200:Generated_Source\PSoC6\pdl\drivers/peripheral/gpio/cy_gpio.h ****     CY_GPIO_SUCCESS   = 0x00U,                                    /**< Returned successful */
 201:Generated_Source\PSoC6\pdl\drivers/peripheral/gpio/cy_gpio.h ****     CY_GPIO_BAD_PARAM = CY_GPIO_ID | CY_PDL_STATUS_ERROR | 0x01U, /**< Bad parameter was passed */
 202:Generated_Source\PSoC6\pdl\drivers/peripheral/gpio/cy_gpio.h **** } cy_en_gpio_status_t;
 203:Generated_Source\PSoC6\pdl\drivers/peripheral/gpio/cy_gpio.h **** 
 204:Generated_Source\PSoC6\pdl\drivers/peripheral/gpio/cy_gpio.h **** /** AMux switch open/close config */
 205:Generated_Source\PSoC6\pdl\drivers/peripheral/gpio/cy_gpio.h **** typedef enum
 206:Generated_Source\PSoC6\pdl\drivers/peripheral/gpio/cy_gpio.h **** {
 207:Generated_Source\PSoC6\pdl\drivers/peripheral/gpio/cy_gpio.h ****     CY_GPIO_AMUX_OPENALL,   /**< Open ground switch. Open right switch. Open left switch */
 208:Generated_Source\PSoC6\pdl\drivers/peripheral/gpio/cy_gpio.h ****     CY_GPIO_AMUX_L,         /**< Open ground switch. Open right switch. Close left switch */
 209:Generated_Source\PSoC6\pdl\drivers/peripheral/gpio/cy_gpio.h ****     CY_GPIO_AMUX_R,         /**< Open ground switch. Close right switch. Open left switch */
 210:Generated_Source\PSoC6\pdl\drivers/peripheral/gpio/cy_gpio.h ****     CY_GPIO_AMUX_LR,        /**< Open ground switch. Close right switch. Close left switch */
 211:Generated_Source\PSoC6\pdl\drivers/peripheral/gpio/cy_gpio.h ****     CY_GPIO_AMUX_G,         /**< Close ground switch. Open right switch. Open left switch */
 212:Generated_Source\PSoC6\pdl\drivers/peripheral/gpio/cy_gpio.h ****     CY_GPIO_AMUX_GL,        /**< Close ground switch. Open right switch. Close left switch */
 213:Generated_Source\PSoC6\pdl\drivers/peripheral/gpio/cy_gpio.h ****     CY_GPIO_AMUX_GR,        /**< Close ground switch. Close right switch. Open left switch */
 214:Generated_Source\PSoC6\pdl\drivers/peripheral/gpio/cy_gpio.h ****     CY_GPIO_AMUX_GLR,       /**< Close ground switch. Close right switch. Close left switch */
 215:Generated_Source\PSoC6\pdl\drivers/peripheral/gpio/cy_gpio.h **** }cy_en_gpio_amuxconnect_t;
ARM GAS  C:\Users\jlabe\AppData\Local\Temp\ccJbzXZ1.s 			page 38


 216:Generated_Source\PSoC6\pdl\drivers/peripheral/gpio/cy_gpio.h **** 
 217:Generated_Source\PSoC6\pdl\drivers/peripheral/gpio/cy_gpio.h **** /**
 218:Generated_Source\PSoC6\pdl\drivers/peripheral/gpio/cy_gpio.h **** * AMux Bus selection
 219:Generated_Source\PSoC6\pdl\drivers/peripheral/gpio/cy_gpio.h **** */
 220:Generated_Source\PSoC6\pdl\drivers/peripheral/gpio/cy_gpio.h **** typedef enum
 221:Generated_Source\PSoC6\pdl\drivers/peripheral/gpio/cy_gpio.h **** {
 222:Generated_Source\PSoC6\pdl\drivers/peripheral/gpio/cy_gpio.h ****     CY_GPIO_AMUXBUSA,       /**< AMuxBus A */
 223:Generated_Source\PSoC6\pdl\drivers/peripheral/gpio/cy_gpio.h ****     CY_GPIO_AMUXBUSB        /**< AMuxBus B */
 224:Generated_Source\PSoC6\pdl\drivers/peripheral/gpio/cy_gpio.h **** }cy_en_gpio_amuxselect_t;
 225:Generated_Source\PSoC6\pdl\drivers/peripheral/gpio/cy_gpio.h **** 
 226:Generated_Source\PSoC6\pdl\drivers/peripheral/gpio/cy_gpio.h **** /** \} group_gpio_enums */
 227:Generated_Source\PSoC6\pdl\drivers/peripheral/gpio/cy_gpio.h **** 
 228:Generated_Source\PSoC6\pdl\drivers/peripheral/gpio/cy_gpio.h **** 
 229:Generated_Source\PSoC6\pdl\drivers/peripheral/gpio/cy_gpio.h **** /***************************************
 230:Generated_Source\PSoC6\pdl\drivers/peripheral/gpio/cy_gpio.h **** *       Configuration Structures
 231:Generated_Source\PSoC6\pdl\drivers/peripheral/gpio/cy_gpio.h **** ***************************************/
 232:Generated_Source\PSoC6\pdl\drivers/peripheral/gpio/cy_gpio.h **** 
 233:Generated_Source\PSoC6\pdl\drivers/peripheral/gpio/cy_gpio.h **** /**
 234:Generated_Source\PSoC6\pdl\drivers/peripheral/gpio/cy_gpio.h **** * \addtogroup group_gpio_data_structures
 235:Generated_Source\PSoC6\pdl\drivers/peripheral/gpio/cy_gpio.h **** * \{
 236:Generated_Source\PSoC6\pdl\drivers/peripheral/gpio/cy_gpio.h **** */
 237:Generated_Source\PSoC6\pdl\drivers/peripheral/gpio/cy_gpio.h **** 
 238:Generated_Source\PSoC6\pdl\drivers/peripheral/gpio/cy_gpio.h **** /** This structure is used to initialize a port of GPIO pins */
 239:Generated_Source\PSoC6\pdl\drivers/peripheral/gpio/cy_gpio.h **** typedef struct 
 240:Generated_Source\PSoC6\pdl\drivers/peripheral/gpio/cy_gpio.h **** {
 241:Generated_Source\PSoC6\pdl\drivers/peripheral/gpio/cy_gpio.h ****     uint32_t out;           /**< Initial output data for the IO pins in the port */
 242:Generated_Source\PSoC6\pdl\drivers/peripheral/gpio/cy_gpio.h ****     uint32_t intrMask;      /**< Interrupt enable mask for the port interrupt */
 243:Generated_Source\PSoC6\pdl\drivers/peripheral/gpio/cy_gpio.h ****     uint32_t intrCfg;       /**< Port pin interrupt edge detection configuration */
 244:Generated_Source\PSoC6\pdl\drivers/peripheral/gpio/cy_gpio.h ****     uint32_t cfg;           /**< Port pin drive modes and input buffer enable configuration */
 245:Generated_Source\PSoC6\pdl\drivers/peripheral/gpio/cy_gpio.h ****     uint32_t cfgIn;         /**< Port pin input buffer configuration */
 246:Generated_Source\PSoC6\pdl\drivers/peripheral/gpio/cy_gpio.h ****     uint32_t cfgOut;        /**< Port pin output buffer configuration */
 247:Generated_Source\PSoC6\pdl\drivers/peripheral/gpio/cy_gpio.h ****     uint32_t cfgSIO;        /**< Port SIO pins configuration */
 248:Generated_Source\PSoC6\pdl\drivers/peripheral/gpio/cy_gpio.h ****     uint32_t sel0Active;    /**< HSIOM selection for port pins 0,1,2,3 */
 249:Generated_Source\PSoC6\pdl\drivers/peripheral/gpio/cy_gpio.h ****     uint32_t sel1Active;    /**< HSIOM selection for port pins 4,5,6,7 */
 250:Generated_Source\PSoC6\pdl\drivers/peripheral/gpio/cy_gpio.h **** } cy_stc_gpio_prt_config_t;
 251:Generated_Source\PSoC6\pdl\drivers/peripheral/gpio/cy_gpio.h **** 
 252:Generated_Source\PSoC6\pdl\drivers/peripheral/gpio/cy_gpio.h **** /** This structure is used to initialize a single GPIO pin */
 253:Generated_Source\PSoC6\pdl\drivers/peripheral/gpio/cy_gpio.h **** typedef struct
 254:Generated_Source\PSoC6\pdl\drivers/peripheral/gpio/cy_gpio.h **** {
 255:Generated_Source\PSoC6\pdl\drivers/peripheral/gpio/cy_gpio.h ****     uint32_t outVal;         /**< Pin output state */
 256:Generated_Source\PSoC6\pdl\drivers/peripheral/gpio/cy_gpio.h ****     uint32_t driveMode;      /**< Drive mode */
 257:Generated_Source\PSoC6\pdl\drivers/peripheral/gpio/cy_gpio.h ****     en_hsiom_sel_t hsiom;    /**< HSIOM selection */
 258:Generated_Source\PSoC6\pdl\drivers/peripheral/gpio/cy_gpio.h ****     uint32_t intEdge;        /**< Interrupt Edge type */
 259:Generated_Source\PSoC6\pdl\drivers/peripheral/gpio/cy_gpio.h ****     uint32_t intMask;        /**< Interrupt enable mask */
 260:Generated_Source\PSoC6\pdl\drivers/peripheral/gpio/cy_gpio.h ****     uint32_t vtrip;          /**< Input buffer voltage trip type */
 261:Generated_Source\PSoC6\pdl\drivers/peripheral/gpio/cy_gpio.h ****     uint32_t slewRate;       /**< Output buffer slew rate */
 262:Generated_Source\PSoC6\pdl\drivers/peripheral/gpio/cy_gpio.h ****     uint32_t driveSel;       /**< Drive strength */
 263:Generated_Source\PSoC6\pdl\drivers/peripheral/gpio/cy_gpio.h ****     uint32_t vregEn;         /**< SIO pair output buffer mode */
 264:Generated_Source\PSoC6\pdl\drivers/peripheral/gpio/cy_gpio.h ****     uint32_t ibufMode;       /**< SIO pair input buffer mode */
 265:Generated_Source\PSoC6\pdl\drivers/peripheral/gpio/cy_gpio.h ****     uint32_t vtripSel;       /**< SIO pair input buffer trip point */
 266:Generated_Source\PSoC6\pdl\drivers/peripheral/gpio/cy_gpio.h ****     uint32_t vrefSel;        /**< SIO pair reference voltage for input buffer trip point */
 267:Generated_Source\PSoC6\pdl\drivers/peripheral/gpio/cy_gpio.h ****     uint32_t vohSel;         /**< SIO pair regulated voltage output level */
 268:Generated_Source\PSoC6\pdl\drivers/peripheral/gpio/cy_gpio.h **** } cy_stc_gpio_pin_config_t;
 269:Generated_Source\PSoC6\pdl\drivers/peripheral/gpio/cy_gpio.h **** 
 270:Generated_Source\PSoC6\pdl\drivers/peripheral/gpio/cy_gpio.h **** /** \} group_gpio_data_structures */
 271:Generated_Source\PSoC6\pdl\drivers/peripheral/gpio/cy_gpio.h **** 
 272:Generated_Source\PSoC6\pdl\drivers/peripheral/gpio/cy_gpio.h **** /***************************************
ARM GAS  C:\Users\jlabe\AppData\Local\Temp\ccJbzXZ1.s 			page 39


 273:Generated_Source\PSoC6\pdl\drivers/peripheral/gpio/cy_gpio.h **** *        Constants
 274:Generated_Source\PSoC6\pdl\drivers/peripheral/gpio/cy_gpio.h **** ***************************************/
 275:Generated_Source\PSoC6\pdl\drivers/peripheral/gpio/cy_gpio.h **** 
 276:Generated_Source\PSoC6\pdl\drivers/peripheral/gpio/cy_gpio.h **** /** \cond INTERNAL */
 277:Generated_Source\PSoC6\pdl\drivers/peripheral/gpio/cy_gpio.h **** 
 278:Generated_Source\PSoC6\pdl\drivers/peripheral/gpio/cy_gpio.h **** /* General Constants */
 279:Generated_Source\PSoC6\pdl\drivers/peripheral/gpio/cy_gpio.h **** #define CY_GPIO_PRT_HALF                       (4UL)      /**< Half-way point of a GPIO port */
 280:Generated_Source\PSoC6\pdl\drivers/peripheral/gpio/cy_gpio.h **** #define CY_GPIO_PRT_DEINIT                     (0UL)      /**< De-init value for port registers */
 281:Generated_Source\PSoC6\pdl\drivers/peripheral/gpio/cy_gpio.h **** 
 282:Generated_Source\PSoC6\pdl\drivers/peripheral/gpio/cy_gpio.h **** /* GPIO Masks */
 283:Generated_Source\PSoC6\pdl\drivers/peripheral/gpio/cy_gpio.h **** #define CY_GPIO_HSIOM_MASK                     (0x1FUL)   /**< HSIOM selection mask */
 284:Generated_Source\PSoC6\pdl\drivers/peripheral/gpio/cy_gpio.h **** #define CY_GPIO_OUT_MASK                       (0x01UL)   /**< Single pin mask for OUT register */
 285:Generated_Source\PSoC6\pdl\drivers/peripheral/gpio/cy_gpio.h **** #define CY_GPIO_IN_MASK                        (0x01UL)   /**< Single pin mask for IN register */
 286:Generated_Source\PSoC6\pdl\drivers/peripheral/gpio/cy_gpio.h **** #define CY_GPIO_CFG_DM_MASK                    (0x0FUL)   /**< Single pin mask for drive mode in CF
 287:Generated_Source\PSoC6\pdl\drivers/peripheral/gpio/cy_gpio.h **** #define CY_GPIO_CFG_IN_VTRIP_SEL_MASK          (0x01UL)   /**< Single pin mask for VTRIP selection 
 288:Generated_Source\PSoC6\pdl\drivers/peripheral/gpio/cy_gpio.h **** #define CY_GPIO_CFG_OUT_SLOW_MASK              (0x01UL)   /**< Single pin mask for slew rate in CFG
 289:Generated_Source\PSoC6\pdl\drivers/peripheral/gpio/cy_gpio.h **** #define CY_GPIO_CFG_OUT_DRIVE_SEL_MASK         (0x03UL)   /**< Single pin mask for drive strength i
 290:Generated_Source\PSoC6\pdl\drivers/peripheral/gpio/cy_gpio.h **** #define CY_GPIO_INTR_STATUS_MASK               (0x01UL)   /**< Single pin mask for interrupt status
 291:Generated_Source\PSoC6\pdl\drivers/peripheral/gpio/cy_gpio.h **** #define CY_GPIO_INTR_EN_MASK                   (0x01UL)   /**< Single pin mask for interrupt status
 292:Generated_Source\PSoC6\pdl\drivers/peripheral/gpio/cy_gpio.h **** #define CY_GPIO_INTR_MASKED_MASK               (0x01UL)   /**< Single pin mask for masked interrupt
 293:Generated_Source\PSoC6\pdl\drivers/peripheral/gpio/cy_gpio.h **** #define CY_GPIO_INTR_SET_MASK                  (0x01UL)   /**< Single pin mask for setting the inte
 294:Generated_Source\PSoC6\pdl\drivers/peripheral/gpio/cy_gpio.h **** #define CY_GPIO_INTR_EDGE_MASK                 (0x03UL)   /**< Single pin mask for interrupt edge t
 295:Generated_Source\PSoC6\pdl\drivers/peripheral/gpio/cy_gpio.h **** #define CY_GPIO_INTR_FLT_EDGE_MASK             (0x07UL)   /**< Single pin mask for setting filtered
 296:Generated_Source\PSoC6\pdl\drivers/peripheral/gpio/cy_gpio.h **** 
 297:Generated_Source\PSoC6\pdl\drivers/peripheral/gpio/cy_gpio.h **** /* SIO Masks */
 298:Generated_Source\PSoC6\pdl\drivers/peripheral/gpio/cy_gpio.h **** #define CY_GPIO_VREG_EN_MASK                   (0x01UL)   /**< Single SIO pin mask for voltage regu
 299:Generated_Source\PSoC6\pdl\drivers/peripheral/gpio/cy_gpio.h **** #define CY_GPIO_IBUF_MASK                      (0x01UL)   /**< Single SIO pin mask for input buffer
 300:Generated_Source\PSoC6\pdl\drivers/peripheral/gpio/cy_gpio.h **** #define CY_GPIO_IBUF_SHIFT                     (0x01UL)   /**< Single SIO pin shift for input buffe
 301:Generated_Source\PSoC6\pdl\drivers/peripheral/gpio/cy_gpio.h **** #define CY_GPIO_VTRIP_SEL_MASK                 (0x01UL)   /**< Single SIO pin mask for the input bu
 302:Generated_Source\PSoC6\pdl\drivers/peripheral/gpio/cy_gpio.h **** #define CY_GPIO_VTRIP_SEL_SHIFT                (0x02UL)   /**< Single SIO pin shift for the input b
 303:Generated_Source\PSoC6\pdl\drivers/peripheral/gpio/cy_gpio.h **** #define CY_GPIO_VREF_SEL_MASK                  (0x03UL)   /**< Single SIO pin mask for voltage refe
 304:Generated_Source\PSoC6\pdl\drivers/peripheral/gpio/cy_gpio.h **** #define CY_GPIO_VREF_SEL_SHIFT                 (0x03UL)   /**< Single SIO pin shift for voltage ref
 305:Generated_Source\PSoC6\pdl\drivers/peripheral/gpio/cy_gpio.h **** #define CY_GPIO_VOH_SEL_MASK                   (0x07UL)   /**< Single SIO pin mask for VOH */
 306:Generated_Source\PSoC6\pdl\drivers/peripheral/gpio/cy_gpio.h **** #define CY_GPIO_VOH_SEL_SHIFT                  (0x05UL)   /**< Single SIO pin shift for VOH */
 307:Generated_Source\PSoC6\pdl\drivers/peripheral/gpio/cy_gpio.h **** 
 308:Generated_Source\PSoC6\pdl\drivers/peripheral/gpio/cy_gpio.h **** /* Special mask for SIO pin pair setting */
 309:Generated_Source\PSoC6\pdl\drivers/peripheral/gpio/cy_gpio.h **** #define CY_GPIO_SIO_ODD_PIN_MASK               (0x00FEUL) /**< SIO pin pair selection mask */
 310:Generated_Source\PSoC6\pdl\drivers/peripheral/gpio/cy_gpio.h **** #define CY_GPIO_SIO_PIN_MASK                   (0x00FFUL) /**< SIO pin pair mask */
 311:Generated_Source\PSoC6\pdl\drivers/peripheral/gpio/cy_gpio.h **** 
 312:Generated_Source\PSoC6\pdl\drivers/peripheral/gpio/cy_gpio.h **** /* Offsets */
 313:Generated_Source\PSoC6\pdl\drivers/peripheral/gpio/cy_gpio.h **** #define CY_GPIO_HSIOM_OFFSET                   (3UL)      /**< Offset for HSIOM */
 314:Generated_Source\PSoC6\pdl\drivers/peripheral/gpio/cy_gpio.h **** #define CY_GPIO_DRIVE_MODE_OFFSET              (2UL)      /**< Offset for Drive mode */
 315:Generated_Source\PSoC6\pdl\drivers/peripheral/gpio/cy_gpio.h **** #define CY_GPIO_INBUF_OFFSET                   (3UL)      /**< Offset for input buffer */
 316:Generated_Source\PSoC6\pdl\drivers/peripheral/gpio/cy_gpio.h **** #define CY_GPIO_CFG_OUT_DRIVE_OFFSET           (16UL)     /**< Offset for drive strength */
 317:Generated_Source\PSoC6\pdl\drivers/peripheral/gpio/cy_gpio.h **** #define CY_GPIO_INTR_CFG_OFFSET                (1UL)      /**< Offset for interrupt config */
 318:Generated_Source\PSoC6\pdl\drivers/peripheral/gpio/cy_gpio.h **** #define CY_GPIO_INTR_FILT_OFFSET               (18UL)     /**< Offset for filtered interrupt config
 319:Generated_Source\PSoC6\pdl\drivers/peripheral/gpio/cy_gpio.h **** #define CY_GPIO_CFG_SIO_OFFSET                 (2UL)      /**< Offset for SIO config */
 320:Generated_Source\PSoC6\pdl\drivers/peripheral/gpio/cy_gpio.h **** 
 321:Generated_Source\PSoC6\pdl\drivers/peripheral/gpio/cy_gpio.h **** /* Parameter validation constants */
 322:Generated_Source\PSoC6\pdl\drivers/peripheral/gpio/cy_gpio.h **** #define CY_GPIO_PINS_MAX                       (8UL)      /**< Number of pins in the port */
 323:Generated_Source\PSoC6\pdl\drivers/peripheral/gpio/cy_gpio.h **** #define CY_GPIO_PRT_PINS_MASK                  (0x0000000FFUL)
 324:Generated_Source\PSoC6\pdl\drivers/peripheral/gpio/cy_gpio.h **** #define CY_GPIO_PRT_INTR_CFG_EDGE_SEL_MASK     (GPIO_PRT_INTR_CFG_EDGE0_SEL_Msk | \
 325:Generated_Source\PSoC6\pdl\drivers/peripheral/gpio/cy_gpio.h ****                                                 GPIO_PRT_INTR_CFG_EDGE1_SEL_Msk | \
 326:Generated_Source\PSoC6\pdl\drivers/peripheral/gpio/cy_gpio.h ****                                                 GPIO_PRT_INTR_CFG_EDGE2_SEL_Msk | \
 327:Generated_Source\PSoC6\pdl\drivers/peripheral/gpio/cy_gpio.h ****                                                 GPIO_PRT_INTR_CFG_EDGE3_SEL_Msk | \
 328:Generated_Source\PSoC6\pdl\drivers/peripheral/gpio/cy_gpio.h ****                                                 GPIO_PRT_INTR_CFG_EDGE4_SEL_Msk | \
 329:Generated_Source\PSoC6\pdl\drivers/peripheral/gpio/cy_gpio.h ****                                                 GPIO_PRT_INTR_CFG_EDGE5_SEL_Msk | \
ARM GAS  C:\Users\jlabe\AppData\Local\Temp\ccJbzXZ1.s 			page 40


 330:Generated_Source\PSoC6\pdl\drivers/peripheral/gpio/cy_gpio.h ****                                                 GPIO_PRT_INTR_CFG_EDGE6_SEL_Msk | \
 331:Generated_Source\PSoC6\pdl\drivers/peripheral/gpio/cy_gpio.h ****                                                 GPIO_PRT_INTR_CFG_EDGE7_SEL_Msk)
 332:Generated_Source\PSoC6\pdl\drivers/peripheral/gpio/cy_gpio.h **** #define CY_GPIO_PRT_INTR_CFG_RANGE_MASK        (CY_GPIO_PRT_INTR_CFG_EDGE_SEL_MASK | \
 333:Generated_Source\PSoC6\pdl\drivers/peripheral/gpio/cy_gpio.h ****                                                 GPIO_PRT_INTR_CFG_FLT_EDGE_SEL_Msk | \
 334:Generated_Source\PSoC6\pdl\drivers/peripheral/gpio/cy_gpio.h ****                                                 GPIO_PRT_INTR_CFG_FLT_SEL_Msk)
 335:Generated_Source\PSoC6\pdl\drivers/peripheral/gpio/cy_gpio.h **** #define CY_GPIO_PRT_INT_MASK_MASK              (0x0000001FFUL)
 336:Generated_Source\PSoC6\pdl\drivers/peripheral/gpio/cy_gpio.h **** #define CY_GPIO_PRT_SEL_ACTIVE_MASK            (0x1FFFFFFFUL)
 337:Generated_Source\PSoC6\pdl\drivers/peripheral/gpio/cy_gpio.h **** 
 338:Generated_Source\PSoC6\pdl\drivers/peripheral/gpio/cy_gpio.h **** #define GPIO_MAX_SPLIT_CELL_SEGMENTS           (9U)
 339:Generated_Source\PSoC6\pdl\drivers/peripheral/gpio/cy_gpio.h **** 
 340:Generated_Source\PSoC6\pdl\drivers/peripheral/gpio/cy_gpio.h **** /* Parameter validation macros */
 341:Generated_Source\PSoC6\pdl\drivers/peripheral/gpio/cy_gpio.h **** #define CY_GPIO_IS_PIN_VALID(pinNum)           (CY_GPIO_PINS_MAX > (pinNum))
 342:Generated_Source\PSoC6\pdl\drivers/peripheral/gpio/cy_gpio.h **** #define CY_GPIO_IS_FILTER_PIN_VALID(pinNum)    (CY_GPIO_PINS_MAX >= (pinNum))
 343:Generated_Source\PSoC6\pdl\drivers/peripheral/gpio/cy_gpio.h **** #define CY_GPIO_IS_VALUE_VALID(outVal)         (1UL >= (outVal))
 344:Generated_Source\PSoC6\pdl\drivers/peripheral/gpio/cy_gpio.h **** #define CY_GPIO_IS_DM_VALID(driveMode)         (0U == ((driveMode) & (uint32_t)~CY_GPIO_CFG_DM_MASK
 345:Generated_Source\PSoC6\pdl\drivers/peripheral/gpio/cy_gpio.h **** 
 346:Generated_Source\PSoC6\pdl\drivers/peripheral/gpio/cy_gpio.h **** #define CY_GPIO_IS_HSIOM_VALID(hsiom)          (0U == ((hsiom) & (uint32_t)~CY_GPIO_HSIOM_MASK))
 347:Generated_Source\PSoC6\pdl\drivers/peripheral/gpio/cy_gpio.h **** 
 348:Generated_Source\PSoC6\pdl\drivers/peripheral/gpio/cy_gpio.h **** #define CY_GPIO_IS_INT_EDGE_VALID(intEdge)     ((CY_GPIO_INTR_DISABLE  == (intEdge)) || \
 349:Generated_Source\PSoC6\pdl\drivers/peripheral/gpio/cy_gpio.h ****                                                 (CY_GPIO_INTR_RISING   == (intEdge)) || \
 350:Generated_Source\PSoC6\pdl\drivers/peripheral/gpio/cy_gpio.h ****                                                 (CY_GPIO_INTR_FALLING  == (intEdge)) || \
 351:Generated_Source\PSoC6\pdl\drivers/peripheral/gpio/cy_gpio.h ****                                                 (CY_GPIO_INTR_BOTH     == (intEdge)))
 352:Generated_Source\PSoC6\pdl\drivers/peripheral/gpio/cy_gpio.h **** 
 353:Generated_Source\PSoC6\pdl\drivers/peripheral/gpio/cy_gpio.h **** #define CY_GPIO_IS_DRIVE_SEL_VALID(driveSel)   ((CY_GPIO_DRIVE_FULL    == (driveSel)) || \
 354:Generated_Source\PSoC6\pdl\drivers/peripheral/gpio/cy_gpio.h ****                                                 (CY_GPIO_DRIVE_1_2     == (driveSel)) || \
 355:Generated_Source\PSoC6\pdl\drivers/peripheral/gpio/cy_gpio.h ****                                                 (CY_GPIO_DRIVE_1_4     == (driveSel)) || \
 356:Generated_Source\PSoC6\pdl\drivers/peripheral/gpio/cy_gpio.h ****                                                 (CY_GPIO_DRIVE_1_8     == (driveSel)))
 357:Generated_Source\PSoC6\pdl\drivers/peripheral/gpio/cy_gpio.h **** 
 358:Generated_Source\PSoC6\pdl\drivers/peripheral/gpio/cy_gpio.h **** #define CY_GPIO_IS_VREF_SEL_VALID(vrefSel)     ((CY_SIO_VREF_PINREF    == (vrefSel)) || \
 359:Generated_Source\PSoC6\pdl\drivers/peripheral/gpio/cy_gpio.h ****                                                 (CY_SIO_VREF_1_2V      == (vrefSel)) || \
 360:Generated_Source\PSoC6\pdl\drivers/peripheral/gpio/cy_gpio.h ****                                                 (CY_SIO_VREF_AMUX_A    == (vrefSel)) || \
 361:Generated_Source\PSoC6\pdl\drivers/peripheral/gpio/cy_gpio.h ****                                                 (CY_SIO_VREF_AMUX_B    == (vrefSel)))
 362:Generated_Source\PSoC6\pdl\drivers/peripheral/gpio/cy_gpio.h **** 
 363:Generated_Source\PSoC6\pdl\drivers/peripheral/gpio/cy_gpio.h **** #define CY_GPIO_IS_VOH_SEL_VALID(vrefSel)      ((CY_SIO_VOH_1_00       == (vrefSel)) || \
 364:Generated_Source\PSoC6\pdl\drivers/peripheral/gpio/cy_gpio.h ****                                                 (CY_SIO_VOH_1_25       == (vrefSel)) || \
 365:Generated_Source\PSoC6\pdl\drivers/peripheral/gpio/cy_gpio.h ****                                                 (CY_SIO_VOH_1_49       == (vrefSel)) || \
 366:Generated_Source\PSoC6\pdl\drivers/peripheral/gpio/cy_gpio.h ****                                                 (CY_SIO_VOH_1_67       == (vrefSel)) || \
 367:Generated_Source\PSoC6\pdl\drivers/peripheral/gpio/cy_gpio.h ****                                                 (CY_SIO_VOH_2_08       == (vrefSel)) || \
 368:Generated_Source\PSoC6\pdl\drivers/peripheral/gpio/cy_gpio.h ****                                                 (CY_SIO_VOH_2_50       == (vrefSel)) || \
 369:Generated_Source\PSoC6\pdl\drivers/peripheral/gpio/cy_gpio.h ****                                                 (CY_SIO_VOH_2_78       == (vrefSel)) || \
 370:Generated_Source\PSoC6\pdl\drivers/peripheral/gpio/cy_gpio.h ****                                                 (CY_SIO_VOH_4_16       == (vrefSel)))
 371:Generated_Source\PSoC6\pdl\drivers/peripheral/gpio/cy_gpio.h ****                    
 372:Generated_Source\PSoC6\pdl\drivers/peripheral/gpio/cy_gpio.h **** #define CY_GPIO_IS_PIN_BIT_VALID(pinBit)       (0U == ((pinBit) & (uint32_t)~CY_GPIO_PRT_PINS_MASK)
 373:Generated_Source\PSoC6\pdl\drivers/peripheral/gpio/cy_gpio.h **** #define CY_GPIO_IS_INTR_CFG_VALID(intrCfg)     (0U == ((intrCfg) & (uint32_t)~CY_GPIO_PRT_INTR_CFG_
 374:Generated_Source\PSoC6\pdl\drivers/peripheral/gpio/cy_gpio.h **** #define CY_GPIO_IS_INTR_MASK_VALID(intrMask)   (0U == ((intrMask) & (uint32_t)~CY_GPIO_PRT_INT_MASK
 375:Generated_Source\PSoC6\pdl\drivers/peripheral/gpio/cy_gpio.h **** #define CY_GPIO_IS_SEL_ACT_VALID(selActive)    (0U == ((selActive) & (uint32_t)~CY_GPIO_PRT_SEL_ACT
 376:Generated_Source\PSoC6\pdl\drivers/peripheral/gpio/cy_gpio.h **** 
 377:Generated_Source\PSoC6\pdl\drivers/peripheral/gpio/cy_gpio.h **** #define CY_GPIO_IS_AMUX_SPLIT_VALID(switchCtrl)       (((uint32_t) (switchCtrl)) < GPIO_MAX_SPLIT_C
 378:Generated_Source\PSoC6\pdl\drivers/peripheral/gpio/cy_gpio.h **** 
 379:Generated_Source\PSoC6\pdl\drivers/peripheral/gpio/cy_gpio.h **** #define CY_GPIO_IS_AMUX_CONNECT_VALID(amuxConnect)    ((CY_GPIO_AMUX_OPENALL == (amuxConnect)) || \
 380:Generated_Source\PSoC6\pdl\drivers/peripheral/gpio/cy_gpio.h ****                                                        (CY_GPIO_AMUX_L       == (amuxConnect)) || \
 381:Generated_Source\PSoC6\pdl\drivers/peripheral/gpio/cy_gpio.h ****                                                        (CY_GPIO_AMUX_R       == (amuxConnect)) || \
 382:Generated_Source\PSoC6\pdl\drivers/peripheral/gpio/cy_gpio.h ****                                                        (CY_GPIO_AMUX_LR      == (amuxConnect)) || \
 383:Generated_Source\PSoC6\pdl\drivers/peripheral/gpio/cy_gpio.h ****                                                        (CY_GPIO_AMUX_G       == (amuxConnect)) || \
 384:Generated_Source\PSoC6\pdl\drivers/peripheral/gpio/cy_gpio.h ****                                                        (CY_GPIO_AMUX_GL      == (amuxConnect)) || \
 385:Generated_Source\PSoC6\pdl\drivers/peripheral/gpio/cy_gpio.h ****                                                        (CY_GPIO_AMUX_GR      == (amuxConnect)) || \
 386:Generated_Source\PSoC6\pdl\drivers/peripheral/gpio/cy_gpio.h ****                                                        (CY_GPIO_AMUX_GLR     == (amuxConnect)))
ARM GAS  C:\Users\jlabe\AppData\Local\Temp\ccJbzXZ1.s 			page 41


 387:Generated_Source\PSoC6\pdl\drivers/peripheral/gpio/cy_gpio.h **** 
 388:Generated_Source\PSoC6\pdl\drivers/peripheral/gpio/cy_gpio.h **** #define CY_GPIO_IS_AMUX_SELECT_VALID(amuxBus)       ((CY_GPIO_AMUXBUSA       == (amuxBus)) || \
 389:Generated_Source\PSoC6\pdl\drivers/peripheral/gpio/cy_gpio.h ****                                                      (CY_GPIO_AMUXBUSB       == (amuxBus)))
 390:Generated_Source\PSoC6\pdl\drivers/peripheral/gpio/cy_gpio.h **** /** \endcond */
 391:Generated_Source\PSoC6\pdl\drivers/peripheral/gpio/cy_gpio.h **** 
 392:Generated_Source\PSoC6\pdl\drivers/peripheral/gpio/cy_gpio.h **** 
 393:Generated_Source\PSoC6\pdl\drivers/peripheral/gpio/cy_gpio.h **** /***************************************
 394:Generated_Source\PSoC6\pdl\drivers/peripheral/gpio/cy_gpio.h **** *        Function Constants
 395:Generated_Source\PSoC6\pdl\drivers/peripheral/gpio/cy_gpio.h **** ***************************************/
 396:Generated_Source\PSoC6\pdl\drivers/peripheral/gpio/cy_gpio.h **** 
 397:Generated_Source\PSoC6\pdl\drivers/peripheral/gpio/cy_gpio.h **** /**
 398:Generated_Source\PSoC6\pdl\drivers/peripheral/gpio/cy_gpio.h **** * \addtogroup group_gpio_macros
 399:Generated_Source\PSoC6\pdl\drivers/peripheral/gpio/cy_gpio.h **** * \{
 400:Generated_Source\PSoC6\pdl\drivers/peripheral/gpio/cy_gpio.h **** */
 401:Generated_Source\PSoC6\pdl\drivers/peripheral/gpio/cy_gpio.h **** 
 402:Generated_Source\PSoC6\pdl\drivers/peripheral/gpio/cy_gpio.h **** /**
 403:Generated_Source\PSoC6\pdl\drivers/peripheral/gpio/cy_gpio.h **** * \defgroup group_gpio_driveModes Pin drive mode
 404:Generated_Source\PSoC6\pdl\drivers/peripheral/gpio/cy_gpio.h **** * \{
 405:Generated_Source\PSoC6\pdl\drivers/peripheral/gpio/cy_gpio.h **** * Constants to be used for setting the drive mode of the pin.
 406:Generated_Source\PSoC6\pdl\drivers/peripheral/gpio/cy_gpio.h **** */
 407:Generated_Source\PSoC6\pdl\drivers/peripheral/gpio/cy_gpio.h **** #define CY_GPIO_DM_ANALOG                      (0x00UL) /**< Analog High-Z. Input buffer off */
 408:Generated_Source\PSoC6\pdl\drivers/peripheral/gpio/cy_gpio.h **** #define CY_GPIO_DM_PULLUP_IN_OFF               (0x02UL) /**< Resistive Pull-Up. Input buffer off */
 409:Generated_Source\PSoC6\pdl\drivers/peripheral/gpio/cy_gpio.h **** #define CY_GPIO_DM_PULLDOWN_IN_OFF             (0x03UL) /**< Resistive Pull-Down. Input buffer off 
 410:Generated_Source\PSoC6\pdl\drivers/peripheral/gpio/cy_gpio.h **** #define CY_GPIO_DM_OD_DRIVESLOW_IN_OFF         (0x04UL) /**< Open Drain, Drives Low. Input buffer o
 411:Generated_Source\PSoC6\pdl\drivers/peripheral/gpio/cy_gpio.h **** #define CY_GPIO_DM_OD_DRIVESHIGH_IN_OFF        (0x05UL) /**< Open Drain, Drives High. Input buffer 
 412:Generated_Source\PSoC6\pdl\drivers/peripheral/gpio/cy_gpio.h **** #define CY_GPIO_DM_STRONG_IN_OFF               (0x06UL) /**< Strong Drive. Input buffer off */
 413:Generated_Source\PSoC6\pdl\drivers/peripheral/gpio/cy_gpio.h **** #define CY_GPIO_DM_PULLUP_DOWN_IN_OFF          (0x07UL) /**< Resistive Pull-Up/Down. Input buffer o
 414:Generated_Source\PSoC6\pdl\drivers/peripheral/gpio/cy_gpio.h **** #define CY_GPIO_DM_HIGHZ                       (0x08UL) /**< Digital High-Z. Input buffer on */
 415:Generated_Source\PSoC6\pdl\drivers/peripheral/gpio/cy_gpio.h **** #define CY_GPIO_DM_PULLUP                      (0x0AUL) /**< Resistive Pull-Up. Input buffer on */
 416:Generated_Source\PSoC6\pdl\drivers/peripheral/gpio/cy_gpio.h **** #define CY_GPIO_DM_PULLDOWN                    (0x0BUL) /**< Resistive Pull-Down. Input buffer on *
 417:Generated_Source\PSoC6\pdl\drivers/peripheral/gpio/cy_gpio.h **** #define CY_GPIO_DM_OD_DRIVESLOW                (0x0CUL) /**< Open Drain, Drives Low. Input buffer o
 418:Generated_Source\PSoC6\pdl\drivers/peripheral/gpio/cy_gpio.h **** #define CY_GPIO_DM_OD_DRIVESHIGH               (0x0DUL) /**< Open Drain, Drives High. Input buffer 
 419:Generated_Source\PSoC6\pdl\drivers/peripheral/gpio/cy_gpio.h **** #define CY_GPIO_DM_STRONG                      (0x0EUL) /**< Strong Drive. Input buffer on */
 420:Generated_Source\PSoC6\pdl\drivers/peripheral/gpio/cy_gpio.h **** #define CY_GPIO_DM_PULLUP_DOWN                 (0x0FUL) /**< Resistive Pull-Up/Down. Input buffer o
 421:Generated_Source\PSoC6\pdl\drivers/peripheral/gpio/cy_gpio.h **** /** \} */
 422:Generated_Source\PSoC6\pdl\drivers/peripheral/gpio/cy_gpio.h **** 
 423:Generated_Source\PSoC6\pdl\drivers/peripheral/gpio/cy_gpio.h **** /**
 424:Generated_Source\PSoC6\pdl\drivers/peripheral/gpio/cy_gpio.h **** * \defgroup group_gpio_vtrip Voltage trip mode
 425:Generated_Source\PSoC6\pdl\drivers/peripheral/gpio/cy_gpio.h **** * \{
 426:Generated_Source\PSoC6\pdl\drivers/peripheral/gpio/cy_gpio.h **** * Constants to be used for setting the voltage trip type on the pin.
 427:Generated_Source\PSoC6\pdl\drivers/peripheral/gpio/cy_gpio.h **** */
 428:Generated_Source\PSoC6\pdl\drivers/peripheral/gpio/cy_gpio.h **** #define CY_GPIO_VTRIP_CMOS                     (0x00UL) /**< Input buffer compatible with CMOS and 
 429:Generated_Source\PSoC6\pdl\drivers/peripheral/gpio/cy_gpio.h **** #define CY_GPIO_VTRIP_TTL                      (0x01UL) /**< Input buffer compatible with TTL and M
 430:Generated_Source\PSoC6\pdl\drivers/peripheral/gpio/cy_gpio.h **** /** \} */
 431:Generated_Source\PSoC6\pdl\drivers/peripheral/gpio/cy_gpio.h **** 
 432:Generated_Source\PSoC6\pdl\drivers/peripheral/gpio/cy_gpio.h **** /**
 433:Generated_Source\PSoC6\pdl\drivers/peripheral/gpio/cy_gpio.h **** * \defgroup group_gpio_slewRate Slew Rate Mode
 434:Generated_Source\PSoC6\pdl\drivers/peripheral/gpio/cy_gpio.h **** * \{
 435:Generated_Source\PSoC6\pdl\drivers/peripheral/gpio/cy_gpio.h **** * Constants to be used for setting the slew rate of the pin.
 436:Generated_Source\PSoC6\pdl\drivers/peripheral/gpio/cy_gpio.h **** */
 437:Generated_Source\PSoC6\pdl\drivers/peripheral/gpio/cy_gpio.h **** #define CY_GPIO_SLEW_FAST                      (0x00UL) /**< Fast slew rate */
 438:Generated_Source\PSoC6\pdl\drivers/peripheral/gpio/cy_gpio.h **** #define CY_GPIO_SLEW_SLOW                      (0x01UL) /**< Slow slew rate */
 439:Generated_Source\PSoC6\pdl\drivers/peripheral/gpio/cy_gpio.h **** /** \} */
 440:Generated_Source\PSoC6\pdl\drivers/peripheral/gpio/cy_gpio.h **** 
 441:Generated_Source\PSoC6\pdl\drivers/peripheral/gpio/cy_gpio.h **** /**
 442:Generated_Source\PSoC6\pdl\drivers/peripheral/gpio/cy_gpio.h **** * \defgroup group_gpio_driveStrength Pin drive strength
 443:Generated_Source\PSoC6\pdl\drivers/peripheral/gpio/cy_gpio.h **** * \{
ARM GAS  C:\Users\jlabe\AppData\Local\Temp\ccJbzXZ1.s 			page 42


 444:Generated_Source\PSoC6\pdl\drivers/peripheral/gpio/cy_gpio.h **** * Constants to be used for setting the drive strength of the pin.
 445:Generated_Source\PSoC6\pdl\drivers/peripheral/gpio/cy_gpio.h **** */
 446:Generated_Source\PSoC6\pdl\drivers/peripheral/gpio/cy_gpio.h **** #define CY_GPIO_DRIVE_FULL                     (0x00UL) /**< Full drive strength: Max drive current
 447:Generated_Source\PSoC6\pdl\drivers/peripheral/gpio/cy_gpio.h **** #define CY_GPIO_DRIVE_1_2                      (0x01UL) /**< 1/2 drive strength: 1/2 drive current 
 448:Generated_Source\PSoC6\pdl\drivers/peripheral/gpio/cy_gpio.h **** #define CY_GPIO_DRIVE_1_4                      (0x02UL) /**< 1/4 drive strength: 1/4 drive current 
 449:Generated_Source\PSoC6\pdl\drivers/peripheral/gpio/cy_gpio.h **** #define CY_GPIO_DRIVE_1_8                      (0x03UL) /**< 1/8 drive strength: 1/8 drive current 
 450:Generated_Source\PSoC6\pdl\drivers/peripheral/gpio/cy_gpio.h **** /** \} */
 451:Generated_Source\PSoC6\pdl\drivers/peripheral/gpio/cy_gpio.h **** 
 452:Generated_Source\PSoC6\pdl\drivers/peripheral/gpio/cy_gpio.h **** /**
 453:Generated_Source\PSoC6\pdl\drivers/peripheral/gpio/cy_gpio.h **** * \defgroup group_gpio_interruptTrigger Interrupt trigger type
 454:Generated_Source\PSoC6\pdl\drivers/peripheral/gpio/cy_gpio.h **** * \{
 455:Generated_Source\PSoC6\pdl\drivers/peripheral/gpio/cy_gpio.h **** * Constants to be used for setting the interrupt trigger type on the pin.
 456:Generated_Source\PSoC6\pdl\drivers/peripheral/gpio/cy_gpio.h **** */
 457:Generated_Source\PSoC6\pdl\drivers/peripheral/gpio/cy_gpio.h **** #define CY_GPIO_INTR_DISABLE                   (0x00UL) /**< Disable the pin interrupt generation *
 458:Generated_Source\PSoC6\pdl\drivers/peripheral/gpio/cy_gpio.h **** #define CY_GPIO_INTR_RISING                    (0x01UL) /**< Rising-Edge interrupt */
 459:Generated_Source\PSoC6\pdl\drivers/peripheral/gpio/cy_gpio.h **** #define CY_GPIO_INTR_FALLING                   (0x02UL) /**< Falling-Edge interrupt */
 460:Generated_Source\PSoC6\pdl\drivers/peripheral/gpio/cy_gpio.h **** #define CY_GPIO_INTR_BOTH                      (0x03UL) /**< Both-Edge interrupt */
 461:Generated_Source\PSoC6\pdl\drivers/peripheral/gpio/cy_gpio.h **** /** \} */
 462:Generated_Source\PSoC6\pdl\drivers/peripheral/gpio/cy_gpio.h **** 
 463:Generated_Source\PSoC6\pdl\drivers/peripheral/gpio/cy_gpio.h **** /**
 464:Generated_Source\PSoC6\pdl\drivers/peripheral/gpio/cy_gpio.h **** * \defgroup group_gpio_sioVreg SIO output buffer mode
 465:Generated_Source\PSoC6\pdl\drivers/peripheral/gpio/cy_gpio.h **** * \{
 466:Generated_Source\PSoC6\pdl\drivers/peripheral/gpio/cy_gpio.h **** * Constants to be used for setting the SIO output buffer mode on the pin.
 467:Generated_Source\PSoC6\pdl\drivers/peripheral/gpio/cy_gpio.h **** */
 468:Generated_Source\PSoC6\pdl\drivers/peripheral/gpio/cy_gpio.h **** #define CY_SIO_VREG_UNREGULATED                (0x00UL) /**< Unregulated output buffer */
 469:Generated_Source\PSoC6\pdl\drivers/peripheral/gpio/cy_gpio.h **** #define CY_SIO_VREG_REGULATED                  (0x01UL) /**< Regulated output buffer */
 470:Generated_Source\PSoC6\pdl\drivers/peripheral/gpio/cy_gpio.h **** /** \} */
 471:Generated_Source\PSoC6\pdl\drivers/peripheral/gpio/cy_gpio.h **** 
 472:Generated_Source\PSoC6\pdl\drivers/peripheral/gpio/cy_gpio.h **** /**
 473:Generated_Source\PSoC6\pdl\drivers/peripheral/gpio/cy_gpio.h **** * \defgroup group_gpio_sioIbuf SIO input buffer mode
 474:Generated_Source\PSoC6\pdl\drivers/peripheral/gpio/cy_gpio.h **** * \{
 475:Generated_Source\PSoC6\pdl\drivers/peripheral/gpio/cy_gpio.h **** * Constants to be used for setting the SIO input buffer mode on the pin.
 476:Generated_Source\PSoC6\pdl\drivers/peripheral/gpio/cy_gpio.h **** */
 477:Generated_Source\PSoC6\pdl\drivers/peripheral/gpio/cy_gpio.h **** #define CY_SIO_IBUF_SINGLEENDED                (0x00UL) /**< Single ended input buffer */
 478:Generated_Source\PSoC6\pdl\drivers/peripheral/gpio/cy_gpio.h **** #define CY_SIO_IBUF_DIFFERENTIAL               (0x01UL) /**< Differential input buffer */
 479:Generated_Source\PSoC6\pdl\drivers/peripheral/gpio/cy_gpio.h **** /** \} */
 480:Generated_Source\PSoC6\pdl\drivers/peripheral/gpio/cy_gpio.h **** 
 481:Generated_Source\PSoC6\pdl\drivers/peripheral/gpio/cy_gpio.h **** /**
 482:Generated_Source\PSoC6\pdl\drivers/peripheral/gpio/cy_gpio.h **** * \defgroup group_gpio_sioVtrip SIO input buffer trip-point
 483:Generated_Source\PSoC6\pdl\drivers/peripheral/gpio/cy_gpio.h **** * \{
 484:Generated_Source\PSoC6\pdl\drivers/peripheral/gpio/cy_gpio.h **** * Constants to be used for setting the SIO input buffer trip-point of the pin.
 485:Generated_Source\PSoC6\pdl\drivers/peripheral/gpio/cy_gpio.h **** */
 486:Generated_Source\PSoC6\pdl\drivers/peripheral/gpio/cy_gpio.h **** #define CY_SIO_VTRIP_CMOS                      (0x00UL) /**< CMOS input buffer (single-ended) */
 487:Generated_Source\PSoC6\pdl\drivers/peripheral/gpio/cy_gpio.h **** #define CY_SIO_VTRIP_TTL                       (0x01UL) /**< TTL input buffer (single-ended) */
 488:Generated_Source\PSoC6\pdl\drivers/peripheral/gpio/cy_gpio.h **** #define CY_SIO_VTRIP_0_5VDDIO_0_5VOH           (0x00UL) /**< 0.5xVddio or 0.5xVoh (differential) */
 489:Generated_Source\PSoC6\pdl\drivers/peripheral/gpio/cy_gpio.h **** #define CY_SIO_VTRIP_0_4VDDIO_1_0VREF          (0x01UL) /**< 0.4xVddio or 0.4xVoh (differential) */
 490:Generated_Source\PSoC6\pdl\drivers/peripheral/gpio/cy_gpio.h **** /** \} */
 491:Generated_Source\PSoC6\pdl\drivers/peripheral/gpio/cy_gpio.h **** 
 492:Generated_Source\PSoC6\pdl\drivers/peripheral/gpio/cy_gpio.h **** /**
 493:Generated_Source\PSoC6\pdl\drivers/peripheral/gpio/cy_gpio.h **** * \defgroup group_gpio_sioVref SIO reference voltage for input buffer trip-point
 494:Generated_Source\PSoC6\pdl\drivers/peripheral/gpio/cy_gpio.h **** * \{
 495:Generated_Source\PSoC6\pdl\drivers/peripheral/gpio/cy_gpio.h **** * Constants to be used for setting the reference voltage of SIO input buffer trip-point.
 496:Generated_Source\PSoC6\pdl\drivers/peripheral/gpio/cy_gpio.h **** */
 497:Generated_Source\PSoC6\pdl\drivers/peripheral/gpio/cy_gpio.h **** #define CY_SIO_VREF_PINREF                     (0x00UL) /**< Vref from analog pin */
 498:Generated_Source\PSoC6\pdl\drivers/peripheral/gpio/cy_gpio.h **** #define CY_SIO_VREF_1_2V                       (0x01UL) /**< Vref from internal 1.2V reference */
 499:Generated_Source\PSoC6\pdl\drivers/peripheral/gpio/cy_gpio.h **** #define CY_SIO_VREF_AMUX_A                     (0x02UL) /**< Vref from AMUXBUS_A */
 500:Generated_Source\PSoC6\pdl\drivers/peripheral/gpio/cy_gpio.h **** #define CY_SIO_VREF_AMUX_B                     (0x03UL) /**< Vref from AMUXBUS_B */
ARM GAS  C:\Users\jlabe\AppData\Local\Temp\ccJbzXZ1.s 			page 43


 501:Generated_Source\PSoC6\pdl\drivers/peripheral/gpio/cy_gpio.h **** /** \} */
 502:Generated_Source\PSoC6\pdl\drivers/peripheral/gpio/cy_gpio.h **** 
 503:Generated_Source\PSoC6\pdl\drivers/peripheral/gpio/cy_gpio.h **** /**
 504:Generated_Source\PSoC6\pdl\drivers/peripheral/gpio/cy_gpio.h **** * \defgroup group_gpio_sioVoh Regulated output voltage level (Voh) and input buffer trip-point of a
 505:Generated_Source\PSoC6\pdl\drivers/peripheral/gpio/cy_gpio.h **** * \{
 506:Generated_Source\PSoC6\pdl\drivers/peripheral/gpio/cy_gpio.h **** * Constants to be used for setting the Voh and input buffer trip-point of an SIO pair
 507:Generated_Source\PSoC6\pdl\drivers/peripheral/gpio/cy_gpio.h **** */
 508:Generated_Source\PSoC6\pdl\drivers/peripheral/gpio/cy_gpio.h **** #define CY_SIO_VOH_1_00                        (0x00UL) /**< Voh = 1 x Reference */
 509:Generated_Source\PSoC6\pdl\drivers/peripheral/gpio/cy_gpio.h **** #define CY_SIO_VOH_1_25                        (0x01UL) /**< Voh = 1.25 x Reference */
 510:Generated_Source\PSoC6\pdl\drivers/peripheral/gpio/cy_gpio.h **** #define CY_SIO_VOH_1_49                        (0x02UL) /**< Voh = 1.49 x Reference */
 511:Generated_Source\PSoC6\pdl\drivers/peripheral/gpio/cy_gpio.h **** #define CY_SIO_VOH_1_67                        (0x03UL) /**< Voh = 1.67 x Reference */
 512:Generated_Source\PSoC6\pdl\drivers/peripheral/gpio/cy_gpio.h **** #define CY_SIO_VOH_2_08                        (0x04UL) /**< Voh = 2.08 x Reference */
 513:Generated_Source\PSoC6\pdl\drivers/peripheral/gpio/cy_gpio.h **** #define CY_SIO_VOH_2_50                        (0x05UL) /**< Voh = 2.50 x Reference */
 514:Generated_Source\PSoC6\pdl\drivers/peripheral/gpio/cy_gpio.h **** #define CY_SIO_VOH_2_78                        (0x06UL) /**< Voh = 2.78 x Reference */
 515:Generated_Source\PSoC6\pdl\drivers/peripheral/gpio/cy_gpio.h **** #define CY_SIO_VOH_4_16                        (0x07UL) /**< Voh = 4.16 x Reference */
 516:Generated_Source\PSoC6\pdl\drivers/peripheral/gpio/cy_gpio.h **** /** \} */
 517:Generated_Source\PSoC6\pdl\drivers/peripheral/gpio/cy_gpio.h **** 
 518:Generated_Source\PSoC6\pdl\drivers/peripheral/gpio/cy_gpio.h **** /** \} group_gpio_macros */
 519:Generated_Source\PSoC6\pdl\drivers/peripheral/gpio/cy_gpio.h **** 
 520:Generated_Source\PSoC6\pdl\drivers/peripheral/gpio/cy_gpio.h **** /***************************************
 521:Generated_Source\PSoC6\pdl\drivers/peripheral/gpio/cy_gpio.h **** *        Function Prototypes
 522:Generated_Source\PSoC6\pdl\drivers/peripheral/gpio/cy_gpio.h **** ***************************************/
 523:Generated_Source\PSoC6\pdl\drivers/peripheral/gpio/cy_gpio.h **** 
 524:Generated_Source\PSoC6\pdl\drivers/peripheral/gpio/cy_gpio.h **** /**
 525:Generated_Source\PSoC6\pdl\drivers/peripheral/gpio/cy_gpio.h **** * \addtogroup group_gpio_functions
 526:Generated_Source\PSoC6\pdl\drivers/peripheral/gpio/cy_gpio.h **** * \{
 527:Generated_Source\PSoC6\pdl\drivers/peripheral/gpio/cy_gpio.h **** */
 528:Generated_Source\PSoC6\pdl\drivers/peripheral/gpio/cy_gpio.h **** 
 529:Generated_Source\PSoC6\pdl\drivers/peripheral/gpio/cy_gpio.h **** /**
 530:Generated_Source\PSoC6\pdl\drivers/peripheral/gpio/cy_gpio.h **** * \addtogroup group_gpio_functions_init
 531:Generated_Source\PSoC6\pdl\drivers/peripheral/gpio/cy_gpio.h **** * \{
 532:Generated_Source\PSoC6\pdl\drivers/peripheral/gpio/cy_gpio.h **** */
 533:Generated_Source\PSoC6\pdl\drivers/peripheral/gpio/cy_gpio.h **** 
 534:Generated_Source\PSoC6\pdl\drivers/peripheral/gpio/cy_gpio.h **** cy_en_gpio_status_t Cy_GPIO_Pin_Init(GPIO_PRT_Type* base, uint32_t pinNum, const cy_stc_gpio_pin_co
 535:Generated_Source\PSoC6\pdl\drivers/peripheral/gpio/cy_gpio.h **** cy_en_gpio_status_t Cy_GPIO_Port_Init(GPIO_PRT_Type* base, const cy_stc_gpio_prt_config_t *config);
 536:Generated_Source\PSoC6\pdl\drivers/peripheral/gpio/cy_gpio.h **** void Cy_GPIO_Pin_FastInit(GPIO_PRT_Type* base, uint32_t pinNum, uint32_t driveMode, uint32_t outVal
 537:Generated_Source\PSoC6\pdl\drivers/peripheral/gpio/cy_gpio.h **** void Cy_GPIO_Port_Deinit(GPIO_PRT_Type* base);
 538:Generated_Source\PSoC6\pdl\drivers/peripheral/gpio/cy_gpio.h **** __STATIC_INLINE void Cy_GPIO_SetHSIOM(GPIO_PRT_Type* base, uint32_t pinNum, en_hsiom_sel_t value);
 539:Generated_Source\PSoC6\pdl\drivers/peripheral/gpio/cy_gpio.h **** __STATIC_INLINE en_hsiom_sel_t Cy_GPIO_GetHSIOM(GPIO_PRT_Type* base, uint32_t pinNum);
 540:Generated_Source\PSoC6\pdl\drivers/peripheral/gpio/cy_gpio.h **** __STATIC_INLINE GPIO_PRT_Type* Cy_GPIO_PortToAddr(uint32_t portNum);
 541:Generated_Source\PSoC6\pdl\drivers/peripheral/gpio/cy_gpio.h **** 
 542:Generated_Source\PSoC6\pdl\drivers/peripheral/gpio/cy_gpio.h **** /** \} group_gpio_functions_init */
 543:Generated_Source\PSoC6\pdl\drivers/peripheral/gpio/cy_gpio.h **** 
 544:Generated_Source\PSoC6\pdl\drivers/peripheral/gpio/cy_gpio.h **** /**
 545:Generated_Source\PSoC6\pdl\drivers/peripheral/gpio/cy_gpio.h **** * \addtogroup group_gpio_functions_gpio
 546:Generated_Source\PSoC6\pdl\drivers/peripheral/gpio/cy_gpio.h **** * \{
 547:Generated_Source\PSoC6\pdl\drivers/peripheral/gpio/cy_gpio.h **** */
 548:Generated_Source\PSoC6\pdl\drivers/peripheral/gpio/cy_gpio.h **** 
 549:Generated_Source\PSoC6\pdl\drivers/peripheral/gpio/cy_gpio.h **** void Cy_GPIO_SetAmuxSplit(cy_en_amux_split_t switchCtrl, cy_en_gpio_amuxconnect_t amuxConnect, cy_e
 550:Generated_Source\PSoC6\pdl\drivers/peripheral/gpio/cy_gpio.h **** cy_en_gpio_amuxconnect_t Cy_GPIO_GetAmuxSplit(cy_en_amux_split_t switchCtrl, cy_en_gpio_amuxselect_
 551:Generated_Source\PSoC6\pdl\drivers/peripheral/gpio/cy_gpio.h **** 
 552:Generated_Source\PSoC6\pdl\drivers/peripheral/gpio/cy_gpio.h **** __STATIC_INLINE uint32_t Cy_GPIO_Read(GPIO_PRT_Type* base, uint32_t pinNum);
 553:Generated_Source\PSoC6\pdl\drivers/peripheral/gpio/cy_gpio.h **** __STATIC_INLINE void Cy_GPIO_Write(GPIO_PRT_Type* base, uint32_t pinNum, uint32_t value);
 554:Generated_Source\PSoC6\pdl\drivers/peripheral/gpio/cy_gpio.h **** __STATIC_INLINE uint32_t Cy_GPIO_ReadOut(GPIO_PRT_Type* base, uint32_t pinNum);
 555:Generated_Source\PSoC6\pdl\drivers/peripheral/gpio/cy_gpio.h **** __STATIC_INLINE void Cy_GPIO_Set(GPIO_PRT_Type* base, uint32_t pinNum);
 556:Generated_Source\PSoC6\pdl\drivers/peripheral/gpio/cy_gpio.h **** __STATIC_INLINE void Cy_GPIO_Clr(GPIO_PRT_Type* base, uint32_t pinNum);
 557:Generated_Source\PSoC6\pdl\drivers/peripheral/gpio/cy_gpio.h **** __STATIC_INLINE void Cy_GPIO_Inv(GPIO_PRT_Type* base, uint32_t pinNum);
ARM GAS  C:\Users\jlabe\AppData\Local\Temp\ccJbzXZ1.s 			page 44


 558:Generated_Source\PSoC6\pdl\drivers/peripheral/gpio/cy_gpio.h **** __STATIC_INLINE void Cy_GPIO_SetDrivemode(GPIO_PRT_Type* base, uint32_t pinNum, uint32_t value);
 559:Generated_Source\PSoC6\pdl\drivers/peripheral/gpio/cy_gpio.h **** __STATIC_INLINE uint32_t Cy_GPIO_GetDrivemode(GPIO_PRT_Type* base, uint32_t pinNum);
 560:Generated_Source\PSoC6\pdl\drivers/peripheral/gpio/cy_gpio.h **** __STATIC_INLINE void Cy_GPIO_SetVtrip(GPIO_PRT_Type* base, uint32_t pinNum, uint32_t value);
 561:Generated_Source\PSoC6\pdl\drivers/peripheral/gpio/cy_gpio.h **** __STATIC_INLINE uint32_t Cy_GPIO_GetVtrip(GPIO_PRT_Type* base, uint32_t pinNum);
 562:Generated_Source\PSoC6\pdl\drivers/peripheral/gpio/cy_gpio.h **** __STATIC_INLINE void Cy_GPIO_SetSlewRate(GPIO_PRT_Type* base, uint32_t pinNum, uint32_t value);
 563:Generated_Source\PSoC6\pdl\drivers/peripheral/gpio/cy_gpio.h **** __STATIC_INLINE uint32_t Cy_GPIO_GetSlewRate(GPIO_PRT_Type* base, uint32_t pinNum);
 564:Generated_Source\PSoC6\pdl\drivers/peripheral/gpio/cy_gpio.h **** __STATIC_INLINE void Cy_GPIO_SetDriveSel(GPIO_PRT_Type* base, uint32_t pinNum, uint32_t value);
 565:Generated_Source\PSoC6\pdl\drivers/peripheral/gpio/cy_gpio.h **** __STATIC_INLINE uint32_t Cy_GPIO_GetDriveSel(GPIO_PRT_Type* base, uint32_t pinNum);
 566:Generated_Source\PSoC6\pdl\drivers/peripheral/gpio/cy_gpio.h **** 
 567:Generated_Source\PSoC6\pdl\drivers/peripheral/gpio/cy_gpio.h **** /** \} group_gpio_functions_gpio */
 568:Generated_Source\PSoC6\pdl\drivers/peripheral/gpio/cy_gpio.h **** 
 569:Generated_Source\PSoC6\pdl\drivers/peripheral/gpio/cy_gpio.h **** /**
 570:Generated_Source\PSoC6\pdl\drivers/peripheral/gpio/cy_gpio.h **** * \addtogroup group_gpio_functions_sio
 571:Generated_Source\PSoC6\pdl\drivers/peripheral/gpio/cy_gpio.h **** * \{
 572:Generated_Source\PSoC6\pdl\drivers/peripheral/gpio/cy_gpio.h **** */
 573:Generated_Source\PSoC6\pdl\drivers/peripheral/gpio/cy_gpio.h **** 
 574:Generated_Source\PSoC6\pdl\drivers/peripheral/gpio/cy_gpio.h **** __STATIC_INLINE void Cy_GPIO_SetVregEn(GPIO_PRT_Type* base, uint32_t pinNum, uint32_t value);
 575:Generated_Source\PSoC6\pdl\drivers/peripheral/gpio/cy_gpio.h **** __STATIC_INLINE uint32_t Cy_GPIO_GetVregEn(GPIO_PRT_Type* base, uint32_t pinNum);
 576:Generated_Source\PSoC6\pdl\drivers/peripheral/gpio/cy_gpio.h **** __STATIC_INLINE void Cy_GPIO_SetIbufMode(GPIO_PRT_Type* base, uint32_t pinNum, uint32_t value);
 577:Generated_Source\PSoC6\pdl\drivers/peripheral/gpio/cy_gpio.h **** __STATIC_INLINE uint32_t Cy_GPIO_GetIbufMode(GPIO_PRT_Type* base, uint32_t pinNum);
 578:Generated_Source\PSoC6\pdl\drivers/peripheral/gpio/cy_gpio.h **** __STATIC_INLINE void Cy_GPIO_SetVtripSel(GPIO_PRT_Type* base, uint32_t pinNum, uint32_t value);
 579:Generated_Source\PSoC6\pdl\drivers/peripheral/gpio/cy_gpio.h **** __STATIC_INLINE uint32_t Cy_GPIO_GetVtripSel(GPIO_PRT_Type* base, uint32_t pinNum);
 580:Generated_Source\PSoC6\pdl\drivers/peripheral/gpio/cy_gpio.h **** __STATIC_INLINE void Cy_GPIO_SetVrefSel(GPIO_PRT_Type* base, uint32_t pinNum, uint32_t value);
 581:Generated_Source\PSoC6\pdl\drivers/peripheral/gpio/cy_gpio.h **** __STATIC_INLINE uint32_t Cy_GPIO_GetVrefSel(GPIO_PRT_Type* base, uint32_t pinNum);
 582:Generated_Source\PSoC6\pdl\drivers/peripheral/gpio/cy_gpio.h **** __STATIC_INLINE void Cy_GPIO_SetVohSel(GPIO_PRT_Type* base, uint32_t pinNum, uint32_t value);
 583:Generated_Source\PSoC6\pdl\drivers/peripheral/gpio/cy_gpio.h **** __STATIC_INLINE uint32_t Cy_GPIO_GetVohSel(GPIO_PRT_Type* base, uint32_t pinNum);
 584:Generated_Source\PSoC6\pdl\drivers/peripheral/gpio/cy_gpio.h **** 
 585:Generated_Source\PSoC6\pdl\drivers/peripheral/gpio/cy_gpio.h **** /** \} group_gpio_functions_sio */
 586:Generated_Source\PSoC6\pdl\drivers/peripheral/gpio/cy_gpio.h **** 
 587:Generated_Source\PSoC6\pdl\drivers/peripheral/gpio/cy_gpio.h **** /**
 588:Generated_Source\PSoC6\pdl\drivers/peripheral/gpio/cy_gpio.h **** * \addtogroup group_gpio_functions_interrupt
 589:Generated_Source\PSoC6\pdl\drivers/peripheral/gpio/cy_gpio.h **** * \{
 590:Generated_Source\PSoC6\pdl\drivers/peripheral/gpio/cy_gpio.h **** */
 591:Generated_Source\PSoC6\pdl\drivers/peripheral/gpio/cy_gpio.h **** 
 592:Generated_Source\PSoC6\pdl\drivers/peripheral/gpio/cy_gpio.h **** __STATIC_INLINE uint32_t Cy_GPIO_GetInterruptStatus(GPIO_PRT_Type* base, uint32_t pinNum);
 593:Generated_Source\PSoC6\pdl\drivers/peripheral/gpio/cy_gpio.h **** __STATIC_INLINE void Cy_GPIO_ClearInterrupt(GPIO_PRT_Type* base, uint32_t pinNum);
 594:Generated_Source\PSoC6\pdl\drivers/peripheral/gpio/cy_gpio.h **** __STATIC_INLINE void Cy_GPIO_SetInterruptMask(GPIO_PRT_Type* base, uint32_t pinNum, uint32_t value)
 595:Generated_Source\PSoC6\pdl\drivers/peripheral/gpio/cy_gpio.h **** __STATIC_INLINE uint32_t Cy_GPIO_GetInterruptMask(GPIO_PRT_Type* base, uint32_t pinNum);
 596:Generated_Source\PSoC6\pdl\drivers/peripheral/gpio/cy_gpio.h **** __STATIC_INLINE uint32_t Cy_GPIO_GetInterruptStatusMasked(GPIO_PRT_Type* base, uint32_t pinNum);
 597:Generated_Source\PSoC6\pdl\drivers/peripheral/gpio/cy_gpio.h **** __STATIC_INLINE void Cy_GPIO_SetSwInterrupt(GPIO_PRT_Type* base, uint32_t pinNum);
 598:Generated_Source\PSoC6\pdl\drivers/peripheral/gpio/cy_gpio.h **** __STATIC_INLINE void Cy_GPIO_SetInterruptEdge(GPIO_PRT_Type* base, uint32_t pinNum, uint32_t value)
 599:Generated_Source\PSoC6\pdl\drivers/peripheral/gpio/cy_gpio.h **** __STATIC_INLINE uint32_t Cy_GPIO_GetInterruptEdge(GPIO_PRT_Type* base, uint32_t pinNum);
 600:Generated_Source\PSoC6\pdl\drivers/peripheral/gpio/cy_gpio.h **** __STATIC_INLINE void Cy_GPIO_SetFilter(GPIO_PRT_Type* base, uint32_t value);
 601:Generated_Source\PSoC6\pdl\drivers/peripheral/gpio/cy_gpio.h **** __STATIC_INLINE uint32_t Cy_GPIO_GetFilter(GPIO_PRT_Type* base);
 602:Generated_Source\PSoC6\pdl\drivers/peripheral/gpio/cy_gpio.h **** 
 603:Generated_Source\PSoC6\pdl\drivers/peripheral/gpio/cy_gpio.h **** __STATIC_INLINE uint32_t Cy_GPIO_GetInterruptCause0(void);
 604:Generated_Source\PSoC6\pdl\drivers/peripheral/gpio/cy_gpio.h **** __STATIC_INLINE uint32_t Cy_GPIO_GetInterruptCause1(void);
 605:Generated_Source\PSoC6\pdl\drivers/peripheral/gpio/cy_gpio.h **** __STATIC_INLINE uint32_t Cy_GPIO_GetInterruptCause2(void);
 606:Generated_Source\PSoC6\pdl\drivers/peripheral/gpio/cy_gpio.h **** __STATIC_INLINE uint32_t Cy_GPIO_GetInterruptCause3(void);
 607:Generated_Source\PSoC6\pdl\drivers/peripheral/gpio/cy_gpio.h **** 
 608:Generated_Source\PSoC6\pdl\drivers/peripheral/gpio/cy_gpio.h **** /** \} group_gpio_functions_interrupt */
 609:Generated_Source\PSoC6\pdl\drivers/peripheral/gpio/cy_gpio.h **** 
 610:Generated_Source\PSoC6\pdl\drivers/peripheral/gpio/cy_gpio.h **** 
 611:Generated_Source\PSoC6\pdl\drivers/peripheral/gpio/cy_gpio.h **** /**
 612:Generated_Source\PSoC6\pdl\drivers/peripheral/gpio/cy_gpio.h **** * \addtogroup group_gpio_functions_init
 613:Generated_Source\PSoC6\pdl\drivers/peripheral/gpio/cy_gpio.h **** * \{
 614:Generated_Source\PSoC6\pdl\drivers/peripheral/gpio/cy_gpio.h **** */
ARM GAS  C:\Users\jlabe\AppData\Local\Temp\ccJbzXZ1.s 			page 45


 615:Generated_Source\PSoC6\pdl\drivers/peripheral/gpio/cy_gpio.h **** 
 616:Generated_Source\PSoC6\pdl\drivers/peripheral/gpio/cy_gpio.h **** /*******************************************************************************
 617:Generated_Source\PSoC6\pdl\drivers/peripheral/gpio/cy_gpio.h **** * Function Name: Cy_GPIO_SetHSIOM
 618:Generated_Source\PSoC6\pdl\drivers/peripheral/gpio/cy_gpio.h **** ****************************************************************************//**
 619:Generated_Source\PSoC6\pdl\drivers/peripheral/gpio/cy_gpio.h **** *
 620:Generated_Source\PSoC6\pdl\drivers/peripheral/gpio/cy_gpio.h **** * Configures the HSIOM connection to the pin.
 621:Generated_Source\PSoC6\pdl\drivers/peripheral/gpio/cy_gpio.h **** *
 622:Generated_Source\PSoC6\pdl\drivers/peripheral/gpio/cy_gpio.h **** * Connects the specified High-Speed Input Output Multiplexer (HSIOM) selection
 623:Generated_Source\PSoC6\pdl\drivers/peripheral/gpio/cy_gpio.h **** * to the pin.
 624:Generated_Source\PSoC6\pdl\drivers/peripheral/gpio/cy_gpio.h **** *
 625:Generated_Source\PSoC6\pdl\drivers/peripheral/gpio/cy_gpio.h **** * \param base
 626:Generated_Source\PSoC6\pdl\drivers/peripheral/gpio/cy_gpio.h **** * Pointer to the pin's port register base address
 627:Generated_Source\PSoC6\pdl\drivers/peripheral/gpio/cy_gpio.h **** *
 628:Generated_Source\PSoC6\pdl\drivers/peripheral/gpio/cy_gpio.h **** * \param pinNum
 629:Generated_Source\PSoC6\pdl\drivers/peripheral/gpio/cy_gpio.h **** * Position of the pin bit-field within the port register
 630:Generated_Source\PSoC6\pdl\drivers/peripheral/gpio/cy_gpio.h **** *
 631:Generated_Source\PSoC6\pdl\drivers/peripheral/gpio/cy_gpio.h **** * \param value
 632:Generated_Source\PSoC6\pdl\drivers/peripheral/gpio/cy_gpio.h **** * HSIOM input selection
 633:Generated_Source\PSoC6\pdl\drivers/peripheral/gpio/cy_gpio.h **** *
 634:Generated_Source\PSoC6\pdl\drivers/peripheral/gpio/cy_gpio.h **** * \note 
 635:Generated_Source\PSoC6\pdl\drivers/peripheral/gpio/cy_gpio.h **** * This function modifies a port register in a read-modify-write operation. It is
 636:Generated_Source\PSoC6\pdl\drivers/peripheral/gpio/cy_gpio.h **** * not thread safe as the resource is shared among multiple pins on a port.
 637:Generated_Source\PSoC6\pdl\drivers/peripheral/gpio/cy_gpio.h **** *
 638:Generated_Source\PSoC6\pdl\drivers/peripheral/gpio/cy_gpio.h **** * \funcusage
 639:Generated_Source\PSoC6\pdl\drivers/peripheral/gpio/cy_gpio.h **** * \snippet gpio/gpio_v1_10_sut_01.cydsn/main_cm4.c snippet_Cy_GPIO_SetHSIOM
 640:Generated_Source\PSoC6\pdl\drivers/peripheral/gpio/cy_gpio.h **** *
 641:Generated_Source\PSoC6\pdl\drivers/peripheral/gpio/cy_gpio.h **** *******************************************************************************/
 642:Generated_Source\PSoC6\pdl\drivers/peripheral/gpio/cy_gpio.h **** __STATIC_INLINE void Cy_GPIO_SetHSIOM(GPIO_PRT_Type* base, uint32_t pinNum, en_hsiom_sel_t value)
 643:Generated_Source\PSoC6\pdl\drivers/peripheral/gpio/cy_gpio.h **** {
 644:Generated_Source\PSoC6\pdl\drivers/peripheral/gpio/cy_gpio.h ****     uint32_t portNum;
 645:Generated_Source\PSoC6\pdl\drivers/peripheral/gpio/cy_gpio.h ****     uint32_t tempReg;
 646:Generated_Source\PSoC6\pdl\drivers/peripheral/gpio/cy_gpio.h ****     HSIOM_PRT_V1_Type* portAddrHSIOM;
 647:Generated_Source\PSoC6\pdl\drivers/peripheral/gpio/cy_gpio.h **** 
 648:Generated_Source\PSoC6\pdl\drivers/peripheral/gpio/cy_gpio.h ****     CY_ASSERT_L2(CY_GPIO_IS_PIN_VALID(pinNum));
 649:Generated_Source\PSoC6\pdl\drivers/peripheral/gpio/cy_gpio.h ****     CY_ASSERT_L2(CY_GPIO_IS_HSIOM_VALID(value));
 650:Generated_Source\PSoC6\pdl\drivers/peripheral/gpio/cy_gpio.h **** 
 651:Generated_Source\PSoC6\pdl\drivers/peripheral/gpio/cy_gpio.h ****     portNum = ((uint32_t)(base) - CY_GPIO_BASE) / GPIO_PRT_SECTION_SIZE;
 652:Generated_Source\PSoC6\pdl\drivers/peripheral/gpio/cy_gpio.h ****     portAddrHSIOM = (HSIOM_PRT_V1_Type*)(CY_HSIOM_BASE + (HSIOM_PRT_SECTION_SIZE * portNum));
 653:Generated_Source\PSoC6\pdl\drivers/peripheral/gpio/cy_gpio.h **** 
 654:Generated_Source\PSoC6\pdl\drivers/peripheral/gpio/cy_gpio.h ****     if(pinNum < CY_GPIO_PRT_HALF)
 655:Generated_Source\PSoC6\pdl\drivers/peripheral/gpio/cy_gpio.h ****     {
 656:Generated_Source\PSoC6\pdl\drivers/peripheral/gpio/cy_gpio.h ****         tempReg = HSIOM_PRT_PORT_SEL0(portAddrHSIOM) & ~(CY_GPIO_HSIOM_MASK << (pinNum << CY_GPIO_H
 657:Generated_Source\PSoC6\pdl\drivers/peripheral/gpio/cy_gpio.h ****         HSIOM_PRT_PORT_SEL0(portAddrHSIOM) = tempReg | ((value & CY_GPIO_HSIOM_MASK) << (pinNum << 
 658:Generated_Source\PSoC6\pdl\drivers/peripheral/gpio/cy_gpio.h ****     }
 659:Generated_Source\PSoC6\pdl\drivers/peripheral/gpio/cy_gpio.h ****     else
 660:Generated_Source\PSoC6\pdl\drivers/peripheral/gpio/cy_gpio.h ****     {
 661:Generated_Source\PSoC6\pdl\drivers/peripheral/gpio/cy_gpio.h ****         pinNum -= CY_GPIO_PRT_HALF;
 662:Generated_Source\PSoC6\pdl\drivers/peripheral/gpio/cy_gpio.h ****         tempReg = HSIOM_PRT_PORT_SEL1(portAddrHSIOM) & ~(CY_GPIO_HSIOM_MASK << (pinNum << CY_GPIO_H
 663:Generated_Source\PSoC6\pdl\drivers/peripheral/gpio/cy_gpio.h ****         HSIOM_PRT_PORT_SEL1(portAddrHSIOM) = tempReg | ((value & CY_GPIO_HSIOM_MASK) << (pinNum << 
 664:Generated_Source\PSoC6\pdl\drivers/peripheral/gpio/cy_gpio.h ****     }
 665:Generated_Source\PSoC6\pdl\drivers/peripheral/gpio/cy_gpio.h **** }
 666:Generated_Source\PSoC6\pdl\drivers/peripheral/gpio/cy_gpio.h **** 
 667:Generated_Source\PSoC6\pdl\drivers/peripheral/gpio/cy_gpio.h **** 
 668:Generated_Source\PSoC6\pdl\drivers/peripheral/gpio/cy_gpio.h **** /*******************************************************************************
 669:Generated_Source\PSoC6\pdl\drivers/peripheral/gpio/cy_gpio.h **** * Function Name: Cy_GPIO_GetHSIOM
 670:Generated_Source\PSoC6\pdl\drivers/peripheral/gpio/cy_gpio.h **** ****************************************************************************//**
 671:Generated_Source\PSoC6\pdl\drivers/peripheral/gpio/cy_gpio.h **** *
ARM GAS  C:\Users\jlabe\AppData\Local\Temp\ccJbzXZ1.s 			page 46


 672:Generated_Source\PSoC6\pdl\drivers/peripheral/gpio/cy_gpio.h **** * Returns the current HSIOM multiplexer connection to the pin.
 673:Generated_Source\PSoC6\pdl\drivers/peripheral/gpio/cy_gpio.h **** *
 674:Generated_Source\PSoC6\pdl\drivers/peripheral/gpio/cy_gpio.h **** * \param base
 675:Generated_Source\PSoC6\pdl\drivers/peripheral/gpio/cy_gpio.h **** * Pointer to the pin's port register base address
 676:Generated_Source\PSoC6\pdl\drivers/peripheral/gpio/cy_gpio.h **** *
 677:Generated_Source\PSoC6\pdl\drivers/peripheral/gpio/cy_gpio.h **** * \param pinNum
 678:Generated_Source\PSoC6\pdl\drivers/peripheral/gpio/cy_gpio.h **** * Position of the pin bit-field within the port register
 679:Generated_Source\PSoC6\pdl\drivers/peripheral/gpio/cy_gpio.h **** *
 680:Generated_Source\PSoC6\pdl\drivers/peripheral/gpio/cy_gpio.h **** * \return
 681:Generated_Source\PSoC6\pdl\drivers/peripheral/gpio/cy_gpio.h **** * HSIOM input selection
 682:Generated_Source\PSoC6\pdl\drivers/peripheral/gpio/cy_gpio.h **** *
 683:Generated_Source\PSoC6\pdl\drivers/peripheral/gpio/cy_gpio.h **** * \funcusage
 684:Generated_Source\PSoC6\pdl\drivers/peripheral/gpio/cy_gpio.h **** * \snippet gpio/gpio_v1_10_sut_01.cydsn/main_cm4.c snippet_Cy_GPIO_SetHSIOM
 685:Generated_Source\PSoC6\pdl\drivers/peripheral/gpio/cy_gpio.h **** *
 686:Generated_Source\PSoC6\pdl\drivers/peripheral/gpio/cy_gpio.h **** *******************************************************************************/
 687:Generated_Source\PSoC6\pdl\drivers/peripheral/gpio/cy_gpio.h **** __STATIC_INLINE en_hsiom_sel_t Cy_GPIO_GetHSIOM(GPIO_PRT_Type* base, uint32_t pinNum)
 688:Generated_Source\PSoC6\pdl\drivers/peripheral/gpio/cy_gpio.h **** {
 689:Generated_Source\PSoC6\pdl\drivers/peripheral/gpio/cy_gpio.h ****     uint32_t returnValue;
 690:Generated_Source\PSoC6\pdl\drivers/peripheral/gpio/cy_gpio.h ****     uint32_t portNum;
 691:Generated_Source\PSoC6\pdl\drivers/peripheral/gpio/cy_gpio.h ****     HSIOM_PRT_V1_Type* portAddrHSIOM;
 692:Generated_Source\PSoC6\pdl\drivers/peripheral/gpio/cy_gpio.h ****     
 693:Generated_Source\PSoC6\pdl\drivers/peripheral/gpio/cy_gpio.h ****     CY_ASSERT_L2(CY_GPIO_IS_PIN_VALID(pinNum));
 694:Generated_Source\PSoC6\pdl\drivers/peripheral/gpio/cy_gpio.h **** 
 695:Generated_Source\PSoC6\pdl\drivers/peripheral/gpio/cy_gpio.h ****     portNum = ((uint32_t)(base) - CY_GPIO_BASE) / GPIO_PRT_SECTION_SIZE;
 696:Generated_Source\PSoC6\pdl\drivers/peripheral/gpio/cy_gpio.h ****     portAddrHSIOM = (HSIOM_PRT_V1_Type*)(CY_HSIOM_BASE + (HSIOM_PRT_SECTION_SIZE * portNum));
 697:Generated_Source\PSoC6\pdl\drivers/peripheral/gpio/cy_gpio.h **** 
 698:Generated_Source\PSoC6\pdl\drivers/peripheral/gpio/cy_gpio.h ****     if(pinNum < CY_GPIO_PRT_HALF)
 699:Generated_Source\PSoC6\pdl\drivers/peripheral/gpio/cy_gpio.h ****     {
 700:Generated_Source\PSoC6\pdl\drivers/peripheral/gpio/cy_gpio.h ****         returnValue = (HSIOM_PRT_PORT_SEL0(portAddrHSIOM) >> (pinNum << CY_GPIO_HSIOM_OFFSET)) & CY
 701:Generated_Source\PSoC6\pdl\drivers/peripheral/gpio/cy_gpio.h ****     }
 702:Generated_Source\PSoC6\pdl\drivers/peripheral/gpio/cy_gpio.h ****     else
 703:Generated_Source\PSoC6\pdl\drivers/peripheral/gpio/cy_gpio.h ****     {
 704:Generated_Source\PSoC6\pdl\drivers/peripheral/gpio/cy_gpio.h ****         pinNum -= CY_GPIO_PRT_HALF;
 705:Generated_Source\PSoC6\pdl\drivers/peripheral/gpio/cy_gpio.h ****         returnValue = (HSIOM_PRT_PORT_SEL1(portAddrHSIOM) >> (pinNum << CY_GPIO_HSIOM_OFFSET)) & CY
 706:Generated_Source\PSoC6\pdl\drivers/peripheral/gpio/cy_gpio.h ****     }
 707:Generated_Source\PSoC6\pdl\drivers/peripheral/gpio/cy_gpio.h **** 
 708:Generated_Source\PSoC6\pdl\drivers/peripheral/gpio/cy_gpio.h ****     return (en_hsiom_sel_t)returnValue;
 709:Generated_Source\PSoC6\pdl\drivers/peripheral/gpio/cy_gpio.h **** }
 710:Generated_Source\PSoC6\pdl\drivers/peripheral/gpio/cy_gpio.h **** 
 711:Generated_Source\PSoC6\pdl\drivers/peripheral/gpio/cy_gpio.h **** 
 712:Generated_Source\PSoC6\pdl\drivers/peripheral/gpio/cy_gpio.h **** /*******************************************************************************
 713:Generated_Source\PSoC6\pdl\drivers/peripheral/gpio/cy_gpio.h **** * Function Name: Cy_GPIO_PortToAddr
 714:Generated_Source\PSoC6\pdl\drivers/peripheral/gpio/cy_gpio.h **** ****************************************************************************//**
 715:Generated_Source\PSoC6\pdl\drivers/peripheral/gpio/cy_gpio.h **** *
 716:Generated_Source\PSoC6\pdl\drivers/peripheral/gpio/cy_gpio.h **** * Retrieves the port address based on the given port number.
 717:Generated_Source\PSoC6\pdl\drivers/peripheral/gpio/cy_gpio.h **** *
 718:Generated_Source\PSoC6\pdl\drivers/peripheral/gpio/cy_gpio.h **** * This is a helper function to calculate the port base address when given a port
 719:Generated_Source\PSoC6\pdl\drivers/peripheral/gpio/cy_gpio.h **** * number. It is to be used when pin access needs to be calculated at runtime.
 720:Generated_Source\PSoC6\pdl\drivers/peripheral/gpio/cy_gpio.h **** *
 721:Generated_Source\PSoC6\pdl\drivers/peripheral/gpio/cy_gpio.h **** * \param portNum
 722:Generated_Source\PSoC6\pdl\drivers/peripheral/gpio/cy_gpio.h **** * Port number
 723:Generated_Source\PSoC6\pdl\drivers/peripheral/gpio/cy_gpio.h **** *
 724:Generated_Source\PSoC6\pdl\drivers/peripheral/gpio/cy_gpio.h **** * \return
 725:Generated_Source\PSoC6\pdl\drivers/peripheral/gpio/cy_gpio.h **** * Base address of the port register structure
 726:Generated_Source\PSoC6\pdl\drivers/peripheral/gpio/cy_gpio.h **** *
 727:Generated_Source\PSoC6\pdl\drivers/peripheral/gpio/cy_gpio.h **** * \funcusage
 728:Generated_Source\PSoC6\pdl\drivers/peripheral/gpio/cy_gpio.h **** * \snippet gpio/gpio_v1_10_sut_01.cydsn/main_cm4.c snippet_Cy_GPIO_PortToAddr
ARM GAS  C:\Users\jlabe\AppData\Local\Temp\ccJbzXZ1.s 			page 47


 729:Generated_Source\PSoC6\pdl\drivers/peripheral/gpio/cy_gpio.h **** *
 730:Generated_Source\PSoC6\pdl\drivers/peripheral/gpio/cy_gpio.h **** *******************************************************************************/
 731:Generated_Source\PSoC6\pdl\drivers/peripheral/gpio/cy_gpio.h **** __STATIC_INLINE GPIO_PRT_Type* Cy_GPIO_PortToAddr(uint32_t portNum)
 732:Generated_Source\PSoC6\pdl\drivers/peripheral/gpio/cy_gpio.h **** {
 733:Generated_Source\PSoC6\pdl\drivers/peripheral/gpio/cy_gpio.h ****     GPIO_PRT_Type* portBase;
 734:Generated_Source\PSoC6\pdl\drivers/peripheral/gpio/cy_gpio.h ****     
 735:Generated_Source\PSoC6\pdl\drivers/peripheral/gpio/cy_gpio.h ****     if(portNum < (uint32_t)IOSS_GPIO_GPIO_PORT_NR)
 736:Generated_Source\PSoC6\pdl\drivers/peripheral/gpio/cy_gpio.h ****     {
 737:Generated_Source\PSoC6\pdl\drivers/peripheral/gpio/cy_gpio.h ****         portBase = (GPIO_PRT_Type *)(CY_GPIO_BASE + (GPIO_PRT_SECTION_SIZE * portNum));
 738:Generated_Source\PSoC6\pdl\drivers/peripheral/gpio/cy_gpio.h ****     }
 739:Generated_Source\PSoC6\pdl\drivers/peripheral/gpio/cy_gpio.h ****     else
 740:Generated_Source\PSoC6\pdl\drivers/peripheral/gpio/cy_gpio.h ****     {
 741:Generated_Source\PSoC6\pdl\drivers/peripheral/gpio/cy_gpio.h ****         /* Error: Return default base address */
 742:Generated_Source\PSoC6\pdl\drivers/peripheral/gpio/cy_gpio.h ****         portBase = (GPIO_PRT_Type *)(CY_GPIO_BASE);
 743:Generated_Source\PSoC6\pdl\drivers/peripheral/gpio/cy_gpio.h ****     }
 744:Generated_Source\PSoC6\pdl\drivers/peripheral/gpio/cy_gpio.h **** 
 745:Generated_Source\PSoC6\pdl\drivers/peripheral/gpio/cy_gpio.h ****     return (portBase);
 746:Generated_Source\PSoC6\pdl\drivers/peripheral/gpio/cy_gpio.h **** }
 747:Generated_Source\PSoC6\pdl\drivers/peripheral/gpio/cy_gpio.h **** 
 748:Generated_Source\PSoC6\pdl\drivers/peripheral/gpio/cy_gpio.h **** /** \} group_gpio_functions_init */
 749:Generated_Source\PSoC6\pdl\drivers/peripheral/gpio/cy_gpio.h **** 
 750:Generated_Source\PSoC6\pdl\drivers/peripheral/gpio/cy_gpio.h **** /**
 751:Generated_Source\PSoC6\pdl\drivers/peripheral/gpio/cy_gpio.h **** * \addtogroup group_gpio_functions_gpio
 752:Generated_Source\PSoC6\pdl\drivers/peripheral/gpio/cy_gpio.h **** * \{
 753:Generated_Source\PSoC6\pdl\drivers/peripheral/gpio/cy_gpio.h **** */
 754:Generated_Source\PSoC6\pdl\drivers/peripheral/gpio/cy_gpio.h **** 
 755:Generated_Source\PSoC6\pdl\drivers/peripheral/gpio/cy_gpio.h **** /*******************************************************************************
 756:Generated_Source\PSoC6\pdl\drivers/peripheral/gpio/cy_gpio.h **** * Function Name: Cy_GPIO_Read
 757:Generated_Source\PSoC6\pdl\drivers/peripheral/gpio/cy_gpio.h **** ****************************************************************************//**
 758:Generated_Source\PSoC6\pdl\drivers/peripheral/gpio/cy_gpio.h **** *
 759:Generated_Source\PSoC6\pdl\drivers/peripheral/gpio/cy_gpio.h **** * Reads the current logic level on the input buffer of the pin.
 760:Generated_Source\PSoC6\pdl\drivers/peripheral/gpio/cy_gpio.h **** *
 761:Generated_Source\PSoC6\pdl\drivers/peripheral/gpio/cy_gpio.h **** * \param base
 762:Generated_Source\PSoC6\pdl\drivers/peripheral/gpio/cy_gpio.h **** * Pointer to the pin's port register base address
 763:Generated_Source\PSoC6\pdl\drivers/peripheral/gpio/cy_gpio.h **** *
 764:Generated_Source\PSoC6\pdl\drivers/peripheral/gpio/cy_gpio.h **** * \param pinNum
 765:Generated_Source\PSoC6\pdl\drivers/peripheral/gpio/cy_gpio.h **** * Position of the pin bit-field within the port register.
 766:Generated_Source\PSoC6\pdl\drivers/peripheral/gpio/cy_gpio.h **** * Bit position 8 is the routed pin through the port glitch filter.
 767:Generated_Source\PSoC6\pdl\drivers/peripheral/gpio/cy_gpio.h **** *
 768:Generated_Source\PSoC6\pdl\drivers/peripheral/gpio/cy_gpio.h **** * \return
 769:Generated_Source\PSoC6\pdl\drivers/peripheral/gpio/cy_gpio.h **** * Logic level present on the pin
 770:Generated_Source\PSoC6\pdl\drivers/peripheral/gpio/cy_gpio.h **** *
 771:Generated_Source\PSoC6\pdl\drivers/peripheral/gpio/cy_gpio.h **** * \funcusage
 772:Generated_Source\PSoC6\pdl\drivers/peripheral/gpio/cy_gpio.h **** * \snippet gpio/gpio_v1_10_sut_01.cydsn/main_cm4.c snippet_Cy_GPIO_Read
 773:Generated_Source\PSoC6\pdl\drivers/peripheral/gpio/cy_gpio.h **** *
 774:Generated_Source\PSoC6\pdl\drivers/peripheral/gpio/cy_gpio.h **** *******************************************************************************/
 775:Generated_Source\PSoC6\pdl\drivers/peripheral/gpio/cy_gpio.h **** __STATIC_INLINE uint32_t Cy_GPIO_Read(GPIO_PRT_Type* base, uint32_t pinNum)
 776:Generated_Source\PSoC6\pdl\drivers/peripheral/gpio/cy_gpio.h **** {
 777:Generated_Source\PSoC6\pdl\drivers/peripheral/gpio/cy_gpio.h ****     CY_ASSERT_L2(CY_GPIO_IS_FILTER_PIN_VALID(pinNum));
 778:Generated_Source\PSoC6\pdl\drivers/peripheral/gpio/cy_gpio.h ****     
 779:Generated_Source\PSoC6\pdl\drivers/peripheral/gpio/cy_gpio.h ****     return (GPIO_PRT_IN(base) >> (pinNum)) & CY_GPIO_IN_MASK;
 920              		.loc 3 779 0 discriminator 1
 921 0014 0C4B     		ldr	r3, .L46
 922 0016 1B69     		ldr	r3, [r3, #16]
 923              	.LVL107:
 924              	.LBE68:
 925              	.LBE67:
ARM GAS  C:\Users\jlabe\AppData\Local\Temp\ccJbzXZ1.s 			page 48


 228:Communication.c ****         MAX30102ReadFIFO32bits(&red_LED_buffer[i], &ir_LED_buffer[i]);
 926              		.loc 1 228 0 discriminator 1
 927 0018 13F0800F 		tst	r3, #128
 928 001c FAD1     		bne	.L43
 229:Communication.c ****         printf("i: %u RED : %u  IR  : %u  \r\n",i,red_LED_buffer[i],ir_LED_buffer[i]);
 929              		.loc 1 229 0
 930 001e A000     		lsls	r0, r4, #2
 931 0020 0DF57A65 		add	r5, sp, #4000
 932 0024 0DEB0001 		add	r1, sp, r0
 933 0028 2844     		add	r0, r0, r5
 934 002a FFF7FEFF 		bl	MAX30102ReadFIFO32bits
 935              	.LVL108:
 230:Communication.c **** 
 936              		.loc 1 230 0
 937 002e 5DF82430 		ldr	r3, [sp, r4, lsl #2]
 938 0032 55F82420 		ldr	r2, [r5, r4, lsl #2]
 939 0036 2146     		mov	r1, r4
 940 0038 0448     		ldr	r0, .L46+4
 941 003a FFF7FEFF 		bl	printf
 942              	.LVL109:
 232:Communication.c ****         
 943              		.loc 1 232 0
 944 003e 0A20     		movs	r0, #10
 945 0040 FFF7FEFF 		bl	vTaskDelay
 946              	.LVL110:
 234:Communication.c **** }
 947              		.loc 1 234 0
 948 0044 E1E7     		b	.L44
 949              	.L47:
 950 0046 00BF     		.align	2
 951              	.L46:
 952 0048 80063240 		.word	1077020288
 953 004c 00000000 		.word	.LC0
 954              		.cfi_endproc
 955              	.LFE702:
 956              		.size	MAX30102Task, .-MAX30102Task
 957              		.section	.text.bmi160Init,"ax",%progbits
 958              		.align	2
 959              		.global	bmi160Init
 960              		.thumb
 961              		.thumb_func
 962              		.type	bmi160Init, %function
 963              	bmi160Init:
 964              	.LFB705:
 269:Communication.c **** 
 270:Communication.c **** void bmi160Init(void)
 271:Communication.c **** {
 965              		.loc 1 271 0
 966              		.cfi_startproc
 967              		@ args = 0, pretend = 0, frame = 0
 968              		@ frame_needed = 0, uses_anonymous_args = 0
 969 0000 10B5     		push	{r4, lr}
 970              		.cfi_def_cfa_offset 8
 971              		.cfi_offset 4, -8
 972              		.cfi_offset 14, -4
 272:Communication.c **** 
 273:Communication.c ****     vTaskDelay(100);
ARM GAS  C:\Users\jlabe\AppData\Local\Temp\ccJbzXZ1.s 			page 49


 973              		.loc 1 273 0
 974 0002 6420     		movs	r0, #100
 975 0004 FFF7FEFF 		bl	vTaskDelay
 976              	.LVL111:
 274:Communication.c **** 
 275:Communication.c ****   /* BMI160 */
 276:Communication.c ****     bmi160Dev.read = (bmi160_com_fptr_t)BMI160BurstRead;
 977              		.loc 1 276 0
 978 0008 0C4C     		ldr	r4, .L50
 979 000a 0D4B     		ldr	r3, .L50+4
 980 000c E361     		str	r3, [r4, #28]
 277:Communication.c ****     bmi160Dev.write = (bmi160_com_fptr_t)BMI160BurstWrite;
 981              		.loc 1 277 0
 982 000e 0D4B     		ldr	r3, .L50+8
 983 0010 2362     		str	r3, [r4, #32]
 278:Communication.c ****     bmi160Dev.delay_ms = (bmi160_delay_fptr_t)vTaskDelay;
 984              		.loc 1 278 0
 985 0012 0D4B     		ldr	r3, .L50+12
 986 0014 6362     		str	r3, [r4, #36]
 279:Communication.c ****     bmi160Dev.id = BMI160_I2C_ADDR;  // I2C device address
 987              		.loc 1 279 0
 988 0016 6823     		movs	r3, #104
 989 0018 6370     		strb	r3, [r4, #1]
 280:Communication.c **** 
 281:Communication.c ****     bmi160_init(&bmi160Dev); // initialize the device
 990              		.loc 1 281 0
 991 001a 2046     		mov	r0, r4
 992 001c FFF7FEFF 		bl	bmi160_init
 993              	.LVL112:
 282:Communication.c ****   
 283:Communication.c ****     bmi160Dev.gyro_cfg.bw = BMI160_GYRO_BW_OSR4_MODE;
 994              		.loc 1 283 0
 995 0020 0023     		movs	r3, #0
 996 0022 E373     		strb	r3, [r4, #15]
 284:Communication.c **** 
 285:Communication.c ****       /* Select the power mode of Gyroscope sensor */
 286:Communication.c ****     bmi160Dev.gyro_cfg.power = BMI160_GYRO_NORMAL_MODE;
 997              		.loc 1 286 0
 998 0024 1523     		movs	r3, #21
 999 0026 2373     		strb	r3, [r4, #12]
 287:Communication.c **** 
 288:Communication.c ****     bmi160Dev.accel_cfg.power = BMI160_ACCEL_NORMAL_MODE;
 1000              		.loc 1 288 0
 1001 0028 1123     		movs	r3, #17
 1002 002a 2371     		strb	r3, [r4, #4]
 289:Communication.c **** 
 290:Communication.c ****       /* Set the sensor configuration */
 291:Communication.c ****     bmi160_set_sens_conf(&bmi160Dev);
 1003              		.loc 1 291 0
 1004 002c 2046     		mov	r0, r4
 1005 002e FFF7FEFF 		bl	bmi160_set_sens_conf
 1006              	.LVL113:
 292:Communication.c ****     bmi160Dev.delay_ms(50);
 1007              		.loc 1 292 0
 1008 0032 636A     		ldr	r3, [r4, #36]
 1009 0034 3220     		movs	r0, #50
 1010 0036 9847     		blx	r3
ARM GAS  C:\Users\jlabe\AppData\Local\Temp\ccJbzXZ1.s 			page 50


 1011              	.LVL114:
 1012 0038 10BD     		pop	{r4, pc}
 1013              	.L51:
 1014 003a 00BF     		.align	2
 1015              	.L50:
 1016 003c 00000000 		.word	bmi160Dev
 1017 0040 00000000 		.word	BMI160BurstRead
 1018 0044 00000000 		.word	BMI160BurstWrite
 1019 0048 00000000 		.word	vTaskDelay
 1020              		.cfi_endproc
 1021              	.LFE705:
 1022              		.size	bmi160Init, .-bmi160Init
 1023              		.global	__aeabi_i2d
 1024              		.global	__aeabi_dadd
 1025              		.global	__aeabi_dmul
 1026              		.section	.text.motionTask,"ax",%progbits
 1027              		.align	2
 1028              		.global	motionTask
 1029              		.thumb
 1030              		.thumb_func
 1031              		.type	motionTask, %function
 1032              	motionTask:
 1033              	.LFB706:
 293:Communication.c **** }
 294:Communication.c **** 
 295:Communication.c **** // 32768 = 2g
 296:Communication.c **** #define MAXACCEL (32768/2)
 297:Communication.c **** 
 298:Communication.c **** void motionTask(void *arg)
 299:Communication.c **** {
 1034              		.loc 1 299 0
 1035              		.cfi_startproc
 1036              		@ args = 0, pretend = 0, frame = 16
 1037              		@ frame_needed = 0, uses_anonymous_args = 0
 1038              	.LVL115:
 1039 0000 F0B5     		push	{r4, r5, r6, r7, lr}
 1040              		.cfi_def_cfa_offset 20
 1041              		.cfi_offset 4, -20
 1042              		.cfi_offset 5, -16
 1043              		.cfi_offset 6, -12
 1044              		.cfi_offset 7, -8
 1045              		.cfi_offset 14, -4
 1046 0002 85B0     		sub	sp, sp, #20
 1047              		.cfi_def_cfa_offset 40
 300:Communication.c ****     (void)arg;
 301:Communication.c ****     bmi160Init();
 1048              		.loc 1 301 0
 1049 0004 FFF7FEFF 		bl	bmi160Init
 1050              	.LVL116:
 1051              	.L53:
 302:Communication.c ****     struct bmi160_sensor_data acc;
 303:Communication.c ****     
 304:Communication.c ****     double acceleration;
 305:Communication.c ****     
 306:Communication.c ****     while(1)
 307:Communication.c ****     {
 308:Communication.c ****         bmi160_get_sensor_data(BMI160_ACCEL_ONLY, &acc, NULL, &bmi160Dev);
ARM GAS  C:\Users\jlabe\AppData\Local\Temp\ccJbzXZ1.s 			page 51


 1052              		.loc 1 308 0 discriminator 1
 1053 0008 204B     		ldr	r3, .L55
 1054 000a 0022     		movs	r2, #0
 1055 000c 01A9     		add	r1, sp, #4
 1056 000e 0120     		movs	r0, #1
 1057 0010 FFF7FEFF 		bl	bmi160_get_sensor_data
 1058              	.LVL117:
 309:Communication.c ****     
 310:Communication.c ****         acceleration = sqrt(pow(acc.x,2)+pow(acc.y,2)+pow(acc.z,2))/MAXACCEL;
 1059              		.loc 1 310 0 discriminator 1
 1060 0014 0024     		movs	r4, #0
 1061 0016 4FF08045 		mov	r5, #1073741824
 1062 001a BDF90400 		ldrsh	r0, [sp, #4]
 1063 001e FFF7FEFF 		bl	__aeabi_i2d
 1064              	.LVL118:
 1065 0022 2246     		mov	r2, r4
 1066 0024 2B46     		mov	r3, r5
 1067 0026 FFF7FEFF 		bl	pow
 1068              	.LVL119:
 1069 002a 0646     		mov	r6, r0
 1070 002c 0F46     		mov	r7, r1
 1071 002e BDF90600 		ldrsh	r0, [sp, #6]
 1072 0032 FFF7FEFF 		bl	__aeabi_i2d
 1073              	.LVL120:
 1074 0036 2246     		mov	r2, r4
 1075 0038 2B46     		mov	r3, r5
 1076 003a FFF7FEFF 		bl	pow
 1077              	.LVL121:
 1078 003e 0246     		mov	r2, r0
 1079 0040 0B46     		mov	r3, r1
 1080 0042 3046     		mov	r0, r6
 1081 0044 3946     		mov	r1, r7
 1082 0046 FFF7FEFF 		bl	__aeabi_dadd
 1083              	.LVL122:
 1084 004a 0646     		mov	r6, r0
 1085 004c 0F46     		mov	r7, r1
 1086 004e BDF90800 		ldrsh	r0, [sp, #8]
 1087 0052 FFF7FEFF 		bl	__aeabi_i2d
 1088              	.LVL123:
 1089 0056 2246     		mov	r2, r4
 1090 0058 2B46     		mov	r3, r5
 1091 005a FFF7FEFF 		bl	pow
 1092              	.LVL124:
 1093 005e 0446     		mov	r4, r0
 1094 0060 0D46     		mov	r5, r1
 1095 0062 2246     		mov	r2, r4
 1096 0064 2B46     		mov	r3, r5
 1097 0066 3046     		mov	r0, r6
 1098 0068 3946     		mov	r1, r7
 1099 006a FFF7FEFF 		bl	__aeabi_dadd
 1100              	.LVL125:
 1101 006e FFF7FEFF 		bl	sqrt
 1102              	.LVL126:
 1103 0072 0022     		movs	r2, #0
 1104 0074 064B     		ldr	r3, .L55+4
 1105 0076 FFF7FEFF 		bl	__aeabi_dmul
 1106              	.LVL127:
ARM GAS  C:\Users\jlabe\AppData\Local\Temp\ccJbzXZ1.s 			page 52


 311:Communication.c ****         
 312:Communication.c ****         printf("ACC = %f\r\n",acceleration);
 1107              		.loc 1 312 0 discriminator 1
 1108 007a 0246     		mov	r2, r0
 1109 007c 0B46     		mov	r3, r1
 1110 007e 0548     		ldr	r0, .L55+8
 1111              	.LVL128:
 1112 0080 FFF7FEFF 		bl	printf
 1113              	.LVL129:
 313:Communication.c ****         vTaskDelay(pdMS_TO_TICKS(200));
 1114              		.loc 1 313 0 discriminator 1
 1115 0084 C820     		movs	r0, #200
 1116 0086 FFF7FEFF 		bl	vTaskDelay
 1117              	.LVL130:
 1118 008a BDE7     		b	.L53
 1119              	.L56:
 1120              		.align	2
 1121              	.L55:
 1122 008c 00000000 		.word	bmi160Dev
 1123 0090 0000103F 		.word	1058013184
 1124 0094 20000000 		.word	.LC1
 1125              		.cfi_endproc
 1126              	.LFE706:
 1127              		.size	motionTask, .-motionTask
 1128              		.comm	bmi160Dev,40,4
 1129              		.section	.rodata.str1.4,"aMS",%progbits,1
 1130              		.align	2
 1131              	.LC0:
 1132 0000 693A2025 		.ascii	"i: %u RED : %u  IR  : %u  \015\012\000"
 1132      75205245 
 1132      44203A20 
 1132      25752020 
 1132      49522020 
 1133 001d 000000   		.space	3
 1134              	.LC1:
 1135 0020 41434320 		.ascii	"ACC = %f\015\012\000"
 1135      3D202566 
 1135      0D0A00
 1136              		.text
 1137              	.Letext0:
 1138              		.file 4 "c:\\program files (x86)\\cypress\\psoc creator\\4.4\\psoc creator\\import\\gnu\\arm\\5.4.
 1139              		.file 5 "c:\\program files (x86)\\cypress\\psoc creator\\4.4\\psoc creator\\import\\gnu\\arm\\5.4.
 1140              		.file 6 "Generated_Source\\PSoC6\\pdl\\devices/psoc6/include/ip/cyip_gpio.h"
 1141              		.file 7 "Generated_Source\\PSoC6\\pdl\\devices/psoc6/include/ip/cyip_scb.h"
 1142              		.file 8 "Generated_Source\\PSoC6\\pdl\\devices/psoc6/include/psoc6_01_config.h"
 1143              		.file 9 "Generated_Source\\PSoC6\\pdl\\drivers/peripheral/device/cy_device.h"
 1144              		.file 10 "Generated_Source\\PSoC6\\pdl\\drivers/peripheral/syslib/cy_syslib.h"
 1145              		.file 11 "Generated_Source\\PSoC6\\pdl\\drivers/peripheral/scb/cy_scb_i2c.h"
 1146              		.file 12 "Generated_Source\\PSoC6\\pdl\\drivers/peripheral/scb/cy_scb_spi.h"
 1147              		.file 13 "Generated_Source\\PSoC6\\pdl\\drivers/peripheral/scb/cy_scb_uart.h"
 1148              		.file 14 "Generated_Source\\PSoC6\\pdl\\drivers/peripheral/tcpwm/cy_tcpwm_counter.h"
 1149              		.file 15 "Generated_Source\\PSoC6\\pdl\\drivers/peripheral/tcpwm/cy_tcpwm_pwm.h"
 1150              		.file 16 "Generated_Source\\PSoC6\\pdl\\rtos/FreeRTOS/10.0.1/Source/portable/GCC/CM4F/portmacro.h"
 1151              		.file 17 "bmi160_defs.h"
 1152              		.file 18 ".\\CMSIS\\Core\\Include/core_cm4.h"
 1153              		.file 19 "Generated_Source\\PSoC6/PWM.h"
 1154              		.file 20 "Generated_Source\\PSoC6/CY_EINK_Timer.h"
ARM GAS  C:\Users\jlabe\AppData\Local\Temp\ccJbzXZ1.s 			page 53


 1155              		.file 21 "Generated_Source\\PSoC6/CY_EINK_SPIM.h"
 1156              		.file 22 "Generated_Source\\PSoC6/UART_1.h"
 1157              		.file 23 "Generated_Source\\PSoC6/I2C_2.h"
 1158              		.file 24 "c:\\program files (x86)\\cypress\\psoc creator\\4.4\\psoc creator\\import\\gnu\\arm\\5.4
 1159              		.file 25 "Generated_Source\\PSoC6\\pdl\\rtos/FreeRTOS/10.0.1/Source/include/task.h"
 1160              		.file 26 "bmi160.h"
 1161              		.file 27 "c:\\program files (x86)\\cypress\\psoc creator\\4.4\\psoc creator\\import\\gnu\\arm\\5.4
 1162              		.section	.debug_info,"",%progbits
 1163              	.Ldebug_info0:
 1164 0000 2C230000 		.4byte	0x232c
 1165 0004 0400     		.2byte	0x4
 1166 0006 00000000 		.4byte	.Ldebug_abbrev0
 1167 000a 04       		.byte	0x4
 1168 000b 01       		.uleb128 0x1
 1169 000c 50040000 		.4byte	.LASF415
 1170 0010 0C       		.byte	0xc
 1171 0011 100C0000 		.4byte	.LASF416
 1172 0015 8C000000 		.4byte	.LASF417
 1173 0019 00000000 		.4byte	.Ldebug_ranges0+0
 1174 001d 00000000 		.4byte	0
 1175 0021 00000000 		.4byte	.Ldebug_line0
 1176 0025 02       		.uleb128 0x2
 1177 0026 02       		.byte	0x2
 1178 0027 05       		.byte	0x5
 1179 0028 180E0000 		.4byte	.LASF0
 1180 002c 03       		.uleb128 0x3
 1181 002d 6F130000 		.4byte	.LASF2
 1182 0031 04       		.byte	0x4
 1183 0032 1B       		.byte	0x1b
 1184 0033 37000000 		.4byte	0x37
 1185 0037 02       		.uleb128 0x2
 1186 0038 01       		.byte	0x1
 1187 0039 06       		.byte	0x6
 1188 003a 48160000 		.4byte	.LASF1
 1189 003e 03       		.uleb128 0x3
 1190 003f A3120000 		.4byte	.LASF3
 1191 0043 04       		.byte	0x4
 1192 0044 1D       		.byte	0x1d
 1193 0045 49000000 		.4byte	0x49
 1194 0049 02       		.uleb128 0x2
 1195 004a 01       		.byte	0x1
 1196 004b 08       		.byte	0x8
 1197 004c FD140000 		.4byte	.LASF4
 1198 0050 03       		.uleb128 0x3
 1199 0051 47050000 		.4byte	.LASF5
 1200 0055 04       		.byte	0x4
 1201 0056 29       		.byte	0x29
 1202 0057 25000000 		.4byte	0x25
 1203 005b 03       		.uleb128 0x3
 1204 005c 490A0000 		.4byte	.LASF6
 1205 0060 04       		.byte	0x4
 1206 0061 2B       		.byte	0x2b
 1207 0062 66000000 		.4byte	0x66
 1208 0066 02       		.uleb128 0x2
 1209 0067 02       		.byte	0x2
 1210 0068 07       		.byte	0x7
 1211 0069 300F0000 		.4byte	.LASF7
ARM GAS  C:\Users\jlabe\AppData\Local\Temp\ccJbzXZ1.s 			page 54


 1212 006d 03       		.uleb128 0x3
 1213 006e B7020000 		.4byte	.LASF8
 1214 0072 04       		.byte	0x4
 1215 0073 3F       		.byte	0x3f
 1216 0074 78000000 		.4byte	0x78
 1217 0078 02       		.uleb128 0x2
 1218 0079 04       		.byte	0x4
 1219 007a 05       		.byte	0x5
 1220 007b 30110000 		.4byte	.LASF9
 1221 007f 03       		.uleb128 0x3
 1222 0080 0B150000 		.4byte	.LASF10
 1223 0084 04       		.byte	0x4
 1224 0085 41       		.byte	0x41
 1225 0086 8A000000 		.4byte	0x8a
 1226 008a 02       		.uleb128 0x2
 1227 008b 04       		.byte	0x4
 1228 008c 07       		.byte	0x7
 1229 008d 0B140000 		.4byte	.LASF11
 1230 0091 02       		.uleb128 0x2
 1231 0092 08       		.byte	0x8
 1232 0093 05       		.byte	0x5
 1233 0094 550B0000 		.4byte	.LASF12
 1234 0098 02       		.uleb128 0x2
 1235 0099 08       		.byte	0x8
 1236 009a 07       		.byte	0x7
 1237 009b FA060000 		.4byte	.LASF13
 1238 009f 04       		.uleb128 0x4
 1239 00a0 04       		.byte	0x4
 1240 00a1 05       		.byte	0x5
 1241 00a2 696E7400 		.ascii	"int\000"
 1242 00a6 02       		.uleb128 0x2
 1243 00a7 04       		.byte	0x4
 1244 00a8 07       		.byte	0x7
 1245 00a9 19020000 		.4byte	.LASF14
 1246 00ad 03       		.uleb128 0x3
 1247 00ae 41060000 		.4byte	.LASF15
 1248 00b2 05       		.byte	0x5
 1249 00b3 14       		.byte	0x14
 1250 00b4 2C000000 		.4byte	0x2c
 1251 00b8 03       		.uleb128 0x3
 1252 00b9 920B0000 		.4byte	.LASF16
 1253 00bd 05       		.byte	0x5
 1254 00be 18       		.byte	0x18
 1255 00bf 3E000000 		.4byte	0x3e
 1256 00c3 03       		.uleb128 0x3
 1257 00c4 DF060000 		.4byte	.LASF17
 1258 00c8 05       		.byte	0x5
 1259 00c9 20       		.byte	0x20
 1260 00ca 50000000 		.4byte	0x50
 1261 00ce 03       		.uleb128 0x3
 1262 00cf 590F0000 		.4byte	.LASF18
 1263 00d3 05       		.byte	0x5
 1264 00d4 24       		.byte	0x24
 1265 00d5 5B000000 		.4byte	0x5b
 1266 00d9 03       		.uleb128 0x3
 1267 00da F3020000 		.4byte	.LASF19
 1268 00de 05       		.byte	0x5
ARM GAS  C:\Users\jlabe\AppData\Local\Temp\ccJbzXZ1.s 			page 55


 1269 00df 2C       		.byte	0x2c
 1270 00e0 6D000000 		.4byte	0x6d
 1271 00e4 03       		.uleb128 0x3
 1272 00e5 38060000 		.4byte	.LASF20
 1273 00e9 05       		.byte	0x5
 1274 00ea 30       		.byte	0x30
 1275 00eb 7F000000 		.4byte	0x7f
 1276 00ef 02       		.uleb128 0x2
 1277 00f0 04       		.byte	0x4
 1278 00f1 07       		.byte	0x7
 1279 00f2 53100000 		.4byte	.LASF21
 1280 00f6 05       		.uleb128 0x5
 1281 00f7 E4000000 		.4byte	0xe4
 1282 00fb 06       		.uleb128 0x6
 1283 00fc F6000000 		.4byte	0xf6
 1284 0100 07       		.uleb128 0x7
 1285 0101 FB000000 		.4byte	0xfb
 1286 0105 10010000 		.4byte	0x110
 1287 0109 08       		.uleb128 0x8
 1288 010a EF000000 		.4byte	0xef
 1289 010e 03       		.byte	0x3
 1290 010f 00       		.byte	0
 1291 0110 07       		.uleb128 0x7
 1292 0111 FB000000 		.4byte	0xfb
 1293 0115 20010000 		.4byte	0x120
 1294 0119 08       		.uleb128 0x8
 1295 011a EF000000 		.4byte	0xef
 1296 011e 05       		.byte	0x5
 1297 011f 00       		.byte	0
 1298 0120 07       		.uleb128 0x7
 1299 0121 FB000000 		.4byte	0xfb
 1300 0125 30010000 		.4byte	0x130
 1301 0129 08       		.uleb128 0x8
 1302 012a EF000000 		.4byte	0xef
 1303 012e 7F       		.byte	0x7f
 1304 012f 00       		.byte	0
 1305 0130 07       		.uleb128 0x7
 1306 0131 FB000000 		.4byte	0xfb
 1307 0135 40010000 		.4byte	0x140
 1308 0139 08       		.uleb128 0x8
 1309 013a EF000000 		.4byte	0xef
 1310 013e 0C       		.byte	0xc
 1311 013f 00       		.byte	0
 1312 0140 07       		.uleb128 0x7
 1313 0141 FB000000 		.4byte	0xfb
 1314 0145 50010000 		.4byte	0x150
 1315 0149 08       		.uleb128 0x8
 1316 014a EF000000 		.4byte	0xef
 1317 014e 0F       		.byte	0xf
 1318 014f 00       		.byte	0
 1319 0150 07       		.uleb128 0x7
 1320 0151 FB000000 		.4byte	0xfb
 1321 0155 60010000 		.4byte	0x160
 1322 0159 08       		.uleb128 0x8
 1323 015a EF000000 		.4byte	0xef
 1324 015e 1E       		.byte	0x1e
 1325 015f 00       		.byte	0
ARM GAS  C:\Users\jlabe\AppData\Local\Temp\ccJbzXZ1.s 			page 56


 1326 0160 07       		.uleb128 0x7
 1327 0161 FB000000 		.4byte	0xfb
 1328 0165 70010000 		.4byte	0x170
 1329 0169 08       		.uleb128 0x8
 1330 016a EF000000 		.4byte	0xef
 1331 016e 02       		.byte	0x2
 1332 016f 00       		.byte	0
 1333 0170 07       		.uleb128 0x7
 1334 0171 FB000000 		.4byte	0xfb
 1335 0175 80010000 		.4byte	0x180
 1336 0179 08       		.uleb128 0x8
 1337 017a EF000000 		.4byte	0xef
 1338 017e 0B       		.byte	0xb
 1339 017f 00       		.byte	0
 1340 0180 09       		.uleb128 0x9
 1341 0181 80       		.byte	0x80
 1342 0182 06       		.byte	0x6
 1343 0183 22       		.byte	0x22
 1344 0184 54020000 		.4byte	0x254
 1345 0188 0A       		.uleb128 0xa
 1346 0189 4F555400 		.ascii	"OUT\000"
 1347 018d 06       		.byte	0x6
 1348 018e 23       		.byte	0x23
 1349 018f F6000000 		.4byte	0xf6
 1350 0193 00       		.byte	0
 1351 0194 0B       		.uleb128 0xb
 1352 0195 CB060000 		.4byte	.LASF22
 1353 0199 06       		.byte	0x6
 1354 019a 24       		.byte	0x24
 1355 019b F6000000 		.4byte	0xf6
 1356 019f 04       		.byte	0x4
 1357 01a0 0B       		.uleb128 0xb
 1358 01a1 79060000 		.4byte	.LASF23
 1359 01a5 06       		.byte	0x6
 1360 01a6 25       		.byte	0x25
 1361 01a7 F6000000 		.4byte	0xf6
 1362 01ab 08       		.byte	0x8
 1363 01ac 0B       		.uleb128 0xb
 1364 01ad 86120000 		.4byte	.LASF24
 1365 01b1 06       		.byte	0x6
 1366 01b2 26       		.byte	0x26
 1367 01b3 F6000000 		.4byte	0xf6
 1368 01b7 0C       		.byte	0xc
 1369 01b8 0A       		.uleb128 0xa
 1370 01b9 494E00   		.ascii	"IN\000"
 1371 01bc 06       		.byte	0x6
 1372 01bd 27       		.byte	0x27
 1373 01be FB000000 		.4byte	0xfb
 1374 01c2 10       		.byte	0x10
 1375 01c3 0B       		.uleb128 0xb
 1376 01c4 74060000 		.4byte	.LASF25
 1377 01c8 06       		.byte	0x6
 1378 01c9 28       		.byte	0x28
 1379 01ca F6000000 		.4byte	0xf6
 1380 01ce 14       		.byte	0x14
 1381 01cf 0B       		.uleb128 0xb
 1382 01d0 1D120000 		.4byte	.LASF26
ARM GAS  C:\Users\jlabe\AppData\Local\Temp\ccJbzXZ1.s 			page 57


 1383 01d4 06       		.byte	0x6
 1384 01d5 29       		.byte	0x29
 1385 01d6 F6000000 		.4byte	0xf6
 1386 01da 18       		.byte	0x18
 1387 01db 0B       		.uleb128 0xb
 1388 01dc 8F130000 		.4byte	.LASF27
 1389 01e0 06       		.byte	0x6
 1390 01e1 2A       		.byte	0x2a
 1391 01e2 FB000000 		.4byte	0xfb
 1392 01e6 1C       		.byte	0x1c
 1393 01e7 0B       		.uleb128 0xb
 1394 01e8 9D030000 		.4byte	.LASF28
 1395 01ec 06       		.byte	0x6
 1396 01ed 2B       		.byte	0x2b
 1397 01ee F6000000 		.4byte	0xf6
 1398 01f2 20       		.byte	0x20
 1399 01f3 0B       		.uleb128 0xb
 1400 01f4 3F150000 		.4byte	.LASF29
 1401 01f8 06       		.byte	0x6
 1402 01f9 2C       		.byte	0x2c
 1403 01fa F6000000 		.4byte	0xf6
 1404 01fe 24       		.byte	0x24
 1405 01ff 0A       		.uleb128 0xa
 1406 0200 43464700 		.ascii	"CFG\000"
 1407 0204 06       		.byte	0x6
 1408 0205 2D       		.byte	0x2d
 1409 0206 F6000000 		.4byte	0xf6
 1410 020a 28       		.byte	0x28
 1411 020b 0B       		.uleb128 0xb
 1412 020c C7050000 		.4byte	.LASF30
 1413 0210 06       		.byte	0x6
 1414 0211 2E       		.byte	0x2e
 1415 0212 F6000000 		.4byte	0xf6
 1416 0216 2C       		.byte	0x2c
 1417 0217 0B       		.uleb128 0xb
 1418 0218 26080000 		.4byte	.LASF31
 1419 021c 06       		.byte	0x6
 1420 021d 2F       		.byte	0x2f
 1421 021e F6000000 		.4byte	0xf6
 1422 0222 30       		.byte	0x30
 1423 0223 0B       		.uleb128 0xb
 1424 0224 9B170000 		.4byte	.LASF32
 1425 0228 06       		.byte	0x6
 1426 0229 30       		.byte	0x30
 1427 022a F6000000 		.4byte	0xf6
 1428 022e 34       		.byte	0x34
 1429 022f 0B       		.uleb128 0xb
 1430 0230 1C000000 		.4byte	.LASF33
 1431 0234 06       		.byte	0x6
 1432 0235 31       		.byte	0x31
 1433 0236 FB000000 		.4byte	0xfb
 1434 023a 38       		.byte	0x38
 1435 023b 0B       		.uleb128 0xb
 1436 023c AE070000 		.4byte	.LASF34
 1437 0240 06       		.byte	0x6
 1438 0241 32       		.byte	0x32
 1439 0242 F6000000 		.4byte	0xf6
ARM GAS  C:\Users\jlabe\AppData\Local\Temp\ccJbzXZ1.s 			page 58


 1440 0246 3C       		.byte	0x3c
 1441 0247 0B       		.uleb128 0xb
 1442 0248 62170000 		.4byte	.LASF35
 1443 024c 06       		.byte	0x6
 1444 024d 33       		.byte	0x33
 1445 024e 59020000 		.4byte	0x259
 1446 0252 40       		.byte	0x40
 1447 0253 00       		.byte	0
 1448 0254 05       		.uleb128 0x5
 1449 0255 40010000 		.4byte	0x140
 1450 0259 06       		.uleb128 0x6
 1451 025a 54020000 		.4byte	0x254
 1452 025e 03       		.uleb128 0x3
 1453 025f BA110000 		.4byte	.LASF36
 1454 0263 06       		.byte	0x6
 1455 0264 34       		.byte	0x34
 1456 0265 80010000 		.4byte	0x180
 1457 0269 0C       		.uleb128 0xc
 1458 026a 2440     		.2byte	0x4024
 1459 026c 06       		.byte	0x6
 1460 026d 39       		.byte	0x39
 1461 026e F4020000 		.4byte	0x2f4
 1462 0272 0A       		.uleb128 0xa
 1463 0273 50525400 		.ascii	"PRT\000"
 1464 0277 06       		.byte	0x6
 1465 0278 3A       		.byte	0x3a
 1466 0279 F4020000 		.4byte	0x2f4
 1467 027d 00       		.byte	0
 1468 027e 0D       		.uleb128 0xd
 1469 027f D30B0000 		.4byte	.LASF37
 1470 0283 06       		.byte	0x6
 1471 0284 3B       		.byte	0x3b
 1472 0285 FB000000 		.4byte	0xfb
 1473 0289 0040     		.2byte	0x4000
 1474 028b 0D       		.uleb128 0xd
 1475 028c 48150000 		.4byte	.LASF38
 1476 0290 06       		.byte	0x6
 1477 0291 3C       		.byte	0x3c
 1478 0292 FB000000 		.4byte	0xfb
 1479 0296 0440     		.2byte	0x4004
 1480 0298 0D       		.uleb128 0xd
 1481 0299 040C0000 		.4byte	.LASF39
 1482 029d 06       		.byte	0x6
 1483 029e 3D       		.byte	0x3d
 1484 029f FB000000 		.4byte	0xfb
 1485 02a3 0840     		.2byte	0x4008
 1486 02a5 0D       		.uleb128 0xd
 1487 02a6 200C0000 		.4byte	.LASF40
 1488 02aa 06       		.byte	0x6
 1489 02ab 3E       		.byte	0x3e
 1490 02ac FB000000 		.4byte	0xfb
 1491 02b0 0C40     		.2byte	0x400c
 1492 02b2 0D       		.uleb128 0xd
 1493 02b3 E9160000 		.4byte	.LASF41
 1494 02b7 06       		.byte	0x6
 1495 02b8 3F       		.byte	0x3f
 1496 02b9 FB000000 		.4byte	0xfb
ARM GAS  C:\Users\jlabe\AppData\Local\Temp\ccJbzXZ1.s 			page 59


 1497 02bd 1040     		.2byte	0x4010
 1498 02bf 0D       		.uleb128 0xd
 1499 02c0 A9090000 		.4byte	.LASF42
 1500 02c4 06       		.byte	0x6
 1501 02c5 40       		.byte	0x40
 1502 02c6 F6000000 		.4byte	0xf6
 1503 02ca 1440     		.2byte	0x4014
 1504 02cc 0D       		.uleb128 0xd
 1505 02cd 3A160000 		.4byte	.LASF43
 1506 02d1 06       		.byte	0x6
 1507 02d2 41       		.byte	0x41
 1508 02d3 F6000000 		.4byte	0xf6
 1509 02d7 1840     		.2byte	0x4018
 1510 02d9 0D       		.uleb128 0xd
 1511 02da 09020000 		.4byte	.LASF44
 1512 02de 06       		.byte	0x6
 1513 02df 42       		.byte	0x42
 1514 02e0 FB000000 		.4byte	0xfb
 1515 02e4 1C40     		.2byte	0x401c
 1516 02e6 0D       		.uleb128 0xd
 1517 02e7 8D0F0000 		.4byte	.LASF45
 1518 02eb 06       		.byte	0x6
 1519 02ec 43       		.byte	0x43
 1520 02ed F6000000 		.4byte	0xf6
 1521 02f1 2040     		.2byte	0x4020
 1522 02f3 00       		.byte	0
 1523 02f4 07       		.uleb128 0x7
 1524 02f5 5E020000 		.4byte	0x25e
 1525 02f9 04030000 		.4byte	0x304
 1526 02fd 08       		.uleb128 0x8
 1527 02fe EF000000 		.4byte	0xef
 1528 0302 7F       		.byte	0x7f
 1529 0303 00       		.byte	0
 1530 0304 03       		.uleb128 0x3
 1531 0305 53060000 		.4byte	.LASF46
 1532 0309 06       		.byte	0x6
 1533 030a 44       		.byte	0x44
 1534 030b 69020000 		.4byte	0x269
 1535 030f 07       		.uleb128 0x7
 1536 0310 FB000000 		.4byte	0xfb
 1537 0314 1F030000 		.4byte	0x31f
 1538 0318 08       		.uleb128 0x8
 1539 0319 EF000000 		.4byte	0xef
 1540 031d 0A       		.byte	0xa
 1541 031e 00       		.byte	0
 1542 031f 07       		.uleb128 0x7
 1543 0320 FB000000 		.4byte	0xfb
 1544 0324 2F030000 		.4byte	0x32f
 1545 0328 08       		.uleb128 0x8
 1546 0329 EF000000 		.4byte	0xef
 1547 032d 2E       		.byte	0x2e
 1548 032e 00       		.byte	0
 1549 032f 07       		.uleb128 0x7
 1550 0330 FB000000 		.4byte	0xfb
 1551 0334 3F030000 		.4byte	0x33f
 1552 0338 08       		.uleb128 0x8
 1553 0339 EF000000 		.4byte	0xef
ARM GAS  C:\Users\jlabe\AppData\Local\Temp\ccJbzXZ1.s 			page 60


 1554 033d 2D       		.byte	0x2d
 1555 033e 00       		.byte	0
 1556 033f 07       		.uleb128 0x7
 1557 0340 F6000000 		.4byte	0xf6
 1558 0344 50030000 		.4byte	0x350
 1559 0348 0E       		.uleb128 0xe
 1560 0349 EF000000 		.4byte	0xef
 1561 034d FF01     		.2byte	0x1ff
 1562 034f 00       		.byte	0
 1563 0350 07       		.uleb128 0x7
 1564 0351 FB000000 		.4byte	0xfb
 1565 0355 60030000 		.4byte	0x360
 1566 0359 08       		.uleb128 0x8
 1567 035a EF000000 		.4byte	0xef
 1568 035e 62       		.byte	0x62
 1569 035f 00       		.byte	0
 1570 0360 0C       		.uleb128 0xc
 1571 0361 D00F     		.2byte	0xfd0
 1572 0363 07       		.byte	0x7
 1573 0364 21       		.byte	0x21
 1574 0365 CA060000 		.4byte	0x6ca
 1575 0369 0B       		.uleb128 0xb
 1576 036a 5F180000 		.4byte	.LASF47
 1577 036e 07       		.byte	0x7
 1578 036f 22       		.byte	0x22
 1579 0370 F6000000 		.4byte	0xf6
 1580 0374 00       		.byte	0
 1581 0375 0B       		.uleb128 0xb
 1582 0376 54150000 		.4byte	.LASF48
 1583 037a 07       		.byte	0x7
 1584 037b 23       		.byte	0x23
 1585 037c FB000000 		.4byte	0xfb
 1586 0380 04       		.byte	0x4
 1587 0381 0B       		.uleb128 0xb
 1588 0382 11030000 		.4byte	.LASF49
 1589 0386 07       		.byte	0x7
 1590 0387 24       		.byte	0x24
 1591 0388 F6000000 		.4byte	0xf6
 1592 038c 08       		.byte	0x8
 1593 038d 0B       		.uleb128 0xb
 1594 038e 5C010000 		.4byte	.LASF50
 1595 0392 07       		.byte	0x7
 1596 0393 25       		.byte	0x25
 1597 0394 FB000000 		.4byte	0xfb
 1598 0398 0C       		.byte	0xc
 1599 0399 0B       		.uleb128 0xb
 1600 039a 1C000000 		.4byte	.LASF33
 1601 039e 07       		.byte	0x7
 1602 039f 26       		.byte	0x26
 1603 03a0 CF060000 		.4byte	0x6cf
 1604 03a4 10       		.byte	0x10
 1605 03a5 0B       		.uleb128 0xb
 1606 03a6 17130000 		.4byte	.LASF51
 1607 03aa 07       		.byte	0x7
 1608 03ab 27       		.byte	0x27
 1609 03ac F6000000 		.4byte	0xf6
 1610 03b0 20       		.byte	0x20
ARM GAS  C:\Users\jlabe\AppData\Local\Temp\ccJbzXZ1.s 			page 61


 1611 03b1 0B       		.uleb128 0xb
 1612 03b2 DA140000 		.4byte	.LASF52
 1613 03b6 07       		.byte	0x7
 1614 03b7 28       		.byte	0x28
 1615 03b8 FB000000 		.4byte	0xfb
 1616 03bc 24       		.byte	0x24
 1617 03bd 0B       		.uleb128 0xb
 1618 03be 62170000 		.4byte	.LASF35
 1619 03c2 07       		.byte	0x7
 1620 03c3 29       		.byte	0x29
 1621 03c4 D9060000 		.4byte	0x6d9
 1622 03c8 28       		.byte	0x28
 1623 03c9 0B       		.uleb128 0xb
 1624 03ca 66160000 		.4byte	.LASF53
 1625 03ce 07       		.byte	0x7
 1626 03cf 2A       		.byte	0x2a
 1627 03d0 F6000000 		.4byte	0xf6
 1628 03d4 40       		.byte	0x40
 1629 03d5 0B       		.uleb128 0xb
 1630 03d6 0E080000 		.4byte	.LASF54
 1631 03da 07       		.byte	0x7
 1632 03db 2B       		.byte	0x2b
 1633 03dc F6000000 		.4byte	0xf6
 1634 03e0 44       		.byte	0x44
 1635 03e1 0B       		.uleb128 0xb
 1636 03e2 26050000 		.4byte	.LASF55
 1637 03e6 07       		.byte	0x7
 1638 03e7 2C       		.byte	0x2c
 1639 03e8 F6000000 		.4byte	0xf6
 1640 03ec 48       		.byte	0x48
 1641 03ed 0B       		.uleb128 0xb
 1642 03ee 2F120000 		.4byte	.LASF56
 1643 03f2 07       		.byte	0x7
 1644 03f3 2D       		.byte	0x2d
 1645 03f4 FB000000 		.4byte	0xfb
 1646 03f8 4C       		.byte	0x4c
 1647 03f9 0B       		.uleb128 0xb
 1648 03fa 450D0000 		.4byte	.LASF57
 1649 03fe 07       		.byte	0x7
 1650 03ff 2E       		.byte	0x2e
 1651 0400 F6000000 		.4byte	0xf6
 1652 0404 50       		.byte	0x50
 1653 0405 0B       		.uleb128 0xb
 1654 0406 9E100000 		.4byte	.LASF58
 1655 040a 07       		.byte	0x7
 1656 040b 2F       		.byte	0x2f
 1657 040c E3060000 		.4byte	0x6e3
 1658 0410 54       		.byte	0x54
 1659 0411 0B       		.uleb128 0xb
 1660 0412 E8130000 		.4byte	.LASF59
 1661 0416 07       		.byte	0x7
 1662 0417 30       		.byte	0x30
 1663 0418 F6000000 		.4byte	0xf6
 1664 041c 60       		.byte	0x60
 1665 041d 0B       		.uleb128 0xb
 1666 041e 46110000 		.4byte	.LASF60
 1667 0422 07       		.byte	0x7
ARM GAS  C:\Users\jlabe\AppData\Local\Temp\ccJbzXZ1.s 			page 62


 1668 0423 31       		.byte	0x31
 1669 0424 FB000000 		.4byte	0xfb
 1670 0428 64       		.byte	0x64
 1671 0429 0B       		.uleb128 0xb
 1672 042a 0B060000 		.4byte	.LASF61
 1673 042e 07       		.byte	0x7
 1674 042f 32       		.byte	0x32
 1675 0430 F6000000 		.4byte	0xf6
 1676 0434 68       		.byte	0x68
 1677 0435 0B       		.uleb128 0xb
 1678 0436 5C100000 		.4byte	.LASF62
 1679 043a 07       		.byte	0x7
 1680 043b 33       		.byte	0x33
 1681 043c F6000000 		.4byte	0xf6
 1682 0440 6C       		.byte	0x6c
 1683 0441 0B       		.uleb128 0xb
 1684 0442 CE050000 		.4byte	.LASF63
 1685 0446 07       		.byte	0x7
 1686 0447 34       		.byte	0x34
 1687 0448 F6000000 		.4byte	0xf6
 1688 044c 70       		.byte	0x70
 1689 044d 0B       		.uleb128 0xb
 1690 044e A8100000 		.4byte	.LASF64
 1691 0452 07       		.byte	0x7
 1692 0453 35       		.byte	0x35
 1693 0454 ED060000 		.4byte	0x6ed
 1694 0458 74       		.byte	0x74
 1695 0459 0D       		.uleb128 0xd
 1696 045a E9070000 		.4byte	.LASF65
 1697 045e 07       		.byte	0x7
 1698 045f 36       		.byte	0x36
 1699 0460 F6000000 		.4byte	0xf6
 1700 0464 0002     		.2byte	0x200
 1701 0466 0D       		.uleb128 0xd
 1702 0467 C7120000 		.4byte	.LASF66
 1703 046b 07       		.byte	0x7
 1704 046c 37       		.byte	0x37
 1705 046d F6000000 		.4byte	0xf6
 1706 0471 0402     		.2byte	0x204
 1707 0473 0D       		.uleb128 0xd
 1708 0474 EE010000 		.4byte	.LASF67
 1709 0478 07       		.byte	0x7
 1710 0479 38       		.byte	0x38
 1711 047a FB000000 		.4byte	0xfb
 1712 047e 0802     		.2byte	0x208
 1713 0480 0D       		.uleb128 0xd
 1714 0481 B2100000 		.4byte	.LASF68
 1715 0485 07       		.byte	0x7
 1716 0486 39       		.byte	0x39
 1717 0487 F7060000 		.4byte	0x6f7
 1718 048b 0C02     		.2byte	0x20c
 1719 048d 0D       		.uleb128 0xd
 1720 048e D1150000 		.4byte	.LASF69
 1721 0492 07       		.byte	0x7
 1722 0493 3A       		.byte	0x3a
 1723 0494 F6000000 		.4byte	0xf6
 1724 0498 4002     		.2byte	0x240
ARM GAS  C:\Users\jlabe\AppData\Local\Temp\ccJbzXZ1.s 			page 63


 1725 049a 0D       		.uleb128 0xd
 1726 049b BC100000 		.4byte	.LASF70
 1727 049f 07       		.byte	0x7
 1728 04a0 3B       		.byte	0x3b
 1729 04a1 01070000 		.4byte	0x701
 1730 04a5 4402     		.2byte	0x244
 1731 04a7 0D       		.uleb128 0xd
 1732 04a8 9B130000 		.4byte	.LASF71
 1733 04ac 07       		.byte	0x7
 1734 04ad 3C       		.byte	0x3c
 1735 04ae F6000000 		.4byte	0xf6
 1736 04b2 0003     		.2byte	0x300
 1737 04b4 0D       		.uleb128 0xd
 1738 04b5 850B0000 		.4byte	.LASF72
 1739 04b9 07       		.byte	0x7
 1740 04ba 3D       		.byte	0x3d
 1741 04bb F6000000 		.4byte	0xf6
 1742 04bf 0403     		.2byte	0x304
 1743 04c1 0D       		.uleb128 0xd
 1744 04c2 B3150000 		.4byte	.LASF73
 1745 04c6 07       		.byte	0x7
 1746 04c7 3E       		.byte	0x3e
 1747 04c8 FB000000 		.4byte	0xfb
 1748 04cc 0803     		.2byte	0x308
 1749 04ce 0D       		.uleb128 0xd
 1750 04cf C6100000 		.4byte	.LASF74
 1751 04d3 07       		.byte	0x7
 1752 04d4 3F       		.byte	0x3f
 1753 04d5 FB000000 		.4byte	0xfb
 1754 04d9 0C03     		.2byte	0x30c
 1755 04db 0D       		.uleb128 0xd
 1756 04dc 1E090000 		.4byte	.LASF75
 1757 04e0 07       		.byte	0x7
 1758 04e1 40       		.byte	0x40
 1759 04e2 F6000000 		.4byte	0xf6
 1760 04e6 1003     		.2byte	0x310
 1761 04e8 0D       		.uleb128 0xd
 1762 04e9 B7170000 		.4byte	.LASF76
 1763 04ed 07       		.byte	0x7
 1764 04ee 41       		.byte	0x41
 1765 04ef 0B070000 		.4byte	0x70b
 1766 04f3 1403     		.2byte	0x314
 1767 04f5 0D       		.uleb128 0xd
 1768 04f6 D8170000 		.4byte	.LASF77
 1769 04fa 07       		.byte	0x7
 1770 04fb 42       		.byte	0x42
 1771 04fc FB000000 		.4byte	0xfb
 1772 0500 4003     		.2byte	0x340
 1773 0502 0D       		.uleb128 0xd
 1774 0503 15060000 		.4byte	.LASF78
 1775 0507 07       		.byte	0x7
 1776 0508 43       		.byte	0x43
 1777 0509 FB000000 		.4byte	0xfb
 1778 050d 4403     		.2byte	0x344
 1779 050f 0D       		.uleb128 0xd
 1780 0510 EB100000 		.4byte	.LASF79
 1781 0514 07       		.byte	0x7
ARM GAS  C:\Users\jlabe\AppData\Local\Temp\ccJbzXZ1.s 			page 64


 1782 0515 44       		.byte	0x44
 1783 0516 15070000 		.4byte	0x715
 1784 051a 4803     		.2byte	0x348
 1785 051c 0D       		.uleb128 0xd
 1786 051d 560E0000 		.4byte	.LASF80
 1787 0521 07       		.byte	0x7
 1788 0522 45       		.byte	0x45
 1789 0523 1A070000 		.4byte	0x71a
 1790 0527 0004     		.2byte	0x400
 1791 0529 0D       		.uleb128 0xd
 1792 052a F5100000 		.4byte	.LASF81
 1793 052e 07       		.byte	0x7
 1794 052f 46       		.byte	0x46
 1795 0530 24070000 		.4byte	0x724
 1796 0534 000C     		.2byte	0xc00
 1797 0536 0D       		.uleb128 0xd
 1798 0537 54020000 		.4byte	.LASF82
 1799 053b 07       		.byte	0x7
 1800 053c 47       		.byte	0x47
 1801 053d FB000000 		.4byte	0xfb
 1802 0541 000E     		.2byte	0xe00
 1803 0543 0D       		.uleb128 0xd
 1804 0544 5B150000 		.4byte	.LASF83
 1805 0548 07       		.byte	0x7
 1806 0549 48       		.byte	0x48
 1807 054a 2E070000 		.4byte	0x72e
 1808 054e 040E     		.2byte	0xe04
 1809 0550 0D       		.uleb128 0xd
 1810 0551 C8090000 		.4byte	.LASF84
 1811 0555 07       		.byte	0x7
 1812 0556 49       		.byte	0x49
 1813 0557 F6000000 		.4byte	0xf6
 1814 055b 800E     		.2byte	0xe80
 1815 055d 0D       		.uleb128 0xd
 1816 055e 66150000 		.4byte	.LASF85
 1817 0562 07       		.byte	0x7
 1818 0563 4A       		.byte	0x4a
 1819 0564 FB000000 		.4byte	0xfb
 1820 0568 840E     		.2byte	0xe84
 1821 056a 0D       		.uleb128 0xd
 1822 056b 620F0000 		.4byte	.LASF86
 1823 056f 07       		.byte	0x7
 1824 0570 4B       		.byte	0x4b
 1825 0571 F6000000 		.4byte	0xf6
 1826 0575 880E     		.2byte	0xe88
 1827 0577 0D       		.uleb128 0xd
 1828 0578 0E0B0000 		.4byte	.LASF87
 1829 057c 07       		.byte	0x7
 1830 057d 4C       		.byte	0x4c
 1831 057e FB000000 		.4byte	0xfb
 1832 0582 8C0E     		.2byte	0xe8c
 1833 0584 0D       		.uleb128 0xd
 1834 0585 71150000 		.4byte	.LASF88
 1835 0589 07       		.byte	0x7
 1836 058a 4D       		.byte	0x4d
 1837 058b 38070000 		.4byte	0x738
 1838 058f 900E     		.2byte	0xe90
ARM GAS  C:\Users\jlabe\AppData\Local\Temp\ccJbzXZ1.s 			page 65


 1839 0591 0D       		.uleb128 0xd
 1840 0592 AD080000 		.4byte	.LASF89
 1841 0596 07       		.byte	0x7
 1842 0597 4E       		.byte	0x4e
 1843 0598 F6000000 		.4byte	0xf6
 1844 059c C00E     		.2byte	0xec0
 1845 059e 0D       		.uleb128 0xd
 1846 059f 7C150000 		.4byte	.LASF90
 1847 05a3 07       		.byte	0x7
 1848 05a4 4F       		.byte	0x4f
 1849 05a5 FB000000 		.4byte	0xfb
 1850 05a9 C40E     		.2byte	0xec4
 1851 05ab 0D       		.uleb128 0xd
 1852 05ac 2B100000 		.4byte	.LASF91
 1853 05b0 07       		.byte	0x7
 1854 05b1 50       		.byte	0x50
 1855 05b2 F6000000 		.4byte	0xf6
 1856 05b6 C80E     		.2byte	0xec8
 1857 05b8 0D       		.uleb128 0xd
 1858 05b9 EF120000 		.4byte	.LASF92
 1859 05bd 07       		.byte	0x7
 1860 05be 51       		.byte	0x51
 1861 05bf FB000000 		.4byte	0xfb
 1862 05c3 CC0E     		.2byte	0xecc
 1863 05c5 0D       		.uleb128 0xd
 1864 05c6 87150000 		.4byte	.LASF93
 1865 05ca 07       		.byte	0x7
 1866 05cb 52       		.byte	0x52
 1867 05cc 42070000 		.4byte	0x742
 1868 05d0 D00E     		.2byte	0xed0
 1869 05d2 0D       		.uleb128 0xd
 1870 05d3 25140000 		.4byte	.LASF94
 1871 05d7 07       		.byte	0x7
 1872 05d8 53       		.byte	0x53
 1873 05d9 F6000000 		.4byte	0xf6
 1874 05dd 000F     		.2byte	0xf00
 1875 05df 0D       		.uleb128 0xd
 1876 05e0 48060000 		.4byte	.LASF95
 1877 05e4 07       		.byte	0x7
 1878 05e5 54       		.byte	0x54
 1879 05e6 F6000000 		.4byte	0xf6
 1880 05ea 040F     		.2byte	0xf04
 1881 05ec 0D       		.uleb128 0xd
 1882 05ed 7C140000 		.4byte	.LASF96
 1883 05f1 07       		.byte	0x7
 1884 05f2 55       		.byte	0x55
 1885 05f3 F6000000 		.4byte	0xf6
 1886 05f7 080F     		.2byte	0xf08
 1887 05f9 0D       		.uleb128 0xd
 1888 05fa 94060000 		.4byte	.LASF97
 1889 05fe 07       		.byte	0x7
 1890 05ff 56       		.byte	0x56
 1891 0600 FB000000 		.4byte	0xfb
 1892 0604 0C0F     		.2byte	0xf0c
 1893 0606 0D       		.uleb128 0xd
 1894 0607 92150000 		.4byte	.LASF98
 1895 060b 07       		.byte	0x7
ARM GAS  C:\Users\jlabe\AppData\Local\Temp\ccJbzXZ1.s 			page 66


 1896 060c 57       		.byte	0x57
 1897 060d 4C070000 		.4byte	0x74c
 1898 0611 100F     		.2byte	0xf10
 1899 0613 0D       		.uleb128 0xd
 1900 0614 51140000 		.4byte	.LASF99
 1901 0618 07       		.byte	0x7
 1902 0619 58       		.byte	0x58
 1903 061a F6000000 		.4byte	0xf6
 1904 061e 400F     		.2byte	0xf40
 1905 0620 0D       		.uleb128 0xd
 1906 0621 06030000 		.4byte	.LASF100
 1907 0625 07       		.byte	0x7
 1908 0626 59       		.byte	0x59
 1909 0627 F6000000 		.4byte	0xf6
 1910 062b 440F     		.2byte	0xf44
 1911 062d 0D       		.uleb128 0xd
 1912 062e CD0A0000 		.4byte	.LASF101
 1913 0632 07       		.byte	0x7
 1914 0633 5A       		.byte	0x5a
 1915 0634 F6000000 		.4byte	0xf6
 1916 0638 480F     		.2byte	0xf48
 1917 063a 0D       		.uleb128 0xd
 1918 063b F2090000 		.4byte	.LASF102
 1919 063f 07       		.byte	0x7
 1920 0640 5B       		.byte	0x5b
 1921 0641 FB000000 		.4byte	0xfb
 1922 0645 4C0F     		.2byte	0xf4c
 1923 0647 0D       		.uleb128 0xd
 1924 0648 9D150000 		.4byte	.LASF103
 1925 064c 07       		.byte	0x7
 1926 064d 5C       		.byte	0x5c
 1927 064e 56070000 		.4byte	0x756
 1928 0652 500F     		.2byte	0xf50
 1929 0654 0D       		.uleb128 0xd
 1930 0655 27120000 		.4byte	.LASF104
 1931 0659 07       		.byte	0x7
 1932 065a 5D       		.byte	0x5d
 1933 065b F6000000 		.4byte	0xf6
 1934 065f 800F     		.2byte	0xf80
 1935 0661 0D       		.uleb128 0xd
 1936 0662 F1070000 		.4byte	.LASF105
 1937 0666 07       		.byte	0x7
 1938 0667 5E       		.byte	0x5e
 1939 0668 F6000000 		.4byte	0xf6
 1940 066c 840F     		.2byte	0xf84
 1941 066e 0D       		.uleb128 0xd
 1942 066f 7D010000 		.4byte	.LASF106
 1943 0673 07       		.byte	0x7
 1944 0674 5F       		.byte	0x5f
 1945 0675 F6000000 		.4byte	0xf6
 1946 0679 880F     		.2byte	0xf88
 1947 067b 0D       		.uleb128 0xd
 1948 067c 73110000 		.4byte	.LASF107
 1949 0680 07       		.byte	0x7
 1950 0681 60       		.byte	0x60
 1951 0682 FB000000 		.4byte	0xfb
 1952 0686 8C0F     		.2byte	0xf8c
ARM GAS  C:\Users\jlabe\AppData\Local\Temp\ccJbzXZ1.s 			page 67


 1953 0688 0D       		.uleb128 0xd
 1954 0689 A8150000 		.4byte	.LASF108
 1955 068d 07       		.byte	0x7
 1956 068e 61       		.byte	0x61
 1957 068f 60070000 		.4byte	0x760
 1958 0693 900F     		.2byte	0xf90
 1959 0695 0D       		.uleb128 0xd
 1960 0696 790E0000 		.4byte	.LASF109
 1961 069a 07       		.byte	0x7
 1962 069b 62       		.byte	0x62
 1963 069c F6000000 		.4byte	0xf6
 1964 06a0 C00F     		.2byte	0xfc0
 1965 06a2 0D       		.uleb128 0xd
 1966 06a3 56170000 		.4byte	.LASF110
 1967 06a7 07       		.byte	0x7
 1968 06a8 63       		.byte	0x63
 1969 06a9 F6000000 		.4byte	0xf6
 1970 06ad C40F     		.2byte	0xfc4
 1971 06af 0D       		.uleb128 0xd
 1972 06b0 0B090000 		.4byte	.LASF111
 1973 06b4 07       		.byte	0x7
 1974 06b5 64       		.byte	0x64
 1975 06b6 F6000000 		.4byte	0xf6
 1976 06ba C80F     		.2byte	0xfc8
 1977 06bc 0D       		.uleb128 0xd
 1978 06bd 26030000 		.4byte	.LASF112
 1979 06c1 07       		.byte	0x7
 1980 06c2 65       		.byte	0x65
 1981 06c3 FB000000 		.4byte	0xfb
 1982 06c7 CC0F     		.2byte	0xfcc
 1983 06c9 00       		.byte	0
 1984 06ca 05       		.uleb128 0x5
 1985 06cb 00010000 		.4byte	0x100
 1986 06cf 06       		.uleb128 0x6
 1987 06d0 CA060000 		.4byte	0x6ca
 1988 06d4 05       		.uleb128 0x5
 1989 06d5 10010000 		.4byte	0x110
 1990 06d9 06       		.uleb128 0x6
 1991 06da D4060000 		.4byte	0x6d4
 1992 06de 05       		.uleb128 0x5
 1993 06df 60010000 		.4byte	0x160
 1994 06e3 06       		.uleb128 0x6
 1995 06e4 DE060000 		.4byte	0x6de
 1996 06e8 05       		.uleb128 0x5
 1997 06e9 50030000 		.4byte	0x350
 1998 06ed 06       		.uleb128 0x6
 1999 06ee E8060000 		.4byte	0x6e8
 2000 06f2 05       		.uleb128 0x5
 2001 06f3 30010000 		.4byte	0x130
 2002 06f7 06       		.uleb128 0x6
 2003 06f8 F2060000 		.4byte	0x6f2
 2004 06fc 05       		.uleb128 0x5
 2005 06fd 1F030000 		.4byte	0x31f
 2006 0701 06       		.uleb128 0x6
 2007 0702 FC060000 		.4byte	0x6fc
 2008 0706 05       		.uleb128 0x5
 2009 0707 0F030000 		.4byte	0x30f
ARM GAS  C:\Users\jlabe\AppData\Local\Temp\ccJbzXZ1.s 			page 68


 2010 070b 06       		.uleb128 0x6
 2011 070c 06070000 		.4byte	0x706
 2012 0710 05       		.uleb128 0x5
 2013 0711 2F030000 		.4byte	0x32f
 2014 0715 06       		.uleb128 0x6
 2015 0716 10070000 		.4byte	0x710
 2016 071a 05       		.uleb128 0x5
 2017 071b 3F030000 		.4byte	0x33f
 2018 071f 05       		.uleb128 0x5
 2019 0720 20010000 		.4byte	0x120
 2020 0724 06       		.uleb128 0x6
 2021 0725 1F070000 		.4byte	0x71f
 2022 0729 05       		.uleb128 0x5
 2023 072a 50010000 		.4byte	0x150
 2024 072e 06       		.uleb128 0x6
 2025 072f 29070000 		.4byte	0x729
 2026 0733 05       		.uleb128 0x5
 2027 0734 70010000 		.4byte	0x170
 2028 0738 06       		.uleb128 0x6
 2029 0739 33070000 		.4byte	0x733
 2030 073d 05       		.uleb128 0x5
 2031 073e 70010000 		.4byte	0x170
 2032 0742 06       		.uleb128 0x6
 2033 0743 3D070000 		.4byte	0x73d
 2034 0747 05       		.uleb128 0x5
 2035 0748 70010000 		.4byte	0x170
 2036 074c 06       		.uleb128 0x6
 2037 074d 47070000 		.4byte	0x747
 2038 0751 05       		.uleb128 0x5
 2039 0752 70010000 		.4byte	0x170
 2040 0756 06       		.uleb128 0x6
 2041 0757 51070000 		.4byte	0x751
 2042 075b 05       		.uleb128 0x5
 2043 075c 70010000 		.4byte	0x170
 2044 0760 06       		.uleb128 0x6
 2045 0761 5B070000 		.4byte	0x75b
 2046 0765 03       		.uleb128 0x3
 2047 0766 A90A0000 		.4byte	.LASF113
 2048 076a 07       		.byte	0x7
 2049 076b 66       		.byte	0x66
 2050 076c 60030000 		.4byte	0x360
 2051 0770 0F       		.uleb128 0xf
 2052 0771 2A0A0000 		.4byte	.LASF114
 2053 0775 08       		.byte	0x8
 2054 0776 3106     		.2byte	0x631
 2055 0778 5E020000 		.4byte	0x25e
 2056 077c 0F       		.uleb128 0xf
 2057 077d 16150000 		.4byte	.LASF115
 2058 0781 08       		.byte	0x8
 2059 0782 3206     		.2byte	0x632
 2060 0784 04030000 		.4byte	0x304
 2061 0788 0F       		.uleb128 0xf
 2062 0789 94050000 		.4byte	.LASF116
 2063 078d 08       		.byte	0x8
 2064 078e 4F06     		.2byte	0x64f
 2065 0790 65070000 		.4byte	0x765
 2066 0794 02       		.uleb128 0x2
ARM GAS  C:\Users\jlabe\AppData\Local\Temp\ccJbzXZ1.s 			page 69


 2067 0795 08       		.byte	0x8
 2068 0796 04       		.byte	0x4
 2069 0797 4D0F0000 		.4byte	.LASF117
 2070 079b 09       		.uleb128 0x9
 2071 079c B8       		.byte	0xb8
 2072 079d 09       		.byte	0x9
 2073 079e 34       		.byte	0x34
 2074 079f AC0B0000 		.4byte	0xbac
 2075 07a3 0B       		.uleb128 0xb
 2076 07a4 DB020000 		.4byte	.LASF118
 2077 07a8 09       		.byte	0x9
 2078 07a9 37       		.byte	0x37
 2079 07aa E4000000 		.4byte	0xe4
 2080 07ae 00       		.byte	0
 2081 07af 0B       		.uleb128 0xb
 2082 07b0 990A0000 		.4byte	.LASF119
 2083 07b4 09       		.byte	0x9
 2084 07b5 38       		.byte	0x38
 2085 07b6 E4000000 		.4byte	0xe4
 2086 07ba 04       		.byte	0x4
 2087 07bb 0B       		.uleb128 0xb
 2088 07bc 8A010000 		.4byte	.LASF120
 2089 07c0 09       		.byte	0x9
 2090 07c1 39       		.byte	0x39
 2091 07c2 E4000000 		.4byte	0xe4
 2092 07c6 08       		.byte	0x8
 2093 07c7 0B       		.uleb128 0xb
 2094 07c8 94070000 		.4byte	.LASF121
 2095 07cc 09       		.byte	0x9
 2096 07cd 3A       		.byte	0x3a
 2097 07ce E4000000 		.4byte	0xe4
 2098 07d2 0C       		.byte	0xc
 2099 07d3 0B       		.uleb128 0xb
 2100 07d4 A2110000 		.4byte	.LASF122
 2101 07d8 09       		.byte	0x9
 2102 07d9 3B       		.byte	0x3b
 2103 07da E4000000 		.4byte	0xe4
 2104 07de 10       		.byte	0x10
 2105 07df 0B       		.uleb128 0xb
 2106 07e0 5D0D0000 		.4byte	.LASF123
 2107 07e4 09       		.byte	0x9
 2108 07e5 3C       		.byte	0x3c
 2109 07e6 E4000000 		.4byte	0xe4
 2110 07ea 14       		.byte	0x14
 2111 07eb 0B       		.uleb128 0xb
 2112 07ec BF090000 		.4byte	.LASF124
 2113 07f0 09       		.byte	0x9
 2114 07f1 3D       		.byte	0x3d
 2115 07f2 E4000000 		.4byte	0xe4
 2116 07f6 18       		.byte	0x18
 2117 07f7 0B       		.uleb128 0xb
 2118 07f8 39170000 		.4byte	.LASF125
 2119 07fc 09       		.byte	0x9
 2120 07fd 3E       		.byte	0x3e
 2121 07fe E4000000 		.4byte	0xe4
 2122 0802 1C       		.byte	0x1c
 2123 0803 0B       		.uleb128 0xb
ARM GAS  C:\Users\jlabe\AppData\Local\Temp\ccJbzXZ1.s 			page 70


 2124 0804 A30C0000 		.4byte	.LASF126
 2125 0808 09       		.byte	0x9
 2126 0809 3F       		.byte	0x3f
 2127 080a E4000000 		.4byte	0xe4
 2128 080e 20       		.byte	0x20
 2129 080f 0B       		.uleb128 0xb
 2130 0810 1B080000 		.4byte	.LASF127
 2131 0814 09       		.byte	0x9
 2132 0815 40       		.byte	0x40
 2133 0816 E4000000 		.4byte	0xe4
 2134 081a 24       		.byte	0x24
 2135 081b 0B       		.uleb128 0xb
 2136 081c 39110000 		.4byte	.LASF128
 2137 0820 09       		.byte	0x9
 2138 0821 43       		.byte	0x43
 2139 0822 B8000000 		.4byte	0xb8
 2140 0826 28       		.byte	0x28
 2141 0827 0B       		.uleb128 0xb
 2142 0828 81060000 		.4byte	.LASF129
 2143 082c 09       		.byte	0x9
 2144 082d 44       		.byte	0x44
 2145 082e B8000000 		.4byte	0xb8
 2146 0832 29       		.byte	0x29
 2147 0833 0B       		.uleb128 0xb
 2148 0834 F3140000 		.4byte	.LASF130
 2149 0838 09       		.byte	0x9
 2150 0839 45       		.byte	0x45
 2151 083a B8000000 		.4byte	0xb8
 2152 083e 2A       		.byte	0x2a
 2153 083f 0B       		.uleb128 0xb
 2154 0840 82110000 		.4byte	.LASF131
 2155 0844 09       		.byte	0x9
 2156 0845 46       		.byte	0x46
 2157 0846 B8000000 		.4byte	0xb8
 2158 084a 2B       		.byte	0x2b
 2159 084b 0B       		.uleb128 0xb
 2160 084c 60110000 		.4byte	.LASF132
 2161 0850 09       		.byte	0x9
 2162 0851 47       		.byte	0x47
 2163 0852 B8000000 		.4byte	0xb8
 2164 0856 2C       		.byte	0x2c
 2165 0857 0B       		.uleb128 0xb
 2166 0858 F1130000 		.4byte	.LASF133
 2167 085c 09       		.byte	0x9
 2168 085d 48       		.byte	0x48
 2169 085e B8000000 		.4byte	0xb8
 2170 0862 2D       		.byte	0x2d
 2171 0863 0B       		.uleb128 0xb
 2172 0864 22180000 		.4byte	.LASF134
 2173 0868 09       		.byte	0x9
 2174 0869 49       		.byte	0x49
 2175 086a B8000000 		.4byte	0xb8
 2176 086e 2E       		.byte	0x2e
 2177 086f 0B       		.uleb128 0xb
 2178 0870 09170000 		.4byte	.LASF135
 2179 0874 09       		.byte	0x9
 2180 0875 4A       		.byte	0x4a
ARM GAS  C:\Users\jlabe\AppData\Local\Temp\ccJbzXZ1.s 			page 71


 2181 0876 B8000000 		.4byte	0xb8
 2182 087a 2F       		.byte	0x2f
 2183 087b 0B       		.uleb128 0xb
 2184 087c 03050000 		.4byte	.LASF136
 2185 0880 09       		.byte	0x9
 2186 0881 4B       		.byte	0x4b
 2187 0882 B8000000 		.4byte	0xb8
 2188 0886 30       		.byte	0x30
 2189 0887 0B       		.uleb128 0xb
 2190 0888 FF0D0000 		.4byte	.LASF137
 2191 088c 09       		.byte	0x9
 2192 088d 4E       		.byte	0x4e
 2193 088e B8000000 		.4byte	0xb8
 2194 0892 31       		.byte	0x31
 2195 0893 0B       		.uleb128 0xb
 2196 0894 70160000 		.4byte	.LASF138
 2197 0898 09       		.byte	0x9
 2198 0899 4F       		.byte	0x4f
 2199 089a B8000000 		.4byte	0xb8
 2200 089e 32       		.byte	0x32
 2201 089f 0B       		.uleb128 0xb
 2202 08a0 BE0D0000 		.4byte	.LASF139
 2203 08a4 09       		.byte	0x9
 2204 08a5 50       		.byte	0x50
 2205 08a6 B8000000 		.4byte	0xb8
 2206 08aa 33       		.byte	0x33
 2207 08ab 0B       		.uleb128 0xb
 2208 08ac 7B0A0000 		.4byte	.LASF140
 2209 08b0 09       		.byte	0x9
 2210 08b1 51       		.byte	0x51
 2211 08b2 B8000000 		.4byte	0xb8
 2212 08b6 34       		.byte	0x34
 2213 08b7 0B       		.uleb128 0xb
 2214 08b8 4F070000 		.4byte	.LASF141
 2215 08bc 09       		.byte	0x9
 2216 08bd 52       		.byte	0x52
 2217 08be C3000000 		.4byte	0xc3
 2218 08c2 36       		.byte	0x36
 2219 08c3 0B       		.uleb128 0xb
 2220 08c4 FB020000 		.4byte	.LASF142
 2221 08c8 09       		.byte	0x9
 2222 08c9 53       		.byte	0x53
 2223 08ca C3000000 		.4byte	0xc3
 2224 08ce 38       		.byte	0x38
 2225 08cf 0B       		.uleb128 0xb
 2226 08d0 820D0000 		.4byte	.LASF143
 2227 08d4 09       		.byte	0x9
 2228 08d5 54       		.byte	0x54
 2229 08d6 C3000000 		.4byte	0xc3
 2230 08da 3A       		.byte	0x3a
 2231 08db 0B       		.uleb128 0xb
 2232 08dc 6C170000 		.4byte	.LASF144
 2233 08e0 09       		.byte	0x9
 2234 08e1 55       		.byte	0x55
 2235 08e2 B8000000 		.4byte	0xb8
 2236 08e6 3C       		.byte	0x3c
 2237 08e7 0B       		.uleb128 0xb
ARM GAS  C:\Users\jlabe\AppData\Local\Temp\ccJbzXZ1.s 			page 72


 2238 08e8 89080000 		.4byte	.LASF145
 2239 08ec 09       		.byte	0x9
 2240 08ed 56       		.byte	0x56
 2241 08ee B8000000 		.4byte	0xb8
 2242 08f2 3D       		.byte	0x3d
 2243 08f3 0B       		.uleb128 0xb
 2244 08f4 E30F0000 		.4byte	.LASF146
 2245 08f8 09       		.byte	0x9
 2246 08f9 57       		.byte	0x57
 2247 08fa B8000000 		.4byte	0xb8
 2248 08fe 3E       		.byte	0x3e
 2249 08ff 0B       		.uleb128 0xb
 2250 0900 F1000000 		.4byte	.LASF147
 2251 0904 09       		.byte	0x9
 2252 0905 58       		.byte	0x58
 2253 0906 B8000000 		.4byte	0xb8
 2254 090a 3F       		.byte	0x3f
 2255 090b 0B       		.uleb128 0xb
 2256 090c 5F020000 		.4byte	.LASF148
 2257 0910 09       		.byte	0x9
 2258 0911 59       		.byte	0x59
 2259 0912 B8000000 		.4byte	0xb8
 2260 0916 40       		.byte	0x40
 2261 0917 0B       		.uleb128 0xb
 2262 0918 220E0000 		.4byte	.LASF149
 2263 091c 09       		.byte	0x9
 2264 091d 5A       		.byte	0x5a
 2265 091e B8000000 		.4byte	0xb8
 2266 0922 41       		.byte	0x41
 2267 0923 0B       		.uleb128 0xb
 2268 0924 A2060000 		.4byte	.LASF150
 2269 0928 09       		.byte	0x9
 2270 0929 5B       		.byte	0x5b
 2271 092a B8000000 		.4byte	0xb8
 2272 092e 42       		.byte	0x42
 2273 092f 0B       		.uleb128 0xb
 2274 0930 1F0A0000 		.4byte	.LASF151
 2275 0934 09       		.byte	0x9
 2276 0935 5C       		.byte	0x5c
 2277 0936 B8000000 		.4byte	0xb8
 2278 093a 43       		.byte	0x43
 2279 093b 0B       		.uleb128 0xb
 2280 093c D90A0000 		.4byte	.LASF152
 2281 0940 09       		.byte	0x9
 2282 0941 5D       		.byte	0x5d
 2283 0942 B8000000 		.4byte	0xb8
 2284 0946 44       		.byte	0x44
 2285 0947 0B       		.uleb128 0xb
 2286 0948 90110000 		.4byte	.LASF153
 2287 094c 09       		.byte	0x9
 2288 094d 5E       		.byte	0x5e
 2289 094e E4000000 		.4byte	0xe4
 2290 0952 48       		.byte	0x48
 2291 0953 0B       		.uleb128 0xb
 2292 0954 A6030000 		.4byte	.LASF154
 2293 0958 09       		.byte	0x9
 2294 0959 5F       		.byte	0x5f
ARM GAS  C:\Users\jlabe\AppData\Local\Temp\ccJbzXZ1.s 			page 73


 2295 095a E4000000 		.4byte	0xe4
 2296 095e 4C       		.byte	0x4c
 2297 095f 0B       		.uleb128 0xb
 2298 0960 11160000 		.4byte	.LASF155
 2299 0964 09       		.byte	0x9
 2300 0965 60       		.byte	0x60
 2301 0966 B8000000 		.4byte	0xb8
 2302 096a 50       		.byte	0x50
 2303 096b 0B       		.uleb128 0xb
 2304 096c B9080000 		.4byte	.LASF156
 2305 0970 09       		.byte	0x9
 2306 0971 61       		.byte	0x61
 2307 0972 B8000000 		.4byte	0xb8
 2308 0976 51       		.byte	0x51
 2309 0977 0B       		.uleb128 0xb
 2310 0978 000D0000 		.4byte	.LASF157
 2311 097c 09       		.byte	0x9
 2312 097d 62       		.byte	0x62
 2313 097e B8000000 		.4byte	0xb8
 2314 0982 52       		.byte	0x52
 2315 0983 0B       		.uleb128 0xb
 2316 0984 BF0E0000 		.4byte	.LASF158
 2317 0988 09       		.byte	0x9
 2318 0989 63       		.byte	0x63
 2319 098a B8000000 		.4byte	0xb8
 2320 098e 53       		.byte	0x53
 2321 098f 0B       		.uleb128 0xb
 2322 0990 5C120000 		.4byte	.LASF159
 2323 0994 09       		.byte	0x9
 2324 0995 64       		.byte	0x64
 2325 0996 B8000000 		.4byte	0xb8
 2326 099a 54       		.byte	0x54
 2327 099b 0B       		.uleb128 0xb
 2328 099c 81090000 		.4byte	.LASF160
 2329 09a0 09       		.byte	0x9
 2330 09a1 65       		.byte	0x65
 2331 09a2 B8000000 		.4byte	0xb8
 2332 09a6 55       		.byte	0x55
 2333 09a7 0B       		.uleb128 0xb
 2334 09a8 00000000 		.4byte	.LASF161
 2335 09ac 09       		.byte	0x9
 2336 09ad 66       		.byte	0x66
 2337 09ae B8000000 		.4byte	0xb8
 2338 09b2 56       		.byte	0x56
 2339 09b3 0B       		.uleb128 0xb
 2340 09b4 42170000 		.4byte	.LASF162
 2341 09b8 09       		.byte	0x9
 2342 09b9 67       		.byte	0x67
 2343 09ba B8000000 		.4byte	0xb8
 2344 09be 57       		.byte	0x57
 2345 09bf 0B       		.uleb128 0xb
 2346 09c0 4B080000 		.4byte	.LASF163
 2347 09c4 09       		.byte	0x9
 2348 09c5 68       		.byte	0x68
 2349 09c6 B8000000 		.4byte	0xb8
 2350 09ca 58       		.byte	0x58
 2351 09cb 0B       		.uleb128 0xb
ARM GAS  C:\Users\jlabe\AppData\Local\Temp\ccJbzXZ1.s 			page 74


 2352 09cc A3170000 		.4byte	.LASF164
 2353 09d0 09       		.byte	0x9
 2354 09d1 69       		.byte	0x69
 2355 09d2 B8000000 		.4byte	0xb8
 2356 09d6 59       		.byte	0x59
 2357 09d7 0B       		.uleb128 0xb
 2358 09d8 5B160000 		.4byte	.LASF165
 2359 09dc 09       		.byte	0x9
 2360 09dd 6E       		.byte	0x6e
 2361 09de CE000000 		.4byte	0xce
 2362 09e2 5A       		.byte	0x5a
 2363 09e3 0B       		.uleb128 0xb
 2364 09e4 D0010000 		.4byte	.LASF166
 2365 09e8 09       		.byte	0x9
 2366 09e9 6F       		.byte	0x6f
 2367 09ea CE000000 		.4byte	0xce
 2368 09ee 5C       		.byte	0x5c
 2369 09ef 0B       		.uleb128 0xb
 2370 09f0 AB0C0000 		.4byte	.LASF167
 2371 09f4 09       		.byte	0x9
 2372 09f5 70       		.byte	0x70
 2373 09f6 B8000000 		.4byte	0xb8
 2374 09fa 5E       		.byte	0x5e
 2375 09fb 0B       		.uleb128 0xb
 2376 09fc 0F100000 		.4byte	.LASF168
 2377 0a00 09       		.byte	0x9
 2378 0a01 71       		.byte	0x71
 2379 0a02 B8000000 		.4byte	0xb8
 2380 0a06 5F       		.byte	0x5f
 2381 0a07 0B       		.uleb128 0xb
 2382 0a08 380A0000 		.4byte	.LASF169
 2383 0a0c 09       		.byte	0x9
 2384 0a0d 72       		.byte	0x72
 2385 0a0e B8000000 		.4byte	0xb8
 2386 0a12 60       		.byte	0x60
 2387 0a13 0B       		.uleb128 0xb
 2388 0a14 740B0000 		.4byte	.LASF170
 2389 0a18 09       		.byte	0x9
 2390 0a19 73       		.byte	0x73
 2391 0a1a E4000000 		.4byte	0xe4
 2392 0a1e 64       		.byte	0x64
 2393 0a1f 0B       		.uleb128 0xb
 2394 0a20 3E180000 		.4byte	.LASF171
 2395 0a24 09       		.byte	0x9
 2396 0a25 76       		.byte	0x76
 2397 0a26 CE000000 		.4byte	0xce
 2398 0a2a 68       		.byte	0x68
 2399 0a2b 0B       		.uleb128 0xb
 2400 0a2c A20F0000 		.4byte	.LASF172
 2401 0a30 09       		.byte	0x9
 2402 0a31 77       		.byte	0x77
 2403 0a32 CE000000 		.4byte	0xce
 2404 0a36 6A       		.byte	0x6a
 2405 0a37 0B       		.uleb128 0xb
 2406 0a38 730D0000 		.4byte	.LASF173
 2407 0a3c 09       		.byte	0x9
 2408 0a3d 78       		.byte	0x78
ARM GAS  C:\Users\jlabe\AppData\Local\Temp\ccJbzXZ1.s 			page 75


 2409 0a3e CE000000 		.4byte	0xce
 2410 0a42 6C       		.byte	0x6c
 2411 0a43 0B       		.uleb128 0xb
 2412 0a44 7A030000 		.4byte	.LASF174
 2413 0a48 09       		.byte	0x9
 2414 0a49 79       		.byte	0x79
 2415 0a4a CE000000 		.4byte	0xce
 2416 0a4e 6E       		.byte	0x6e
 2417 0a4f 0B       		.uleb128 0xb
 2418 0a50 F00B0000 		.4byte	.LASF175
 2419 0a54 09       		.byte	0x9
 2420 0a55 7B       		.byte	0x7b
 2421 0a56 B8000000 		.4byte	0xb8
 2422 0a5a 70       		.byte	0x70
 2423 0a5b 0B       		.uleb128 0xb
 2424 0a5c 69050000 		.4byte	.LASF176
 2425 0a60 09       		.byte	0x9
 2426 0a61 7C       		.byte	0x7c
 2427 0a62 B8000000 		.4byte	0xb8
 2428 0a66 71       		.byte	0x71
 2429 0a67 0B       		.uleb128 0xb
 2430 0a68 87030000 		.4byte	.LASF177
 2431 0a6c 09       		.byte	0x9
 2432 0a6d 7D       		.byte	0x7d
 2433 0a6e B8000000 		.4byte	0xb8
 2434 0a72 72       		.byte	0x72
 2435 0a73 0B       		.uleb128 0xb
 2436 0a74 6C020000 		.4byte	.LASF178
 2437 0a78 09       		.byte	0x9
 2438 0a79 7E       		.byte	0x7e
 2439 0a7a B8000000 		.4byte	0xb8
 2440 0a7e 73       		.byte	0x73
 2441 0a7f 0B       		.uleb128 0xb
 2442 0a80 8C100000 		.4byte	.LASF179
 2443 0a84 09       		.byte	0x9
 2444 0a85 80       		.byte	0x80
 2445 0a86 CE000000 		.4byte	0xce
 2446 0a8a 74       		.byte	0x74
 2447 0a8b 0B       		.uleb128 0xb
 2448 0a8c D10E0000 		.4byte	.LASF180
 2449 0a90 09       		.byte	0x9
 2450 0a91 81       		.byte	0x81
 2451 0a92 CE000000 		.4byte	0xce
 2452 0a96 76       		.byte	0x76
 2453 0a97 0B       		.uleb128 0xb
 2454 0a98 2C0C0000 		.4byte	.LASF181
 2455 0a9c 09       		.byte	0x9
 2456 0a9d 82       		.byte	0x82
 2457 0a9e CE000000 		.4byte	0xce
 2458 0aa2 78       		.byte	0x78
 2459 0aa3 0B       		.uleb128 0xb
 2460 0aa4 1B070000 		.4byte	.LASF182
 2461 0aa8 09       		.byte	0x9
 2462 0aa9 83       		.byte	0x83
 2463 0aaa CE000000 		.4byte	0xce
 2464 0aae 7A       		.byte	0x7a
 2465 0aaf 0B       		.uleb128 0xb
ARM GAS  C:\Users\jlabe\AppData\Local\Temp\ccJbzXZ1.s 			page 76


 2466 0ab0 02130000 		.4byte	.LASF183
 2467 0ab4 09       		.byte	0x9
 2468 0ab5 86       		.byte	0x86
 2469 0ab6 B8000000 		.4byte	0xb8
 2470 0aba 7C       		.byte	0x7c
 2471 0abb 0B       		.uleb128 0xb
 2472 0abc 22160000 		.4byte	.LASF184
 2473 0ac0 09       		.byte	0x9
 2474 0ac1 87       		.byte	0x87
 2475 0ac2 B8000000 		.4byte	0xb8
 2476 0ac6 7D       		.byte	0x7d
 2477 0ac7 0B       		.uleb128 0xb
 2478 0ac8 E7060000 		.4byte	.LASF185
 2479 0acc 09       		.byte	0x9
 2480 0acd 88       		.byte	0x88
 2481 0ace B8000000 		.4byte	0xb8
 2482 0ad2 7E       		.byte	0x7e
 2483 0ad3 0B       		.uleb128 0xb
 2484 0ad4 60060000 		.4byte	.LASF186
 2485 0ad8 09       		.byte	0x9
 2486 0ad9 89       		.byte	0x89
 2487 0ada B8000000 		.4byte	0xb8
 2488 0ade 7F       		.byte	0x7f
 2489 0adf 0B       		.uleb128 0xb
 2490 0ae0 30070000 		.4byte	.LASF187
 2491 0ae4 09       		.byte	0x9
 2492 0ae5 8A       		.byte	0x8a
 2493 0ae6 B8000000 		.4byte	0xb8
 2494 0aea 80       		.byte	0x80
 2495 0aeb 0B       		.uleb128 0xb
 2496 0aec DA000000 		.4byte	.LASF188
 2497 0af0 09       		.byte	0x9
 2498 0af1 8D       		.byte	0x8d
 2499 0af2 E4000000 		.4byte	0xe4
 2500 0af6 84       		.byte	0x84
 2501 0af7 0B       		.uleb128 0xb
 2502 0af8 78130000 		.4byte	.LASF189
 2503 0afc 09       		.byte	0x9
 2504 0afd 8E       		.byte	0x8e
 2505 0afe E4000000 		.4byte	0xe4
 2506 0b02 88       		.byte	0x88
 2507 0b03 0B       		.uleb128 0xb
 2508 0b04 0D180000 		.4byte	.LASF190
 2509 0b08 09       		.byte	0x9
 2510 0b09 8F       		.byte	0x8f
 2511 0b0a E4000000 		.4byte	0xe4
 2512 0b0e 8C       		.byte	0x8c
 2513 0b0f 0B       		.uleb128 0xb
 2514 0b10 C5140000 		.4byte	.LASF191
 2515 0b14 09       		.byte	0x9
 2516 0b15 90       		.byte	0x90
 2517 0b16 E4000000 		.4byte	0xe4
 2518 0b1a 90       		.byte	0x90
 2519 0b1b 0B       		.uleb128 0xb
 2520 0b1c 8E120000 		.4byte	.LASF192
 2521 0b20 09       		.byte	0x9
 2522 0b21 91       		.byte	0x91
ARM GAS  C:\Users\jlabe\AppData\Local\Temp\ccJbzXZ1.s 			page 77


 2523 0b22 E4000000 		.4byte	0xe4
 2524 0b26 94       		.byte	0x94
 2525 0b27 0B       		.uleb128 0xb
 2526 0b28 7E050000 		.4byte	.LASF193
 2527 0b2c 09       		.byte	0x9
 2528 0b2d 92       		.byte	0x92
 2529 0b2e E4000000 		.4byte	0xe4
 2530 0b32 98       		.byte	0x98
 2531 0b33 0B       		.uleb128 0xb
 2532 0b34 AD130000 		.4byte	.LASF194
 2533 0b38 09       		.byte	0x9
 2534 0b39 93       		.byte	0x93
 2535 0b3a E4000000 		.4byte	0xe4
 2536 0b3e 9C       		.byte	0x9c
 2537 0b3f 0B       		.uleb128 0xb
 2538 0b40 090A0000 		.4byte	.LASF195
 2539 0b44 09       		.byte	0x9
 2540 0b45 94       		.byte	0x94
 2541 0b46 E4000000 		.4byte	0xe4
 2542 0b4a A0       		.byte	0xa0
 2543 0b4b 0B       		.uleb128 0xb
 2544 0b4c 9F050000 		.4byte	.LASF196
 2545 0b50 09       		.byte	0x9
 2546 0b51 95       		.byte	0x95
 2547 0b52 CE000000 		.4byte	0xce
 2548 0b56 A4       		.byte	0xa4
 2549 0b57 0B       		.uleb128 0xb
 2550 0b58 66100000 		.4byte	.LASF197
 2551 0b5c 09       		.byte	0x9
 2552 0b5d 96       		.byte	0x96
 2553 0b5e CE000000 		.4byte	0xce
 2554 0b62 A6       		.byte	0xa6
 2555 0b63 0B       		.uleb128 0xb
 2556 0b64 2C140000 		.4byte	.LASF198
 2557 0b68 09       		.byte	0x9
 2558 0b69 97       		.byte	0x97
 2559 0b6a CE000000 		.4byte	0xce
 2560 0b6e A8       		.byte	0xa8
 2561 0b6f 0B       		.uleb128 0xb
 2562 0b70 820C0000 		.4byte	.LASF199
 2563 0b74 09       		.byte	0x9
 2564 0b75 98       		.byte	0x98
 2565 0b76 CE000000 		.4byte	0xce
 2566 0b7a AA       		.byte	0xaa
 2567 0b7b 0B       		.uleb128 0xb
 2568 0b7c B4030000 		.4byte	.LASF200
 2569 0b80 09       		.byte	0x9
 2570 0b81 99       		.byte	0x99
 2571 0b82 CE000000 		.4byte	0xce
 2572 0b86 AC       		.byte	0xac
 2573 0b87 0B       		.uleb128 0xb
 2574 0b88 3C0E0000 		.4byte	.LASF201
 2575 0b8c 09       		.byte	0x9
 2576 0b8d 9A       		.byte	0x9a
 2577 0b8e CE000000 		.4byte	0xce
 2578 0b92 AE       		.byte	0xae
 2579 0b93 0B       		.uleb128 0xb
ARM GAS  C:\Users\jlabe\AppData\Local\Temp\ccJbzXZ1.s 			page 78


 2580 0b94 CA030000 		.4byte	.LASF202
 2581 0b98 09       		.byte	0x9
 2582 0b99 9D       		.byte	0x9d
 2583 0b9a CE000000 		.4byte	0xce
 2584 0b9e B0       		.byte	0xb0
 2585 0b9f 0B       		.uleb128 0xb
 2586 0ba0 20150000 		.4byte	.LASF203
 2587 0ba4 09       		.byte	0x9
 2588 0ba5 9E       		.byte	0x9e
 2589 0ba6 E4000000 		.4byte	0xe4
 2590 0baa B4       		.byte	0xb4
 2591 0bab 00       		.byte	0
 2592 0bac 03       		.uleb128 0x3
 2593 0bad D9160000 		.4byte	.LASF204
 2594 0bb1 09       		.byte	0x9
 2595 0bb2 9F       		.byte	0x9f
 2596 0bb3 9B070000 		.4byte	0x79b
 2597 0bb7 0F       		.uleb128 0xf
 2598 0bb8 08120000 		.4byte	.LASF205
 2599 0bbc 0A       		.byte	0xa
 2600 0bbd F601     		.2byte	0x1f6
 2601 0bbf C30B0000 		.4byte	0xbc3
 2602 0bc3 02       		.uleb128 0x2
 2603 0bc4 01       		.byte	0x1
 2604 0bc5 08       		.byte	0x8
 2605 0bc6 A40A0000 		.4byte	.LASF206
 2606 0bca 02       		.uleb128 0x2
 2607 0bcb 04       		.byte	0x4
 2608 0bcc 04       		.byte	0x4
 2609 0bcd 4B140000 		.4byte	.LASF207
 2610 0bd1 02       		.uleb128 0x2
 2611 0bd2 08       		.byte	0x8
 2612 0bd3 04       		.byte	0x4
 2613 0bd4 32170000 		.4byte	.LASF208
 2614 0bd8 0F       		.uleb128 0xf
 2615 0bd9 2C170000 		.4byte	.LASF209
 2616 0bdd 0A       		.byte	0xa
 2617 0bde EA03     		.2byte	0x3ea
 2618 0be0 B8000000 		.4byte	0xb8
 2619 0be4 10       		.uleb128 0x10
 2620 0be5 04       		.byte	0x4
 2621 0be6 E4000000 		.4byte	0xe4
 2622 0bea 11       		.uleb128 0x11
 2623 0beb 04       		.byte	0x4
 2624 0bec 02       		.uleb128 0x2
 2625 0bed 01       		.byte	0x1
 2626 0bee 02       		.byte	0x2
 2627 0bef 18090000 		.4byte	.LASF210
 2628 0bf3 12       		.uleb128 0x12
 2629 0bf4 04       		.byte	0x4
 2630 0bf5 A6000000 		.4byte	0xa6
 2631 0bf9 0B       		.byte	0xb
 2632 0bfa DF01     		.2byte	0x1df
 2633 0bfc 4F0C0000 		.4byte	0xc4f
 2634 0c00 13       		.uleb128 0x13
 2635 0c01 FB0A0000 		.4byte	.LASF211
 2636 0c05 00       		.byte	0
ARM GAS  C:\Users\jlabe\AppData\Local\Temp\ccJbzXZ1.s 			page 79


 2637 0c06 14       		.uleb128 0x14
 2638 0c07 D9010000 		.4byte	.LASF212
 2639 0c0b 0120AA00 		.4byte	0xaa2001
 2640 0c0f 14       		.uleb128 0x14
 2641 0c10 27090000 		.4byte	.LASF213
 2642 0c14 0220AA00 		.4byte	0xaa2002
 2643 0c18 14       		.uleb128 0x14
 2644 0c19 A10B0000 		.4byte	.LASF214
 2645 0c1d 0320AA00 		.4byte	0xaa2003
 2646 0c21 14       		.uleb128 0x14
 2647 0c22 B40F0000 		.4byte	.LASF215
 2648 0c26 0420AA00 		.4byte	0xaa2004
 2649 0c2a 14       		.uleb128 0x14
 2650 0c2b EB110000 		.4byte	.LASF216
 2651 0c2f 0520AA00 		.4byte	0xaa2005
 2652 0c33 14       		.uleb128 0x14
 2653 0c34 5F090000 		.4byte	.LASF217
 2654 0c38 0620AA00 		.4byte	0xaa2006
 2655 0c3c 14       		.uleb128 0x14
 2656 0c3d 3B010000 		.4byte	.LASF218
 2657 0c41 0720AA00 		.4byte	0xaa2007
 2658 0c45 14       		.uleb128 0x14
 2659 0c46 32130000 		.4byte	.LASF219
 2660 0c4a 0820AA00 		.4byte	0xaa2008
 2661 0c4e 00       		.byte	0
 2662 0c4f 0F       		.uleb128 0xf
 2663 0c50 C3130000 		.4byte	.LASF220
 2664 0c54 0B       		.byte	0xb
 2665 0c55 1102     		.2byte	0x211
 2666 0c57 F30B0000 		.4byte	0xbf3
 2667 0c5b 12       		.uleb128 0x12
 2668 0c5c 01       		.byte	0x1
 2669 0c5d 49000000 		.4byte	0x49
 2670 0c61 0B       		.byte	0xb
 2671 0c62 1D02     		.2byte	0x21d
 2672 0c64 750C0000 		.4byte	0xc75
 2673 0c68 13       		.uleb128 0x13
 2674 0c69 D9120000 		.4byte	.LASF221
 2675 0c6d 00       		.byte	0
 2676 0c6e 13       		.uleb128 0x13
 2677 0c6f A9010000 		.4byte	.LASF222
 2678 0c73 01       		.byte	0x1
 2679 0c74 00       		.byte	0
 2680 0c75 0F       		.uleb128 0xf
 2681 0c76 F3170000 		.4byte	.LASF223
 2682 0c7a 0B       		.byte	0xb
 2683 0c7b 2002     		.2byte	0x220
 2684 0c7d 5B0C0000 		.4byte	0xc5b
 2685 0c81 12       		.uleb128 0x12
 2686 0c82 01       		.byte	0x1
 2687 0c83 49000000 		.4byte	0x49
 2688 0c87 0B       		.byte	0xb
 2689 0c88 2402     		.2byte	0x224
 2690 0c8a 9B0C0000 		.4byte	0xc9b
 2691 0c8e 13       		.uleb128 0x13
 2692 0c8f 35030000 		.4byte	.LASF224
 2693 0c93 00       		.byte	0
ARM GAS  C:\Users\jlabe\AppData\Local\Temp\ccJbzXZ1.s 			page 80


 2694 0c94 13       		.uleb128 0x13
 2695 0c95 D8030000 		.4byte	.LASF225
 2696 0c99 01       		.byte	0x1
 2697 0c9a 00       		.byte	0
 2698 0c9b 0F       		.uleb128 0xf
 2699 0c9c 5F080000 		.4byte	.LASF226
 2700 0ca0 0B       		.byte	0xb
 2701 0ca1 2702     		.2byte	0x227
 2702 0ca3 810C0000 		.4byte	0xc81
 2703 0ca7 0F       		.uleb128 0xf
 2704 0ca8 26020000 		.4byte	.LASF227
 2705 0cac 0B       		.byte	0xb
 2706 0cad 3902     		.2byte	0x239
 2707 0caf B30C0000 		.4byte	0xcb3
 2708 0cb3 10       		.uleb128 0x10
 2709 0cb4 04       		.byte	0x4
 2710 0cb5 B90C0000 		.4byte	0xcb9
 2711 0cb9 15       		.uleb128 0x15
 2712 0cba C40C0000 		.4byte	0xcc4
 2713 0cbe 16       		.uleb128 0x16
 2714 0cbf E4000000 		.4byte	0xe4
 2715 0cc3 00       		.byte	0
 2716 0cc4 0F       		.uleb128 0xf
 2717 0cc5 22040000 		.4byte	.LASF228
 2718 0cc9 0B       		.byte	0xb
 2719 0cca 4402     		.2byte	0x244
 2720 0ccc D00C0000 		.4byte	0xcd0
 2721 0cd0 10       		.uleb128 0x10
 2722 0cd1 04       		.byte	0x4
 2723 0cd2 D60C0000 		.4byte	0xcd6
 2724 0cd6 17       		.uleb128 0x17
 2725 0cd7 9B0C0000 		.4byte	0xc9b
 2726 0cdb E50C0000 		.4byte	0xce5
 2727 0cdf 16       		.uleb128 0x16
 2728 0ce0 E4000000 		.4byte	0xe4
 2729 0ce4 00       		.byte	0
 2730 0ce5 18       		.uleb128 0x18
 2731 0ce6 0F050000 		.4byte	.LASF252
 2732 0cea 4C       		.byte	0x4c
 2733 0ceb 0B       		.byte	0xb
 2734 0cec C302     		.2byte	0x2c3
 2735 0cee 040E0000 		.4byte	0xe04
 2736 0cf2 19       		.uleb128 0x19
 2737 0cf3 9F090000 		.4byte	.LASF229
 2738 0cf7 0B       		.byte	0xb
 2739 0cf8 C602     		.2byte	0x2c6
 2740 0cfa EC0B0000 		.4byte	0xbec
 2741 0cfe 00       		.byte	0
 2742 0cff 19       		.uleb128 0x19
 2743 0d00 180D0000 		.4byte	.LASF230
 2744 0d04 0B       		.byte	0xb
 2745 0d05 C702     		.2byte	0x2c7
 2746 0d07 EC0B0000 		.4byte	0xbec
 2747 0d0b 01       		.byte	0x1
 2748 0d0c 19       		.uleb128 0x19
 2749 0d0d CB150000 		.4byte	.LASF231
 2750 0d11 0B       		.byte	0xb
ARM GAS  C:\Users\jlabe\AppData\Local\Temp\ccJbzXZ1.s 			page 81


 2751 0d12 C902     		.2byte	0x2c9
 2752 0d14 F6000000 		.4byte	0xf6
 2753 0d18 04       		.byte	0x4
 2754 0d19 19       		.uleb128 0x19
 2755 0d1a FD000000 		.4byte	.LASF232
 2756 0d1e 0B       		.byte	0xb
 2757 0d1f CB02     		.2byte	0x2cb
 2758 0d21 F6000000 		.4byte	0xf6
 2759 0d25 08       		.byte	0x8
 2760 0d26 19       		.uleb128 0x19
 2761 0d27 4A0E0000 		.4byte	.LASF233
 2762 0d2b 0B       		.byte	0xb
 2763 0d2c CC02     		.2byte	0x2cc
 2764 0d2e EC0B0000 		.4byte	0xbec
 2765 0d32 0C       		.byte	0xc
 2766 0d33 19       		.uleb128 0x19
 2767 0d34 670D0000 		.4byte	.LASF234
 2768 0d38 0B       		.byte	0xb
 2769 0d39 CD02     		.2byte	0x2cd
 2770 0d3b EC0B0000 		.4byte	0xbec
 2771 0d3f 0D       		.byte	0xd
 2772 0d40 19       		.uleb128 0x19
 2773 0d41 D60F0000 		.4byte	.LASF235
 2774 0d45 0B       		.byte	0xb
 2775 0d46 CF02     		.2byte	0x2cf
 2776 0d48 040E0000 		.4byte	0xe04
 2777 0d4c 10       		.byte	0x10
 2778 0d4d 19       		.uleb128 0x19
 2779 0d4e EA0A0000 		.4byte	.LASF236
 2780 0d52 0B       		.byte	0xb
 2781 0d53 D002     		.2byte	0x2d0
 2782 0d55 E4000000 		.4byte	0xe4
 2783 0d59 14       		.byte	0x14
 2784 0d5a 19       		.uleb128 0x19
 2785 0d5b 44020000 		.4byte	.LASF237
 2786 0d5f 0B       		.byte	0xb
 2787 0d60 D102     		.2byte	0x2d1
 2788 0d62 F6000000 		.4byte	0xf6
 2789 0d66 18       		.byte	0x18
 2790 0d67 19       		.uleb128 0x19
 2791 0d68 6C0A0000 		.4byte	.LASF238
 2792 0d6c 0B       		.byte	0xb
 2793 0d6d D202     		.2byte	0x2d2
 2794 0d6f F6000000 		.4byte	0xf6
 2795 0d73 1C       		.byte	0x1c
 2796 0d74 19       		.uleb128 0x19
 2797 0d75 FD010000 		.4byte	.LASF239
 2798 0d79 0B       		.byte	0xb
 2799 0d7a D402     		.2byte	0x2d4
 2800 0d7c F6000000 		.4byte	0xf6
 2801 0d80 20       		.byte	0x20
 2802 0d81 19       		.uleb128 0x19
 2803 0d82 BC070000 		.4byte	.LASF240
 2804 0d86 0B       		.byte	0xb
 2805 0d87 D502     		.2byte	0x2d5
 2806 0d89 0A0E0000 		.4byte	0xe0a
 2807 0d8d 24       		.byte	0x24
ARM GAS  C:\Users\jlabe\AppData\Local\Temp\ccJbzXZ1.s 			page 82


 2808 0d8e 19       		.uleb128 0x19
 2809 0d8f F0050000 		.4byte	.LASF241
 2810 0d93 0B       		.byte	0xb
 2811 0d94 D702     		.2byte	0x2d7
 2812 0d96 040E0000 		.4byte	0xe04
 2813 0d9a 28       		.byte	0x28
 2814 0d9b 19       		.uleb128 0x19
 2815 0d9c 9C070000 		.4byte	.LASF242
 2816 0da0 0B       		.byte	0xb
 2817 0da1 D802     		.2byte	0x2d8
 2818 0da3 E4000000 		.4byte	0xe4
 2819 0da7 2C       		.byte	0x2c
 2820 0da8 19       		.uleb128 0x19
 2821 0da9 6C010000 		.4byte	.LASF243
 2822 0dad 0B       		.byte	0xb
 2823 0dae D902     		.2byte	0x2d9
 2824 0db0 F6000000 		.4byte	0xf6
 2825 0db4 30       		.byte	0x30
 2826 0db5 19       		.uleb128 0x19
 2827 0db6 C20B0000 		.4byte	.LASF244
 2828 0dba 0B       		.byte	0xb
 2829 0dbb DA02     		.2byte	0x2da
 2830 0dbd F6000000 		.4byte	0xf6
 2831 0dc1 34       		.byte	0x34
 2832 0dc2 19       		.uleb128 0x19
 2833 0dc3 E5020000 		.4byte	.LASF245
 2834 0dc7 0B       		.byte	0xb
 2835 0dc8 DC02     		.2byte	0x2dc
 2836 0dca 040E0000 		.4byte	0xe04
 2837 0dce 38       		.byte	0x38
 2838 0dcf 19       		.uleb128 0x19
 2839 0dd0 F10E0000 		.4byte	.LASF246
 2840 0dd4 0B       		.byte	0xb
 2841 0dd5 DD02     		.2byte	0x2dd
 2842 0dd7 E4000000 		.4byte	0xe4
 2843 0ddb 3C       		.byte	0x3c
 2844 0ddc 19       		.uleb128 0x19
 2845 0ddd BB160000 		.4byte	.LASF247
 2846 0de1 0B       		.byte	0xb
 2847 0de2 DE02     		.2byte	0x2de
 2848 0de4 F6000000 		.4byte	0xf6
 2849 0de8 40       		.byte	0x40
 2850 0de9 19       		.uleb128 0x19
 2851 0dea E5080000 		.4byte	.LASF248
 2852 0dee 0B       		.byte	0xb
 2853 0def E402     		.2byte	0x2e4
 2854 0df1 A70C0000 		.4byte	0xca7
 2855 0df5 44       		.byte	0x44
 2856 0df6 19       		.uleb128 0x19
 2857 0df7 1F030000 		.4byte	.LASF249
 2858 0dfb 0B       		.byte	0xb
 2859 0dfc EB02     		.2byte	0x2eb
 2860 0dfe C40C0000 		.4byte	0xcc4
 2861 0e02 48       		.byte	0x48
 2862 0e03 00       		.byte	0
 2863 0e04 10       		.uleb128 0x10
 2864 0e05 04       		.byte	0x4
ARM GAS  C:\Users\jlabe\AppData\Local\Temp\ccJbzXZ1.s 			page 83


 2865 0e06 B8000000 		.4byte	0xb8
 2866 0e0a 05       		.uleb128 0x5
 2867 0e0b EC0B0000 		.4byte	0xbec
 2868 0e0f 0F       		.uleb128 0xf
 2869 0e10 82170000 		.4byte	.LASF250
 2870 0e14 0B       		.byte	0xb
 2871 0e15 EE02     		.2byte	0x2ee
 2872 0e17 E50C0000 		.4byte	0xce5
 2873 0e1b 0F       		.uleb128 0xf
 2874 0e1c 32000000 		.4byte	.LASF251
 2875 0e20 0C       		.byte	0xc
 2876 0e21 F201     		.2byte	0x1f2
 2877 0e23 B30C0000 		.4byte	0xcb3
 2878 0e27 18       		.uleb128 0x18
 2879 0e28 15170000 		.4byte	.LASF253
 2880 0e2c 24       		.byte	0x24
 2881 0e2d 0C       		.byte	0xc
 2882 0e2e 7402     		.2byte	0x274
 2883 0e30 AA0E0000 		.4byte	0xeaa
 2884 0e34 19       		.uleb128 0x19
 2885 0e35 9A0B0000 		.4byte	.LASF254
 2886 0e39 0C       		.byte	0xc
 2887 0e3a 7702     		.2byte	0x277
 2888 0e3c F6000000 		.4byte	0xf6
 2889 0e40 00       		.byte	0
 2890 0e41 19       		.uleb128 0x19
 2891 0e42 25100000 		.4byte	.LASF255
 2892 0e46 0C       		.byte	0xc
 2893 0e47 7902     		.2byte	0x279
 2894 0e49 EA0B0000 		.4byte	0xbea
 2895 0e4d 04       		.byte	0x4
 2896 0e4e 19       		.uleb128 0x19
 2897 0e4f 5C030000 		.4byte	.LASF256
 2898 0e53 0C       		.byte	0xc
 2899 0e54 7A02     		.2byte	0x27a
 2900 0e56 E4000000 		.4byte	0xe4
 2901 0e5a 08       		.byte	0x8
 2902 0e5b 19       		.uleb128 0x19
 2903 0e5c 630B0000 		.4byte	.LASF257
 2904 0e60 0C       		.byte	0xc
 2905 0e61 7B02     		.2byte	0x27b
 2906 0e63 F6000000 		.4byte	0xf6
 2907 0e67 0C       		.byte	0xc
 2908 0e68 19       		.uleb128 0x19
 2909 0e69 9A0E0000 		.4byte	.LASF258
 2910 0e6d 0C       		.byte	0xc
 2911 0e6e 7D02     		.2byte	0x27d
 2912 0e70 EA0B0000 		.4byte	0xbea
 2913 0e74 10       		.byte	0x10
 2914 0e75 19       		.uleb128 0x19
 2915 0e76 F50D0000 		.4byte	.LASF259
 2916 0e7a 0C       		.byte	0xc
 2917 0e7b 7E02     		.2byte	0x27e
 2918 0e7d E4000000 		.4byte	0xe4
 2919 0e81 14       		.byte	0x14
 2920 0e82 19       		.uleb128 0x19
 2921 0e83 83020000 		.4byte	.LASF260
ARM GAS  C:\Users\jlabe\AppData\Local\Temp\ccJbzXZ1.s 			page 84


 2922 0e87 0C       		.byte	0xc
 2923 0e88 7F02     		.2byte	0x27f
 2924 0e8a F6000000 		.4byte	0xf6
 2925 0e8e 18       		.byte	0x18
 2926 0e8f 19       		.uleb128 0x19
 2927 0e90 E5080000 		.4byte	.LASF248
 2928 0e94 0C       		.byte	0xc
 2929 0e95 8502     		.2byte	0x285
 2930 0e97 1B0E0000 		.4byte	0xe1b
 2931 0e9b 1C       		.byte	0x1c
 2932 0e9c 19       		.uleb128 0x19
 2933 0e9d 6C0B0000 		.4byte	.LASF261
 2934 0ea1 0C       		.byte	0xc
 2935 0ea2 8802     		.2byte	0x288
 2936 0ea4 E4000000 		.4byte	0xe4
 2937 0ea8 20       		.byte	0x20
 2938 0ea9 00       		.byte	0
 2939 0eaa 0F       		.uleb128 0xf
 2940 0eab 970D0000 		.4byte	.LASF262
 2941 0eaf 0C       		.byte	0xc
 2942 0eb0 8B02     		.2byte	0x28b
 2943 0eb2 270E0000 		.4byte	0xe27
 2944 0eb6 0F       		.uleb128 0xf
 2945 0eb7 410C0000 		.4byte	.LASF263
 2946 0ebb 0D       		.byte	0xd
 2947 0ebc D901     		.2byte	0x1d9
 2948 0ebe B30C0000 		.4byte	0xcb3
 2949 0ec2 18       		.uleb128 0x18
 2950 0ec3 B3060000 		.4byte	.LASF264
 2951 0ec7 38       		.byte	0x38
 2952 0ec8 0D       		.byte	0xd
 2953 0ec9 7502     		.2byte	0x275
 2954 0ecb 860F0000 		.4byte	0xf86
 2955 0ecf 19       		.uleb128 0x19
 2956 0ed0 32010000 		.4byte	.LASF265
 2957 0ed4 0D       		.byte	0xd
 2958 0ed5 7802     		.2byte	0x278
 2959 0ed7 F6000000 		.4byte	0xf6
 2960 0edb 00       		.byte	0
 2961 0edc 19       		.uleb128 0x19
 2962 0edd 2E080000 		.4byte	.LASF266
 2963 0ee1 0D       		.byte	0xd
 2964 0ee2 7902     		.2byte	0x279
 2965 0ee4 F6000000 		.4byte	0xf6
 2966 0ee8 04       		.byte	0x4
 2967 0ee9 19       		.uleb128 0x19
 2968 0eea 430F0000 		.4byte	.LASF267
 2969 0eee 0D       		.byte	0xd
 2970 0eef 7B02     		.2byte	0x27b
 2971 0ef1 EA0B0000 		.4byte	0xbea
 2972 0ef5 08       		.byte	0x8
 2973 0ef6 19       		.uleb128 0x19
 2974 0ef7 4E030000 		.4byte	.LASF268
 2975 0efb 0D       		.byte	0xd
 2976 0efc 7C02     		.2byte	0x27c
 2977 0efe E4000000 		.4byte	0xe4
 2978 0f02 0C       		.byte	0xc
ARM GAS  C:\Users\jlabe\AppData\Local\Temp\ccJbzXZ1.s 			page 85


 2979 0f03 19       		.uleb128 0x19
 2980 0f04 B00D0000 		.4byte	.LASF269
 2981 0f08 0D       		.byte	0xd
 2982 0f09 7D02     		.2byte	0x27d
 2983 0f0b F6000000 		.4byte	0xf6
 2984 0f0f 10       		.byte	0x10
 2985 0f10 19       		.uleb128 0x19
 2986 0f11 BF0A0000 		.4byte	.LASF270
 2987 0f15 0D       		.byte	0xd
 2988 0f16 7E02     		.2byte	0x27e
 2989 0f18 F6000000 		.4byte	0xf6
 2990 0f1c 14       		.byte	0x14
 2991 0f1d 19       		.uleb128 0x19
 2992 0f1e 25100000 		.4byte	.LASF255
 2993 0f22 0D       		.byte	0xd
 2994 0f23 8002     		.2byte	0x280
 2995 0f25 EA0B0000 		.4byte	0xbea
 2996 0f29 18       		.byte	0x18
 2997 0f2a 19       		.uleb128 0x19
 2998 0f2b 5C030000 		.4byte	.LASF256
 2999 0f2f 0D       		.byte	0xd
 3000 0f30 8102     		.2byte	0x281
 3001 0f32 E4000000 		.4byte	0xe4
 3002 0f36 1C       		.byte	0x1c
 3003 0f37 19       		.uleb128 0x19
 3004 0f38 630B0000 		.4byte	.LASF257
 3005 0f3c 0D       		.byte	0xd
 3006 0f3d 8202     		.2byte	0x282
 3007 0f3f F6000000 		.4byte	0xf6
 3008 0f43 20       		.byte	0x20
 3009 0f44 19       		.uleb128 0x19
 3010 0f45 9A0E0000 		.4byte	.LASF258
 3011 0f49 0D       		.byte	0xd
 3012 0f4a 8402     		.2byte	0x284
 3013 0f4c EA0B0000 		.4byte	0xbea
 3014 0f50 24       		.byte	0x24
 3015 0f51 19       		.uleb128 0x19
 3016 0f52 F50D0000 		.4byte	.LASF259
 3017 0f56 0D       		.byte	0xd
 3018 0f57 8502     		.2byte	0x285
 3019 0f59 E4000000 		.4byte	0xe4
 3020 0f5d 28       		.byte	0x28
 3021 0f5e 19       		.uleb128 0x19
 3022 0f5f 3E120000 		.4byte	.LASF271
 3023 0f63 0D       		.byte	0xd
 3024 0f64 8602     		.2byte	0x286
 3025 0f66 F6000000 		.4byte	0xf6
 3026 0f6a 2C       		.byte	0x2c
 3027 0f6b 19       		.uleb128 0x19
 3028 0f6c E5080000 		.4byte	.LASF248
 3029 0f70 0D       		.byte	0xd
 3030 0f71 8B02     		.2byte	0x28b
 3031 0f73 B60E0000 		.4byte	0xeb6
 3032 0f77 30       		.byte	0x30
 3033 0f78 19       		.uleb128 0x19
 3034 0f79 6C0B0000 		.4byte	.LASF261
 3035 0f7d 0D       		.byte	0xd
ARM GAS  C:\Users\jlabe\AppData\Local\Temp\ccJbzXZ1.s 			page 86


 3036 0f7e 8E02     		.2byte	0x28e
 3037 0f80 E4000000 		.4byte	0xe4
 3038 0f84 34       		.byte	0x34
 3039 0f85 00       		.byte	0
 3040 0f86 0F       		.uleb128 0xf
 3041 0f87 C1020000 		.4byte	.LASF272
 3042 0f8b 0D       		.byte	0xd
 3043 0f8c 9102     		.2byte	0x291
 3044 0f8e C20E0000 		.4byte	0xec2
 3045 0f92 1A       		.uleb128 0x1a
 3046 0f93 43090000 		.4byte	.LASF273
 3047 0f97 4C       		.byte	0x4c
 3048 0f98 0E       		.byte	0xe
 3049 0f99 2F       		.byte	0x2f
 3050 0f9a 83100000 		.4byte	0x1083
 3051 0f9e 0B       		.uleb128 0xb
 3052 0f9f 54160000 		.4byte	.LASF274
 3053 0fa3 0E       		.byte	0xe
 3054 0fa4 31       		.byte	0x31
 3055 0fa5 E4000000 		.4byte	0xe4
 3056 0fa9 00       		.byte	0
 3057 0faa 0B       		.uleb128 0xb
 3058 0fab 410B0000 		.4byte	.LASF275
 3059 0faf 0E       		.byte	0xe
 3060 0fb0 33       		.byte	0x33
 3061 0fb1 E4000000 		.4byte	0xe4
 3062 0fb5 04       		.byte	0x4
 3063 0fb6 0B       		.uleb128 0xb
 3064 0fb7 9A0F0000 		.4byte	.LASF276
 3065 0fbb 0E       		.byte	0xe
 3066 0fbc 34       		.byte	0x34
 3067 0fbd E4000000 		.4byte	0xe4
 3068 0fc1 08       		.byte	0x8
 3069 0fc2 0B       		.uleb128 0xb
 3070 0fc3 AB110000 		.4byte	.LASF277
 3071 0fc7 0E       		.byte	0xe
 3072 0fc8 35       		.byte	0x35
 3073 0fc9 E4000000 		.4byte	0xe4
 3074 0fcd 0C       		.byte	0xc
 3075 0fce 0B       		.uleb128 0xb
 3076 0fcf 7B100000 		.4byte	.LASF278
 3077 0fd3 0E       		.byte	0xe
 3078 0fd4 37       		.byte	0x37
 3079 0fd5 E4000000 		.4byte	0xe4
 3080 0fd9 10       		.byte	0x10
 3081 0fda 0B       		.uleb128 0xb
 3082 0fdb 3E040000 		.4byte	.LASF279
 3083 0fdf 0E       		.byte	0xe
 3084 0fe0 38       		.byte	0x38
 3085 0fe1 E4000000 		.4byte	0xe4
 3086 0fe5 14       		.byte	0x14
 3087 0fe6 0B       		.uleb128 0xb
 3088 0fe7 47040000 		.4byte	.LASF280
 3089 0feb 0E       		.byte	0xe
 3090 0fec 39       		.byte	0x39
 3091 0fed E4000000 		.4byte	0xe4
 3092 0ff1 18       		.byte	0x18
ARM GAS  C:\Users\jlabe\AppData\Local\Temp\ccJbzXZ1.s 			page 87


 3093 0ff2 0B       		.uleb128 0xb
 3094 0ff3 08110000 		.4byte	.LASF281
 3095 0ff7 0E       		.byte	0xe
 3096 0ff8 3A       		.byte	0x3a
 3097 0ff9 EC0B0000 		.4byte	0xbec
 3098 0ffd 1C       		.byte	0x1c
 3099 0ffe 0B       		.uleb128 0xb
 3100 0fff 27060000 		.4byte	.LASF282
 3101 1003 0E       		.byte	0xe
 3102 1004 3C       		.byte	0x3c
 3103 1005 E4000000 		.4byte	0xe4
 3104 1009 20       		.byte	0x20
 3105 100a 0B       		.uleb128 0xb
 3106 100b FD070000 		.4byte	.LASF283
 3107 100f 0E       		.byte	0xe
 3108 1010 3D       		.byte	0x3d
 3109 1011 E4000000 		.4byte	0xe4
 3110 1015 24       		.byte	0x24
 3111 1016 0B       		.uleb128 0xb
 3112 1017 8C0A0000 		.4byte	.LASF284
 3113 101b 0E       		.byte	0xe
 3114 101c 3F       		.byte	0x3f
 3115 101d E4000000 		.4byte	0xe4
 3116 1021 28       		.byte	0x28
 3117 1022 0B       		.uleb128 0xb
 3118 1023 CA0D0000 		.4byte	.LASF285
 3119 1027 0E       		.byte	0xe
 3120 1028 40       		.byte	0x40
 3121 1029 E4000000 		.4byte	0xe4
 3122 102d 2C       		.byte	0x2c
 3123 102e 0B       		.uleb128 0xb
 3124 102f D3060000 		.4byte	.LASF286
 3125 1033 0E       		.byte	0xe
 3126 1034 42       		.byte	0x42
 3127 1035 E4000000 		.4byte	0xe4
 3128 1039 30       		.byte	0x30
 3129 103a 0B       		.uleb128 0xb
 3130 103b DA070000 		.4byte	.LASF287
 3131 103f 0E       		.byte	0xe
 3132 1040 43       		.byte	0x43
 3133 1041 E4000000 		.4byte	0xe4
 3134 1045 34       		.byte	0x34
 3135 1046 0B       		.uleb128 0xb
 3136 1047 8C020000 		.4byte	.LASF288
 3137 104b 0E       		.byte	0xe
 3138 104c 45       		.byte	0x45
 3139 104d E4000000 		.4byte	0xe4
 3140 1051 38       		.byte	0x38
 3141 1052 0B       		.uleb128 0xb
 3142 1053 50000000 		.4byte	.LASF289
 3143 1057 0E       		.byte	0xe
 3144 1058 46       		.byte	0x46
 3145 1059 E4000000 		.4byte	0xe4
 3146 105d 3C       		.byte	0x3c
 3147 105e 0B       		.uleb128 0xb
 3148 105f 44030000 		.4byte	.LASF290
 3149 1063 0E       		.byte	0xe
ARM GAS  C:\Users\jlabe\AppData\Local\Temp\ccJbzXZ1.s 			page 88


 3150 1064 48       		.byte	0x48
 3151 1065 E4000000 		.4byte	0xe4
 3152 1069 40       		.byte	0x40
 3153 106a 0B       		.uleb128 0xb
 3154 106b 51110000 		.4byte	.LASF291
 3155 106f 0E       		.byte	0xe
 3156 1070 49       		.byte	0x49
 3157 1071 E4000000 		.4byte	0xe4
 3158 1075 44       		.byte	0x44
 3159 1076 0B       		.uleb128 0xb
 3160 1077 34150000 		.4byte	.LASF292
 3161 107b 0E       		.byte	0xe
 3162 107c 4B       		.byte	0x4b
 3163 107d E4000000 		.4byte	0xe4
 3164 1081 48       		.byte	0x48
 3165 1082 00       		.byte	0
 3166 1083 03       		.uleb128 0x3
 3167 1084 F10F0000 		.4byte	.LASF293
 3168 1088 0E       		.byte	0xe
 3169 1089 4C       		.byte	0x4c
 3170 108a 920F0000 		.4byte	0xf92
 3171 108e 1A       		.uleb128 0x1a
 3172 108f 51050000 		.4byte	.LASF294
 3173 1093 64       		.byte	0x64
 3174 1094 0F       		.byte	0xf
 3175 1095 2F       		.byte	0x2f
 3176 1096 C7110000 		.4byte	0x11c7
 3177 109a 0B       		.uleb128 0xb
 3178 109b 72030000 		.4byte	.LASF295
 3179 109f 0F       		.byte	0xf
 3180 10a0 31       		.byte	0x31
 3181 10a1 E4000000 		.4byte	0xe4
 3182 10a5 00       		.byte	0
 3183 10a6 0B       		.uleb128 0xb
 3184 10a7 410B0000 		.4byte	.LASF275
 3185 10ab 0F       		.byte	0xf
 3186 10ac 33       		.byte	0x33
 3187 10ad E4000000 		.4byte	0xe4
 3188 10b1 04       		.byte	0x4
 3189 10b2 0B       		.uleb128 0xb
 3190 10b3 D4090000 		.4byte	.LASF296
 3191 10b7 0F       		.byte	0xf
 3192 10b8 34       		.byte	0x34
 3193 10b9 E4000000 		.4byte	0xe4
 3194 10bd 08       		.byte	0x8
 3195 10be 0B       		.uleb128 0xb
 3196 10bf 6D140000 		.4byte	.LASF297
 3197 10c3 0F       		.byte	0xf
 3198 10c4 35       		.byte	0x35
 3199 10c5 E4000000 		.4byte	0xe4
 3200 10c9 0C       		.byte	0xc
 3201 10ca 0B       		.uleb128 0xb
 3202 10cb 9A0F0000 		.4byte	.LASF276
 3203 10cf 0F       		.byte	0xf
 3204 10d0 36       		.byte	0x36
 3205 10d1 E4000000 		.4byte	0xe4
 3206 10d5 10       		.byte	0x10
ARM GAS  C:\Users\jlabe\AppData\Local\Temp\ccJbzXZ1.s 			page 89


 3207 10d6 0B       		.uleb128 0xb
 3208 10d7 100D0000 		.4byte	.LASF298
 3209 10db 0F       		.byte	0xf
 3210 10dc 37       		.byte	0x37
 3211 10dd E4000000 		.4byte	0xe4
 3212 10e1 14       		.byte	0x14
 3213 10e2 0B       		.uleb128 0xb
 3214 10e3 14000000 		.4byte	.LASF299
 3215 10e7 0F       		.byte	0xf
 3216 10e8 38       		.byte	0x38
 3217 10e9 E4000000 		.4byte	0xe4
 3218 10ed 18       		.byte	0x18
 3219 10ee 0B       		.uleb128 0xb
 3220 10ef C00C0000 		.4byte	.LASF300
 3221 10f3 0F       		.byte	0xf
 3222 10f4 39       		.byte	0x39
 3223 10f5 EC0B0000 		.4byte	0xbec
 3224 10f9 1C       		.byte	0x1c
 3225 10fa 0B       		.uleb128 0xb
 3226 10fb 3E040000 		.4byte	.LASF279
 3227 10ff 0F       		.byte	0xf
 3228 1100 3A       		.byte	0x3a
 3229 1101 E4000000 		.4byte	0xe4
 3230 1105 20       		.byte	0x20
 3231 1106 0B       		.uleb128 0xb
 3232 1107 47040000 		.4byte	.LASF280
 3233 110b 0F       		.byte	0xf
 3234 110c 3B       		.byte	0x3b
 3235 110d E4000000 		.4byte	0xe4
 3236 1111 24       		.byte	0x24
 3237 1112 0B       		.uleb128 0xb
 3238 1113 08110000 		.4byte	.LASF281
 3239 1117 0F       		.byte	0xf
 3240 1118 3C       		.byte	0x3c
 3241 1119 EC0B0000 		.4byte	0xbec
 3242 111d 28       		.byte	0x28
 3243 111e 0B       		.uleb128 0xb
 3244 111f 27060000 		.4byte	.LASF282
 3245 1123 0F       		.byte	0xf
 3246 1124 3E       		.byte	0x3e
 3247 1125 E4000000 		.4byte	0xe4
 3248 1129 2C       		.byte	0x2c
 3249 112a 0B       		.uleb128 0xb
 3250 112b E40E0000 		.4byte	.LASF301
 3251 112f 0F       		.byte	0xf
 3252 1130 3F       		.byte	0x3f
 3253 1131 E4000000 		.4byte	0xe4
 3254 1135 30       		.byte	0x30
 3255 1136 0B       		.uleb128 0xb
 3256 1137 CC070000 		.4byte	.LASF302
 3257 113b 0F       		.byte	0xf
 3258 113c 40       		.byte	0x40
 3259 113d E4000000 		.4byte	0xe4
 3260 1141 34       		.byte	0x34
 3261 1142 0B       		.uleb128 0xb
 3262 1143 FF100000 		.4byte	.LASF303
 3263 1147 0F       		.byte	0xf
ARM GAS  C:\Users\jlabe\AppData\Local\Temp\ccJbzXZ1.s 			page 90


 3264 1148 41       		.byte	0x41
 3265 1149 E4000000 		.4byte	0xe4
 3266 114d 38       		.byte	0x38
 3267 114e 0B       		.uleb128 0xb
 3268 114f D80C0000 		.4byte	.LASF304
 3269 1153 0F       		.byte	0xf
 3270 1154 42       		.byte	0x42
 3271 1155 E4000000 		.4byte	0xe4
 3272 1159 3C       		.byte	0x3c
 3273 115a 0B       		.uleb128 0xb
 3274 115b 95090000 		.4byte	.LASF305
 3275 115f 0F       		.byte	0xf
 3276 1160 44       		.byte	0x44
 3277 1161 E4000000 		.4byte	0xe4
 3278 1165 40       		.byte	0x40
 3279 1166 0B       		.uleb128 0xb
 3280 1167 CA0D0000 		.4byte	.LASF285
 3281 116b 0F       		.byte	0xf
 3282 116c 45       		.byte	0x45
 3283 116d E4000000 		.4byte	0xe4
 3284 1171 44       		.byte	0x44
 3285 1172 0B       		.uleb128 0xb
 3286 1173 D3060000 		.4byte	.LASF286
 3287 1177 0F       		.byte	0xf
 3288 1178 47       		.byte	0x47
 3289 1179 E4000000 		.4byte	0xe4
 3290 117d 48       		.byte	0x48
 3291 117e 0B       		.uleb128 0xb
 3292 117f DA070000 		.4byte	.LASF287
 3293 1183 0F       		.byte	0xf
 3294 1184 48       		.byte	0x48
 3295 1185 E4000000 		.4byte	0xe4
 3296 1189 4C       		.byte	0x4c
 3297 118a 0B       		.uleb128 0xb
 3298 118b 8C020000 		.4byte	.LASF288
 3299 118f 0F       		.byte	0xf
 3300 1190 4A       		.byte	0x4a
 3301 1191 E4000000 		.4byte	0xe4
 3302 1195 50       		.byte	0x50
 3303 1196 0B       		.uleb128 0xb
 3304 1197 DA130000 		.4byte	.LASF306
 3305 119b 0F       		.byte	0xf
 3306 119c 4B       		.byte	0x4b
 3307 119d E4000000 		.4byte	0xe4
 3308 11a1 54       		.byte	0x54
 3309 11a2 0B       		.uleb128 0xb
 3310 11a3 A3130000 		.4byte	.LASF307
 3311 11a7 0F       		.byte	0xf
 3312 11a8 4D       		.byte	0x4d
 3313 11a9 E4000000 		.4byte	0xe4
 3314 11ad 58       		.byte	0x58
 3315 11ae 0B       		.uleb128 0xb
 3316 11af 51110000 		.4byte	.LASF291
 3317 11b3 0F       		.byte	0xf
 3318 11b4 4E       		.byte	0x4e
 3319 11b5 E4000000 		.4byte	0xe4
 3320 11b9 5C       		.byte	0x5c
ARM GAS  C:\Users\jlabe\AppData\Local\Temp\ccJbzXZ1.s 			page 91


 3321 11ba 0B       		.uleb128 0xb
 3322 11bb 34150000 		.4byte	.LASF292
 3323 11bf 0F       		.byte	0xf
 3324 11c0 50       		.byte	0x50
 3325 11c1 E4000000 		.4byte	0xe4
 3326 11c5 60       		.byte	0x60
 3327 11c6 00       		.byte	0
 3328 11c7 03       		.uleb128 0x3
 3329 11c8 730F0000 		.4byte	.LASF308
 3330 11cc 0F       		.byte	0xf
 3331 11cd 51       		.byte	0x51
 3332 11ce 8E100000 		.4byte	0x108e
 3333 11d2 10       		.uleb128 0x10
 3334 11d3 04       		.byte	0x4
 3335 11d4 70070000 		.4byte	0x770
 3336 11d8 03       		.uleb128 0x3
 3337 11d9 B40E0000 		.4byte	.LASF309
 3338 11dd 10       		.byte	0x10
 3339 11de 3F       		.byte	0x3f
 3340 11df E4000000 		.4byte	0xe4
 3341 11e3 0F       		.uleb128 0xf
 3342 11e4 F9080000 		.4byte	.LASF310
 3343 11e8 11       		.byte	0x11
 3344 11e9 C002     		.2byte	0x2c0
 3345 11eb EF110000 		.4byte	0x11ef
 3346 11ef 10       		.uleb128 0x10
 3347 11f0 04       		.byte	0x4
 3348 11f1 F5110000 		.4byte	0x11f5
 3349 11f5 17       		.uleb128 0x17
 3350 11f6 AD000000 		.4byte	0xad
 3351 11fa 13120000 		.4byte	0x1213
 3352 11fe 16       		.uleb128 0x16
 3353 11ff B8000000 		.4byte	0xb8
 3354 1203 16       		.uleb128 0x16
 3355 1204 B8000000 		.4byte	0xb8
 3356 1208 16       		.uleb128 0x16
 3357 1209 040E0000 		.4byte	0xe04
 3358 120d 16       		.uleb128 0x16
 3359 120e CE000000 		.4byte	0xce
 3360 1212 00       		.byte	0
 3361 1213 0F       		.uleb128 0xf
 3362 1214 33050000 		.4byte	.LASF311
 3363 1218 11       		.byte	0x11
 3364 1219 C302     		.2byte	0x2c3
 3365 121b B30C0000 		.4byte	0xcb3
 3366 121f 18       		.uleb128 0x18
 3367 1220 1F010000 		.4byte	.LASF312
 3368 1224 0C       		.byte	0xc
 3369 1225 11       		.byte	0x11
 3370 1226 2303     		.2byte	0x323
 3371 1228 5B120000 		.4byte	0x125b
 3372 122c 1B       		.uleb128 0x1b
 3373 122d 7800     		.ascii	"x\000"
 3374 122f 11       		.byte	0x11
 3375 1230 2503     		.2byte	0x325
 3376 1232 C3000000 		.4byte	0xc3
 3377 1236 00       		.byte	0
ARM GAS  C:\Users\jlabe\AppData\Local\Temp\ccJbzXZ1.s 			page 92


 3378 1237 1B       		.uleb128 0x1b
 3379 1238 7900     		.ascii	"y\000"
 3380 123a 11       		.byte	0x11
 3381 123b 2703     		.2byte	0x327
 3382 123d C3000000 		.4byte	0xc3
 3383 1241 02       		.byte	0x2
 3384 1242 1B       		.uleb128 0x1b
 3385 1243 7A00     		.ascii	"z\000"
 3386 1245 11       		.byte	0x11
 3387 1246 2903     		.2byte	0x329
 3388 1248 C3000000 		.4byte	0xc3
 3389 124c 04       		.byte	0x4
 3390 124d 19       		.uleb128 0x19
 3391 124e F2150000 		.4byte	.LASF313
 3392 1252 11       		.byte	0x11
 3393 1253 2B03     		.2byte	0x32b
 3394 1255 E4000000 		.4byte	0xe4
 3395 1259 08       		.byte	0x8
 3396 125a 00       		.byte	0
 3397 125b 1C       		.uleb128 0x1c
 3398 125c 5E000000 		.4byte	.LASF326
 3399 1260 01       		.byte	0x1
 3400 1261 49000000 		.4byte	0x49
 3401 1265 11       		.byte	0x11
 3402 1266 8603     		.2byte	0x386
 3403 1268 7F120000 		.4byte	0x127f
 3404 126c 13       		.uleb128 0x13
 3405 126d 77080000 		.4byte	.LASF314
 3406 1271 01       		.byte	0x1
 3407 1272 13       		.uleb128 0x13
 3408 1273 9C140000 		.4byte	.LASF315
 3409 1277 02       		.byte	0x2
 3410 1278 13       		.uleb128 0x13
 3411 1279 D0100000 		.4byte	.LASF316
 3412 127d 03       		.byte	0x3
 3413 127e 00       		.byte	0
 3414 127f 18       		.uleb128 0x18
 3415 1280 9E010000 		.4byte	.LASF317
 3416 1284 04       		.byte	0x4
 3417 1285 11       		.byte	0x11
 3418 1286 A303     		.2byte	0x3a3
 3419 1288 C0120000 		.4byte	0x12c0
 3420 128c 19       		.uleb128 0x19
 3421 128d 0B160000 		.4byte	.LASF318
 3422 1291 11       		.byte	0x11
 3423 1292 A503     		.2byte	0x3a5
 3424 1294 B8000000 		.4byte	0xb8
 3425 1298 00       		.byte	0
 3426 1299 1B       		.uleb128 0x1b
 3427 129a 6F647200 		.ascii	"odr\000"
 3428 129e 11       		.byte	0x11
 3429 129f A703     		.2byte	0x3a7
 3430 12a1 B8000000 		.4byte	0xb8
 3431 12a5 01       		.byte	0x1
 3432 12a6 19       		.uleb128 0x19
 3433 12a7 EF0D0000 		.4byte	.LASF319
 3434 12ab 11       		.byte	0x11
ARM GAS  C:\Users\jlabe\AppData\Local\Temp\ccJbzXZ1.s 			page 93


 3435 12ac A903     		.2byte	0x3a9
 3436 12ae B8000000 		.4byte	0xb8
 3437 12b2 02       		.byte	0x2
 3438 12b3 1B       		.uleb128 0x1b
 3439 12b4 627700   		.ascii	"bw\000"
 3440 12b7 11       		.byte	0x11
 3441 12b8 AB03     		.2byte	0x3ab
 3442 12ba B8000000 		.4byte	0xb8
 3443 12be 03       		.byte	0x3
 3444 12bf 00       		.byte	0
 3445 12c0 18       		.uleb128 0x18
 3446 12c1 8C160000 		.4byte	.LASF320
 3447 12c5 02       		.byte	0x2
 3448 12c6 11       		.byte	0x11
 3449 12c7 B103     		.2byte	0x3b1
 3450 12c9 1B130000 		.4byte	0x131b
 3451 12cd 1D       		.uleb128 0x1d
 3452 12ce D0110000 		.4byte	.LASF321
 3453 12d2 11       		.byte	0x11
 3454 12d3 B303     		.2byte	0x3b3
 3455 12d5 B8000000 		.4byte	0xb8
 3456 12d9 01       		.byte	0x1
 3457 12da 01       		.byte	0x1
 3458 12db 07       		.byte	0x7
 3459 12dc 00       		.byte	0
 3460 12dd 1D       		.uleb128 0x1d
 3461 12de 0F120000 		.4byte	.LASF322
 3462 12e2 11       		.byte	0x11
 3463 12e3 B503     		.2byte	0x3b5
 3464 12e5 B8000000 		.4byte	0xb8
 3465 12e9 01       		.byte	0x1
 3466 12ea 01       		.byte	0x1
 3467 12eb 06       		.byte	0x6
 3468 12ec 00       		.byte	0
 3469 12ed 1D       		.uleb128 0x1d
 3470 12ee 2D180000 		.4byte	.LASF323
 3471 12f2 11       		.byte	0x11
 3472 12f3 B703     		.2byte	0x3b7
 3473 12f5 B8000000 		.4byte	0xb8
 3474 12f9 01       		.byte	0x1
 3475 12fa 02       		.byte	0x2
 3476 12fb 04       		.byte	0x4
 3477 12fc 00       		.byte	0
 3478 12fd 1D       		.uleb128 0x1d
 3479 12fe BE010000 		.4byte	.LASF324
 3480 1302 11       		.byte	0x11
 3481 1303 B903     		.2byte	0x3b9
 3482 1305 B8000000 		.4byte	0xb8
 3483 1309 01       		.byte	0x1
 3484 130a 04       		.byte	0x4
 3485 130b 00       		.byte	0
 3486 130c 00       		.byte	0
 3487 130d 19       		.uleb128 0x19
 3488 130e FE130000 		.4byte	.LASF325
 3489 1312 11       		.byte	0x11
 3490 1313 BB03     		.2byte	0x3bb
 3491 1315 B8000000 		.4byte	0xb8
ARM GAS  C:\Users\jlabe\AppData\Local\Temp\ccJbzXZ1.s 			page 94


 3492 1319 01       		.byte	0x1
 3493 131a 00       		.byte	0
 3494 131b 1C       		.uleb128 0x1c
 3495 131c 030F0000 		.4byte	.LASF327
 3496 1320 01       		.byte	0x1
 3497 1321 37000000 		.4byte	0x37
 3498 1325 11       		.byte	0x11
 3499 1326 EC03     		.2byte	0x3ec
 3500 1328 3F130000 		.4byte	0x133f
 3501 132c 1E       		.uleb128 0x1e
 3502 132d FE030000 		.4byte	.LASF328
 3503 1331 7F       		.sleb128 -1
 3504 1332 13       		.uleb128 0x13
 3505 1333 CB080000 		.4byte	.LASF329
 3506 1337 00       		.byte	0
 3507 1338 13       		.uleb128 0x13
 3508 1339 D6050000 		.4byte	.LASF330
 3509 133d 01       		.byte	0x1
 3510 133e 00       		.byte	0
 3511 133f 18       		.uleb128 0x18
 3512 1340 20130000 		.4byte	.LASF331
 3513 1344 18       		.byte	0x18
 3514 1345 11       		.byte	0x11
 3515 1346 5005     		.2byte	0x550
 3516 1348 CF130000 		.4byte	0x13cf
 3517 134c 19       		.uleb128 0x19
 3518 134d 500B0000 		.4byte	.LASF332
 3519 1351 11       		.byte	0x11
 3520 1352 5205     		.2byte	0x552
 3521 1354 040E0000 		.4byte	0xe04
 3522 1358 00       		.byte	0
 3523 1359 19       		.uleb128 0x19
 3524 135a 6C110000 		.4byte	.LASF333
 3525 135e 11       		.byte	0x11
 3526 135f 5805     		.2byte	0x558
 3527 1361 CE000000 		.4byte	0xce
 3528 1365 04       		.byte	0x4
 3529 1366 19       		.uleb128 0x19
 3530 1367 4E180000 		.4byte	.LASF334
 3531 136b 11       		.byte	0x11
 3532 136c 5A05     		.2byte	0x55a
 3533 136e B8000000 		.4byte	0xb8
 3534 1372 06       		.byte	0x6
 3535 1373 19       		.uleb128 0x19
 3536 1374 B4050000 		.4byte	.LASF335
 3537 1378 11       		.byte	0x11
 3538 1379 5C05     		.2byte	0x55c
 3539 137b B8000000 		.4byte	0xb8
 3540 137f 07       		.byte	0x7
 3541 1380 19       		.uleb128 0x19
 3542 1381 DF0B0000 		.4byte	.LASF336
 3543 1385 11       		.byte	0x11
 3544 1386 5F05     		.2byte	0x55f
 3545 1388 B8000000 		.4byte	0xb8
 3546 138c 08       		.byte	0x8
 3547 138d 19       		.uleb128 0x19
 3548 138e F4160000 		.4byte	.LASF337
ARM GAS  C:\Users\jlabe\AppData\Local\Temp\ccJbzXZ1.s 			page 95


 3549 1392 11       		.byte	0x11
 3550 1393 6105     		.2byte	0x561
 3551 1395 CE000000 		.4byte	0xce
 3552 1399 0A       		.byte	0xa
 3553 139a 19       		.uleb128 0x19
 3554 139b A00E0000 		.4byte	.LASF338
 3555 139f 11       		.byte	0x11
 3556 13a0 6305     		.2byte	0x563
 3557 13a2 CE000000 		.4byte	0xce
 3558 13a6 0C       		.byte	0xc
 3559 13a7 19       		.uleb128 0x19
 3560 13a8 900C0000 		.4byte	.LASF339
 3561 13ac 11       		.byte	0x11
 3562 13ad 6505     		.2byte	0x565
 3563 13af CE000000 		.4byte	0xce
 3564 13b3 0E       		.byte	0xe
 3565 13b4 19       		.uleb128 0x19
 3566 13b5 A1080000 		.4byte	.LASF340
 3567 13b9 11       		.byte	0x11
 3568 13ba 6705     		.2byte	0x567
 3569 13bc E4000000 		.4byte	0xe4
 3570 13c0 10       		.byte	0x10
 3571 13c1 19       		.uleb128 0x19
 3572 13c2 9B160000 		.4byte	.LASF341
 3573 13c6 11       		.byte	0x11
 3574 13c7 6905     		.2byte	0x569
 3575 13c9 B8000000 		.4byte	0xb8
 3576 13cd 14       		.byte	0x14
 3577 13ce 00       		.byte	0
 3578 13cf 18       		.uleb128 0x18
 3579 13d0 210B0000 		.4byte	.LASF342
 3580 13d4 28       		.byte	0x28
 3581 13d5 11       		.byte	0x11
 3582 13d6 6C05     		.2byte	0x56c
 3583 13d8 92140000 		.4byte	0x1492
 3584 13dc 19       		.uleb128 0x19
 3585 13dd 94080000 		.4byte	.LASF343
 3586 13e1 11       		.byte	0x11
 3587 13e2 6E05     		.2byte	0x56e
 3588 13e4 B8000000 		.4byte	0xb8
 3589 13e8 00       		.byte	0
 3590 13e9 1B       		.uleb128 0x1b
 3591 13ea 696400   		.ascii	"id\000"
 3592 13ed 11       		.byte	0x11
 3593 13ee 7005     		.2byte	0x570
 3594 13f0 B8000000 		.4byte	0xb8
 3595 13f4 01       		.byte	0x1
 3596 13f5 19       		.uleb128 0x19
 3597 13f6 C6010000 		.4byte	.LASF344
 3598 13fa 11       		.byte	0x11
 3599 13fb 7205     		.2byte	0x572
 3600 13fd B8000000 		.4byte	0xb8
 3601 1401 02       		.byte	0x2
 3602 1402 19       		.uleb128 0x19
 3603 1403 3F080000 		.4byte	.LASF345
 3604 1407 11       		.byte	0x11
 3605 1408 7605     		.2byte	0x576
ARM GAS  C:\Users\jlabe\AppData\Local\Temp\ccJbzXZ1.s 			page 96


 3606 140a 1B130000 		.4byte	0x131b
 3607 140e 03       		.byte	0x3
 3608 140f 19       		.uleb128 0x19
 3609 1410 810E0000 		.4byte	.LASF346
 3610 1414 11       		.byte	0x11
 3611 1415 7805     		.2byte	0x578
 3612 1417 7F120000 		.4byte	0x127f
 3613 141b 04       		.byte	0x4
 3614 141c 19       		.uleb128 0x19
 3615 141d 8B0E0000 		.4byte	.LASF347
 3616 1421 11       		.byte	0x11
 3617 1422 7C05     		.2byte	0x57c
 3618 1424 7F120000 		.4byte	0x127f
 3619 1428 08       		.byte	0x8
 3620 1429 19       		.uleb128 0x19
 3621 142a 540D0000 		.4byte	.LASF348
 3622 142e 11       		.byte	0x11
 3623 142f 7E05     		.2byte	0x57e
 3624 1431 7F120000 		.4byte	0x127f
 3625 1435 0C       		.byte	0xc
 3626 1436 19       		.uleb128 0x19
 3627 1437 220D0000 		.4byte	.LASF349
 3628 143b 11       		.byte	0x11
 3629 143c 8205     		.2byte	0x582
 3630 143e 7F120000 		.4byte	0x127f
 3631 1442 10       		.byte	0x10
 3632 1443 19       		.uleb128 0x19
 3633 1444 B70A0000 		.4byte	.LASF350
 3634 1448 11       		.byte	0x11
 3635 1449 8405     		.2byte	0x584
 3636 144b C0120000 		.4byte	0x12c0
 3637 144f 14       		.byte	0x14
 3638 1450 19       		.uleb128 0x19
 3639 1451 25000000 		.4byte	.LASF351
 3640 1455 11       		.byte	0x11
 3641 1456 8805     		.2byte	0x588
 3642 1458 C0120000 		.4byte	0x12c0
 3643 145c 16       		.byte	0x16
 3644 145d 19       		.uleb128 0x19
 3645 145e 9C080000 		.4byte	.LASF352
 3646 1462 11       		.byte	0x11
 3647 1463 8A05     		.2byte	0x58a
 3648 1465 92140000 		.4byte	0x1492
 3649 1469 18       		.byte	0x18
 3650 146a 19       		.uleb128 0x19
 3651 146b D4120000 		.4byte	.LASF353
 3652 146f 11       		.byte	0x11
 3653 1470 8C05     		.2byte	0x58c
 3654 1472 E3110000 		.4byte	0x11e3
 3655 1476 1C       		.byte	0x1c
 3656 1477 19       		.uleb128 0x19
 3657 1478 BA0C0000 		.4byte	.LASF354
 3658 147c 11       		.byte	0x11
 3659 147d 8E05     		.2byte	0x58e
 3660 147f E3110000 		.4byte	0x11e3
 3661 1483 20       		.byte	0x20
 3662 1484 19       		.uleb128 0x19
ARM GAS  C:\Users\jlabe\AppData\Local\Temp\ccJbzXZ1.s 			page 97


 3663 1485 000A0000 		.4byte	.LASF355
 3664 1489 11       		.byte	0x11
 3665 148a 9005     		.2byte	0x590
 3666 148c 13120000 		.4byte	0x1213
 3667 1490 24       		.byte	0x24
 3668 1491 00       		.byte	0
 3669 1492 10       		.uleb128 0x10
 3670 1493 04       		.byte	0x4
 3671 1494 3F130000 		.4byte	0x133f
 3672 1498 1F       		.uleb128 0x1f
 3673 1499 58140000 		.4byte	.LASF356
 3674 149d 02       		.byte	0x2
 3675 149e 5202     		.2byte	0x252
 3676 14a0 4F0C0000 		.4byte	0xc4f
 3677 14a4 03       		.byte	0x3
 3678 14a5 B6140000 		.4byte	0x14b6
 3679 14a9 20       		.uleb128 0x20
 3680 14aa 11070000 		.4byte	.LASF358
 3681 14ae 02       		.byte	0x2
 3682 14af 5202     		.2byte	0x252
 3683 14b1 E4000000 		.4byte	0xe4
 3684 14b5 00       		.byte	0
 3685 14b6 1F       		.uleb128 0x1f
 3686 14b7 300D0000 		.4byte	.LASF357
 3687 14bb 02       		.byte	0x2
 3688 14bc 5F02     		.2byte	0x25f
 3689 14be 4F0C0000 		.4byte	0xc4f
 3690 14c2 03       		.byte	0x3
 3691 14c3 EC140000 		.4byte	0x14ec
 3692 14c7 20       		.uleb128 0x20
 3693 14c8 37080000 		.4byte	.LASF359
 3694 14cc 02       		.byte	0x2
 3695 14cd 5F02     		.2byte	0x25f
 3696 14cf 9B0C0000 		.4byte	0xc9b
 3697 14d3 20       		.uleb128 0x20
 3698 14d4 88140000 		.4byte	.LASF360
 3699 14d8 02       		.byte	0x2
 3700 14d9 5F02     		.2byte	0x25f
 3701 14db 040E0000 		.4byte	0xe04
 3702 14df 20       		.uleb128 0x20
 3703 14e0 11070000 		.4byte	.LASF358
 3704 14e4 02       		.byte	0x2
 3705 14e5 5F02     		.2byte	0x25f
 3706 14e7 E4000000 		.4byte	0xe4
 3707 14eb 00       		.byte	0
 3708 14ec 1F       		.uleb128 0x1f
 3709 14ed 57130000 		.4byte	.LASF361
 3710 14f1 02       		.byte	0x2
 3711 14f2 4502     		.2byte	0x245
 3712 14f4 4F0C0000 		.4byte	0xc4f
 3713 14f8 03       		.byte	0x3
 3714 14f9 22150000 		.4byte	0x1522
 3715 14fd 20       		.uleb128 0x20
 3716 14fe 1D140000 		.4byte	.LASF362
 3717 1502 02       		.byte	0x2
 3718 1503 4502     		.2byte	0x245
 3719 1505 E4000000 		.4byte	0xe4
ARM GAS  C:\Users\jlabe\AppData\Local\Temp\ccJbzXZ1.s 			page 98


 3720 1509 20       		.uleb128 0x20
 3721 150a 7B170000 		.4byte	.LASF363
 3722 150e 02       		.byte	0x2
 3723 150f 4502     		.2byte	0x245
 3724 1511 750C0000 		.4byte	0xc75
 3725 1515 20       		.uleb128 0x20
 3726 1516 11070000 		.4byte	.LASF358
 3727 151a 02       		.byte	0x2
 3728 151b 4502     		.2byte	0x245
 3729 151d E4000000 		.4byte	0xe4
 3730 1521 00       		.byte	0
 3731 1522 1F       		.uleb128 0x1f
 3732 1523 DC150000 		.4byte	.LASF364
 3733 1527 02       		.byte	0x2
 3734 1528 6C02     		.2byte	0x26c
 3735 152a 4F0C0000 		.4byte	0xc4f
 3736 152e 03       		.byte	0x3
 3737 152f 4C150000 		.4byte	0x154c
 3738 1533 20       		.uleb128 0x20
 3739 1534 88140000 		.4byte	.LASF360
 3740 1538 02       		.byte	0x2
 3741 1539 6C02     		.2byte	0x26c
 3742 153b B8000000 		.4byte	0xb8
 3743 153f 20       		.uleb128 0x20
 3744 1540 11070000 		.4byte	.LASF358
 3745 1544 02       		.byte	0x2
 3746 1545 6C02     		.2byte	0x26c
 3747 1547 E4000000 		.4byte	0xe4
 3748 154b 00       		.byte	0
 3749 154c 1F       		.uleb128 0x1f
 3750 154d 1A110000 		.4byte	.LASF365
 3751 1551 02       		.byte	0x2
 3752 1552 3802     		.2byte	0x238
 3753 1554 4F0C0000 		.4byte	0xc4f
 3754 1558 03       		.byte	0x3
 3755 1559 82150000 		.4byte	0x1582
 3756 155d 20       		.uleb128 0x20
 3757 155e 1D140000 		.4byte	.LASF362
 3758 1562 02       		.byte	0x2
 3759 1563 3802     		.2byte	0x238
 3760 1565 E4000000 		.4byte	0xe4
 3761 1569 20       		.uleb128 0x20
 3762 156a 7B170000 		.4byte	.LASF363
 3763 156e 02       		.byte	0x2
 3764 156f 3802     		.2byte	0x238
 3765 1571 750C0000 		.4byte	0xc75
 3766 1575 20       		.uleb128 0x20
 3767 1576 11070000 		.4byte	.LASF358
 3768 157a 02       		.byte	0x2
 3769 157b 3802     		.2byte	0x238
 3770 157d E4000000 		.4byte	0xe4
 3771 1581 00       		.byte	0
 3772 1582 1F       		.uleb128 0x1f
 3773 1583 CC160000 		.4byte	.LASF366
 3774 1587 03       		.byte	0x3
 3775 1588 0703     		.2byte	0x307
 3776 158a E4000000 		.4byte	0xe4
ARM GAS  C:\Users\jlabe\AppData\Local\Temp\ccJbzXZ1.s 			page 99


 3777 158e 03       		.byte	0x3
 3778 158f AC150000 		.4byte	0x15ac
 3779 1593 20       		.uleb128 0x20
 3780 1594 AE060000 		.4byte	.LASF367
 3781 1598 03       		.byte	0x3
 3782 1599 0703     		.2byte	0x307
 3783 159b D2110000 		.4byte	0x11d2
 3784 159f 20       		.uleb128 0x20
 3785 15a0 33160000 		.4byte	.LASF368
 3786 15a4 03       		.byte	0x3
 3787 15a5 0703     		.2byte	0x307
 3788 15a7 E4000000 		.4byte	0xe4
 3789 15ab 00       		.byte	0
 3790 15ac 21       		.uleb128 0x21
 3791 15ad E1090000 		.4byte	.LASF371
 3792 15b1 01       		.byte	0x1
 3793 15b2 EF       		.byte	0xef
 3794 15b3 AD000000 		.4byte	0xad
 3795 15b7 00000000 		.4byte	.LFB703
 3796 15bb 5C000000 		.4byte	.LFE703-.LFB703
 3797 15bf 01       		.uleb128 0x1
 3798 15c0 9C       		.byte	0x9c
 3799 15c1 A3160000 		.4byte	0x16a3
 3800 15c5 22       		.uleb128 0x22
 3801 15c6 E2110000 		.4byte	.LASF369
 3802 15ca 01       		.byte	0x1
 3803 15cb EF       		.byte	0xef
 3804 15cc B8000000 		.4byte	0xb8
 3805 15d0 00000000 		.4byte	.LLST0
 3806 15d4 22       		.uleb128 0x22
 3807 15d5 630A0000 		.4byte	.LASF370
 3808 15d9 01       		.byte	0x1
 3809 15da EF       		.byte	0xef
 3810 15db B8000000 		.4byte	0xb8
 3811 15df 21000000 		.4byte	.LLST1
 3812 15e3 22       		.uleb128 0x22
 3813 15e4 500B0000 		.4byte	.LASF332
 3814 15e8 01       		.byte	0x1
 3815 15e9 EF       		.byte	0xef
 3816 15ea 040E0000 		.4byte	0xe04
 3817 15ee 42000000 		.4byte	.LLST2
 3818 15f2 23       		.uleb128 0x23
 3819 15f3 6C656E00 		.ascii	"len\000"
 3820 15f7 01       		.byte	0x1
 3821 15f8 EF       		.byte	0xef
 3822 15f9 CE000000 		.4byte	0xce
 3823 15fd 6E000000 		.4byte	.LLST3
 3824 1601 24       		.uleb128 0x24
 3825 1602 2A000000 		.4byte	.LBB34
 3826 1606 16000000 		.4byte	.LBE34-.LBB34
 3827 160a 3A160000 		.4byte	0x163a
 3828 160e 25       		.uleb128 0x25
 3829 160f 6900     		.ascii	"i\000"
 3830 1611 01       		.byte	0x1
 3831 1612 F3       		.byte	0xf3
 3832 1613 9F000000 		.4byte	0x9f
 3833 1617 8F000000 		.4byte	.LLST4
ARM GAS  C:\Users\jlabe\AppData\Local\Temp\ccJbzXZ1.s 			page 100


 3834 161b 26       		.uleb128 0x26
 3835 161c 3A000000 		.4byte	.LVL8
 3836 1620 A5220000 		.4byte	0x22a5
 3837 1624 27       		.uleb128 0x27
 3838 1625 01       		.uleb128 0x1
 3839 1626 50       		.byte	0x50
 3840 1627 05       		.uleb128 0x5
 3841 1628 0C       		.byte	0xc
 3842 1629 00006340 		.4byte	0x40630000
 3843 162d 27       		.uleb128 0x27
 3844 162e 01       		.uleb128 0x1
 3845 162f 52       		.byte	0x52
 3846 1630 01       		.uleb128 0x1
 3847 1631 30       		.byte	0x30
 3848 1632 27       		.uleb128 0x27
 3849 1633 01       		.uleb128 0x1
 3850 1634 53       		.byte	0x53
 3851 1635 02       		.uleb128 0x2
 3852 1636 77       		.byte	0x77
 3853 1637 00       		.sleb128 0
 3854 1638 00       		.byte	0
 3855 1639 00       		.byte	0
 3856 163a 28       		.uleb128 0x28
 3857 163b 1E000000 		.4byte	.LVL5
 3858 163f B1220000 		.4byte	0x22b1
 3859 1643 5F160000 		.4byte	0x165f
 3860 1647 27       		.uleb128 0x27
 3861 1648 01       		.uleb128 0x1
 3862 1649 50       		.byte	0x50
 3863 164a 02       		.uleb128 0x2
 3864 164b 74       		.byte	0x74
 3865 164c 00       		.sleb128 0
 3866 164d 27       		.uleb128 0x27
 3867 164e 01       		.uleb128 0x1
 3868 164f 52       		.byte	0x52
 3869 1650 01       		.uleb128 0x1
 3870 1651 30       		.byte	0x30
 3871 1652 27       		.uleb128 0x27
 3872 1653 01       		.uleb128 0x1
 3873 1654 53       		.byte	0x53
 3874 1655 01       		.uleb128 0x1
 3875 1656 30       		.byte	0x30
 3876 1657 27       		.uleb128 0x27
 3877 1658 02       		.uleb128 0x2
 3878 1659 7D       		.byte	0x7d
 3879 165a 00       		.sleb128 0
 3880 165b 02       		.uleb128 0x2
 3881 165c 77       		.byte	0x77
 3882 165d 00       		.sleb128 0
 3883 165e 00       		.byte	0
 3884 165f 28       		.uleb128 0x28
 3885 1660 2A000000 		.4byte	.LVL6
 3886 1664 A5220000 		.4byte	0x22a5
 3887 1668 84160000 		.4byte	0x1684
 3888 166c 27       		.uleb128 0x27
 3889 166d 01       		.uleb128 0x1
 3890 166e 50       		.byte	0x50
ARM GAS  C:\Users\jlabe\AppData\Local\Temp\ccJbzXZ1.s 			page 101


 3891 166f 02       		.uleb128 0x2
 3892 1670 74       		.byte	0x74
 3893 1671 00       		.sleb128 0
 3894 1672 27       		.uleb128 0x27
 3895 1673 01       		.uleb128 0x1
 3896 1674 51       		.byte	0x51
 3897 1675 02       		.uleb128 0x2
 3898 1676 78       		.byte	0x78
 3899 1677 00       		.sleb128 0
 3900 1678 27       		.uleb128 0x27
 3901 1679 01       		.uleb128 0x1
 3902 167a 52       		.byte	0x52
 3903 167b 01       		.uleb128 0x1
 3904 167c 30       		.byte	0x30
 3905 167d 27       		.uleb128 0x27
 3906 167e 01       		.uleb128 0x1
 3907 167f 53       		.byte	0x53
 3908 1680 02       		.uleb128 0x2
 3909 1681 77       		.byte	0x77
 3910 1682 00       		.sleb128 0
 3911 1683 00       		.byte	0
 3912 1684 26       		.uleb128 0x26
 3913 1685 4A000000 		.4byte	.LVL10
 3914 1689 BD220000 		.4byte	0x22bd
 3915 168d 27       		.uleb128 0x27
 3916 168e 01       		.uleb128 0x1
 3917 168f 50       		.byte	0x50
 3918 1690 05       		.uleb128 0x5
 3919 1691 0C       		.byte	0xc
 3920 1692 00006340 		.4byte	0x40630000
 3921 1696 27       		.uleb128 0x27
 3922 1697 01       		.uleb128 0x1
 3923 1698 51       		.byte	0x51
 3924 1699 01       		.uleb128 0x1
 3925 169a 30       		.byte	0x30
 3926 169b 27       		.uleb128 0x27
 3927 169c 01       		.uleb128 0x1
 3928 169d 52       		.byte	0x52
 3929 169e 02       		.uleb128 0x2
 3930 169f 77       		.byte	0x77
 3931 16a0 00       		.sleb128 0
 3932 16a1 00       		.byte	0
 3933 16a2 00       		.byte	0
 3934 16a3 21       		.uleb128 0x21
 3935 16a4 E3170000 		.4byte	.LASF372
 3936 16a8 01       		.byte	0x1
 3937 16a9 FE       		.byte	0xfe
 3938 16aa AD000000 		.4byte	0xad
 3939 16ae 00000000 		.4byte	.LFB704
 3940 16b2 84000000 		.4byte	.LFE704-.LFB704
 3941 16b6 01       		.uleb128 0x1
 3942 16b7 9C       		.byte	0x9c
 3943 16b8 FD170000 		.4byte	0x17fd
 3944 16bc 22       		.uleb128 0x22
 3945 16bd E2110000 		.4byte	.LASF369
 3946 16c1 01       		.byte	0x1
 3947 16c2 FE       		.byte	0xfe
ARM GAS  C:\Users\jlabe\AppData\Local\Temp\ccJbzXZ1.s 			page 102


 3948 16c3 B8000000 		.4byte	0xb8
 3949 16c7 AE000000 		.4byte	.LLST5
 3950 16cb 22       		.uleb128 0x22
 3951 16cc 630A0000 		.4byte	.LASF370
 3952 16d0 01       		.byte	0x1
 3953 16d1 FE       		.byte	0xfe
 3954 16d2 B8000000 		.4byte	0xb8
 3955 16d6 CF000000 		.4byte	.LLST6
 3956 16da 22       		.uleb128 0x22
 3957 16db 500B0000 		.4byte	.LASF332
 3958 16df 01       		.byte	0x1
 3959 16e0 FE       		.byte	0xfe
 3960 16e1 040E0000 		.4byte	0xe04
 3961 16e5 F0000000 		.4byte	.LLST7
 3962 16e9 23       		.uleb128 0x23
 3963 16ea 6C656E00 		.ascii	"len\000"
 3964 16ee 01       		.byte	0x1
 3965 16ef FE       		.byte	0xfe
 3966 16f0 CE000000 		.4byte	0xce
 3967 16f4 1C010000 		.4byte	.LLST8
 3968 16f8 24       		.uleb128 0x24
 3969 16f9 3A000000 		.4byte	.LBB35
 3970 16fd 1C000000 		.4byte	.LBE35-.LBB35
 3971 1701 41170000 		.4byte	0x1741
 3972 1705 29       		.uleb128 0x29
 3973 1706 6900     		.ascii	"i\000"
 3974 1708 01       		.byte	0x1
 3975 1709 0301     		.2byte	0x103
 3976 170b 9F000000 		.4byte	0x9f
 3977 170f 3D010000 		.4byte	.LLST9
 3978 1713 26       		.uleb128 0x26
 3979 1714 4E000000 		.4byte	.LVL21
 3980 1718 C9220000 		.4byte	0x22c9
 3981 171c 27       		.uleb128 0x27
 3982 171d 01       		.uleb128 0x1
 3983 171e 50       		.byte	0x50
 3984 171f 05       		.uleb128 0x5
 3985 1720 0C       		.byte	0xc
 3986 1721 00006340 		.4byte	0x40630000
 3987 1725 27       		.uleb128 0x27
 3988 1726 01       		.uleb128 0x1
 3989 1727 51       		.byte	0x51
 3990 1728 01       		.uleb128 0x1
 3991 1729 30       		.byte	0x30
 3992 172a 27       		.uleb128 0x27
 3993 172b 01       		.uleb128 0x1
 3994 172c 52       		.byte	0x52
 3995 172d 05       		.uleb128 0x5
 3996 172e 76       		.byte	0x76
 3997 172f 00       		.sleb128 0
 3998 1730 74       		.byte	0x74
 3999 1731 00       		.sleb128 0
 4000 1732 22       		.byte	0x22
 4001 1733 27       		.uleb128 0x27
 4002 1734 01       		.uleb128 0x1
 4003 1735 53       		.byte	0x53
 4004 1736 01       		.uleb128 0x1
ARM GAS  C:\Users\jlabe\AppData\Local\Temp\ccJbzXZ1.s 			page 103


 4005 1737 30       		.byte	0x30
 4006 1738 27       		.uleb128 0x27
 4007 1739 02       		.uleb128 0x2
 4008 173a 7D       		.byte	0x7d
 4009 173b 00       		.sleb128 0
 4010 173c 02       		.uleb128 0x2
 4011 173d 77       		.byte	0x77
 4012 173e 00       		.sleb128 0
 4013 173f 00       		.byte	0
 4014 1740 00       		.byte	0
 4015 1741 28       		.uleb128 0x28
 4016 1742 20000000 		.4byte	.LVL17
 4017 1746 B1220000 		.4byte	0x22b1
 4018 174a 6C170000 		.4byte	0x176c
 4019 174e 27       		.uleb128 0x27
 4020 174f 01       		.uleb128 0x1
 4021 1750 50       		.byte	0x50
 4022 1751 02       		.uleb128 0x2
 4023 1752 74       		.byte	0x74
 4024 1753 00       		.sleb128 0
 4025 1754 27       		.uleb128 0x27
 4026 1755 01       		.uleb128 0x1
 4027 1756 51       		.byte	0x51
 4028 1757 02       		.uleb128 0x2
 4029 1758 78       		.byte	0x78
 4030 1759 00       		.sleb128 0
 4031 175a 27       		.uleb128 0x27
 4032 175b 01       		.uleb128 0x1
 4033 175c 52       		.byte	0x52
 4034 175d 01       		.uleb128 0x1
 4035 175e 30       		.byte	0x30
 4036 175f 27       		.uleb128 0x27
 4037 1760 01       		.uleb128 0x1
 4038 1761 53       		.byte	0x53
 4039 1762 01       		.uleb128 0x1
 4040 1763 30       		.byte	0x30
 4041 1764 27       		.uleb128 0x27
 4042 1765 02       		.uleb128 0x2
 4043 1766 7D       		.byte	0x7d
 4044 1767 00       		.sleb128 0
 4045 1768 02       		.uleb128 0x2
 4046 1769 77       		.byte	0x77
 4047 176a 00       		.sleb128 0
 4048 176b 00       		.byte	0
 4049 176c 28       		.uleb128 0x28
 4050 176d 2C000000 		.4byte	.LVL18
 4051 1771 A5220000 		.4byte	0x22a5
 4052 1775 91170000 		.4byte	0x1791
 4053 1779 27       		.uleb128 0x27
 4054 177a 01       		.uleb128 0x1
 4055 177b 50       		.byte	0x50
 4056 177c 02       		.uleb128 0x2
 4057 177d 74       		.byte	0x74
 4058 177e 00       		.sleb128 0
 4059 177f 27       		.uleb128 0x27
 4060 1780 01       		.uleb128 0x1
 4061 1781 51       		.byte	0x51
ARM GAS  C:\Users\jlabe\AppData\Local\Temp\ccJbzXZ1.s 			page 104


 4062 1782 02       		.uleb128 0x2
 4063 1783 79       		.byte	0x79
 4064 1784 00       		.sleb128 0
 4065 1785 27       		.uleb128 0x27
 4066 1786 01       		.uleb128 0x1
 4067 1787 52       		.byte	0x52
 4068 1788 01       		.uleb128 0x1
 4069 1789 30       		.byte	0x30
 4070 178a 27       		.uleb128 0x27
 4071 178b 01       		.uleb128 0x1
 4072 178c 53       		.byte	0x53
 4073 178d 02       		.uleb128 0x2
 4074 178e 77       		.byte	0x77
 4075 178f 00       		.sleb128 0
 4076 1790 00       		.byte	0
 4077 1791 28       		.uleb128 0x28
 4078 1792 3A000000 		.4byte	.LVL19
 4079 1796 D5220000 		.4byte	0x22d5
 4080 179a BC170000 		.4byte	0x17bc
 4081 179e 27       		.uleb128 0x27
 4082 179f 01       		.uleb128 0x1
 4083 17a0 50       		.byte	0x50
 4084 17a1 02       		.uleb128 0x2
 4085 17a2 74       		.byte	0x74
 4086 17a3 00       		.sleb128 0
 4087 17a4 27       		.uleb128 0x27
 4088 17a5 01       		.uleb128 0x1
 4089 17a6 51       		.byte	0x51
 4090 17a7 02       		.uleb128 0x2
 4091 17a8 78       		.byte	0x78
 4092 17a9 00       		.sleb128 0
 4093 17aa 27       		.uleb128 0x27
 4094 17ab 01       		.uleb128 0x1
 4095 17ac 52       		.byte	0x52
 4096 17ad 01       		.uleb128 0x1
 4097 17ae 31       		.byte	0x31
 4098 17af 27       		.uleb128 0x27
 4099 17b0 01       		.uleb128 0x1
 4100 17b1 53       		.byte	0x53
 4101 17b2 01       		.uleb128 0x1
 4102 17b3 30       		.byte	0x30
 4103 17b4 27       		.uleb128 0x27
 4104 17b5 02       		.uleb128 0x2
 4105 17b6 7D       		.byte	0x7d
 4106 17b7 00       		.sleb128 0
 4107 17b8 02       		.uleb128 0x2
 4108 17b9 77       		.byte	0x77
 4109 17ba 00       		.sleb128 0
 4110 17bb 00       		.byte	0
 4111 17bc 28       		.uleb128 0x28
 4112 17bd 6A000000 		.4byte	.LVL24
 4113 17c1 C9220000 		.4byte	0x22c9
 4114 17c5 E1170000 		.4byte	0x17e1
 4115 17c9 27       		.uleb128 0x27
 4116 17ca 01       		.uleb128 0x1
 4117 17cb 50       		.byte	0x50
 4118 17cc 02       		.uleb128 0x2
ARM GAS  C:\Users\jlabe\AppData\Local\Temp\ccJbzXZ1.s 			page 105


 4119 17cd 74       		.byte	0x74
 4120 17ce 00       		.sleb128 0
 4121 17cf 27       		.uleb128 0x27
 4122 17d0 01       		.uleb128 0x1
 4123 17d1 51       		.byte	0x51
 4124 17d2 01       		.uleb128 0x1
 4125 17d3 31       		.byte	0x31
 4126 17d4 27       		.uleb128 0x27
 4127 17d5 01       		.uleb128 0x1
 4128 17d6 53       		.byte	0x53
 4129 17d7 01       		.uleb128 0x1
 4130 17d8 30       		.byte	0x30
 4131 17d9 27       		.uleb128 0x27
 4132 17da 02       		.uleb128 0x2
 4133 17db 7D       		.byte	0x7d
 4134 17dc 00       		.sleb128 0
 4135 17dd 02       		.uleb128 0x2
 4136 17de 77       		.byte	0x77
 4137 17df 00       		.sleb128 0
 4138 17e0 00       		.byte	0
 4139 17e1 26       		.uleb128 0x26
 4140 17e2 74000000 		.4byte	.LVL25
 4141 17e6 BD220000 		.4byte	0x22bd
 4142 17ea 27       		.uleb128 0x27
 4143 17eb 01       		.uleb128 0x1
 4144 17ec 50       		.byte	0x50
 4145 17ed 02       		.uleb128 0x2
 4146 17ee 74       		.byte	0x74
 4147 17ef 00       		.sleb128 0
 4148 17f0 27       		.uleb128 0x27
 4149 17f1 01       		.uleb128 0x1
 4150 17f2 51       		.byte	0x51
 4151 17f3 01       		.uleb128 0x1
 4152 17f4 30       		.byte	0x30
 4153 17f5 27       		.uleb128 0x27
 4154 17f6 01       		.uleb128 0x1
 4155 17f7 52       		.byte	0x52
 4156 17f8 02       		.uleb128 0x2
 4157 17f9 77       		.byte	0x77
 4158 17fa 00       		.sleb128 0
 4159 17fb 00       		.byte	0
 4160 17fc 00       		.byte	0
 4161 17fd 21       		.uleb128 0x21
 4162 17fe 4F120000 		.4byte	.LASF373
 4163 1802 01       		.byte	0x1
 4164 1803 1D       		.byte	0x1d
 4165 1804 B8000000 		.4byte	0xb8
 4166 1808 00000000 		.4byte	.LFB693
 4167 180c 60000000 		.4byte	.LFE693-.LFB693
 4168 1810 01       		.uleb128 0x1
 4169 1811 9C       		.byte	0x9c
 4170 1812 B6190000 		.4byte	0x19b6
 4171 1816 22       		.uleb128 0x22
 4172 1817 1D140000 		.4byte	.LASF362
 4173 181b 01       		.byte	0x1
 4174 181c 1D       		.byte	0x1d
 4175 181d B8000000 		.4byte	0xb8
ARM GAS  C:\Users\jlabe\AppData\Local\Temp\ccJbzXZ1.s 			page 106


 4176 1821 5C010000 		.4byte	.LLST10
 4177 1825 2A       		.uleb128 0x2a
 4178 1826 AE020000 		.4byte	.LASF374
 4179 182a 01       		.byte	0x1
 4180 182b 23       		.byte	0x23
 4181 182c B8000000 		.4byte	0xb8
 4182 1830 02       		.uleb128 0x2
 4183 1831 91       		.byte	0x91
 4184 1832 6F       		.sleb128 -17
 4185 1833 2B       		.uleb128 0x2b
 4186 1834 4C150000 		.4byte	0x154c
 4187 1838 06000000 		.4byte	.LBB36
 4188 183c 12000000 		.4byte	.LBE36-.LBB36
 4189 1840 01       		.byte	0x1
 4190 1841 1F       		.byte	0x1f
 4191 1842 8A180000 		.4byte	0x188a
 4192 1846 2C       		.uleb128 0x2c
 4193 1847 75150000 		.4byte	0x1575
 4194 184b 7D010000 		.4byte	.LLST11
 4195 184f 2C       		.uleb128 0x2c
 4196 1850 69150000 		.4byte	0x1569
 4197 1854 92010000 		.4byte	.LLST12
 4198 1858 2C       		.uleb128 0x2c
 4199 1859 5D150000 		.4byte	0x155d
 4200 185d A6010000 		.4byte	.LLST13
 4201 1861 26       		.uleb128 0x26
 4202 1862 18000000 		.4byte	.LVL30
 4203 1866 B1220000 		.4byte	0x22b1
 4204 186a 27       		.uleb128 0x27
 4205 186b 01       		.uleb128 0x1
 4206 186c 50       		.byte	0x50
 4207 186d 02       		.uleb128 0x2
 4208 186e 74       		.byte	0x74
 4209 186f 00       		.sleb128 0
 4210 1870 27       		.uleb128 0x27
 4211 1871 01       		.uleb128 0x1
 4212 1872 51       		.byte	0x51
 4213 1873 02       		.uleb128 0x2
 4214 1874 08       		.byte	0x8
 4215 1875 57       		.byte	0x57
 4216 1876 27       		.uleb128 0x27
 4217 1877 01       		.uleb128 0x1
 4218 1878 52       		.byte	0x52
 4219 1879 01       		.uleb128 0x1
 4220 187a 30       		.byte	0x30
 4221 187b 27       		.uleb128 0x27
 4222 187c 01       		.uleb128 0x1
 4223 187d 53       		.byte	0x53
 4224 187e 02       		.uleb128 0x2
 4225 187f 08       		.byte	0x8
 4226 1880 64       		.byte	0x64
 4227 1881 27       		.uleb128 0x27
 4228 1882 02       		.uleb128 0x2
 4229 1883 7D       		.byte	0x7d
 4230 1884 00       		.sleb128 0
 4231 1885 02       		.uleb128 0x2
 4232 1886 75       		.byte	0x75
ARM GAS  C:\Users\jlabe\AppData\Local\Temp\ccJbzXZ1.s 			page 107


 4233 1887 00       		.sleb128 0
 4234 1888 00       		.byte	0
 4235 1889 00       		.byte	0
 4236 188a 2B       		.uleb128 0x2b
 4237 188b 22150000 		.4byte	0x1522
 4238 188f 18000000 		.4byte	.LBB38
 4239 1893 0C000000 		.4byte	.LBE38-.LBB38
 4240 1897 01       		.byte	0x1
 4241 1898 20       		.byte	0x20
 4242 1899 D2180000 		.4byte	0x18d2
 4243 189d 2C       		.uleb128 0x2c
 4244 189e 3F150000 		.4byte	0x153f
 4245 18a2 BB010000 		.4byte	.LLST14
 4246 18a6 2C       		.uleb128 0x2c
 4247 18a7 33150000 		.4byte	0x1533
 4248 18ab D0010000 		.4byte	.LLST15
 4249 18af 26       		.uleb128 0x26
 4250 18b0 24000000 		.4byte	.LVL31
 4251 18b4 A5220000 		.4byte	0x22a5
 4252 18b8 27       		.uleb128 0x27
 4253 18b9 01       		.uleb128 0x1
 4254 18ba 50       		.byte	0x50
 4255 18bb 02       		.uleb128 0x2
 4256 18bc 74       		.byte	0x74
 4257 18bd 00       		.sleb128 0
 4258 18be 27       		.uleb128 0x27
 4259 18bf 01       		.uleb128 0x1
 4260 18c0 51       		.byte	0x51
 4261 18c1 02       		.uleb128 0x2
 4262 18c2 76       		.byte	0x76
 4263 18c3 00       		.sleb128 0
 4264 18c4 27       		.uleb128 0x27
 4265 18c5 01       		.uleb128 0x1
 4266 18c6 52       		.byte	0x52
 4267 18c7 02       		.uleb128 0x2
 4268 18c8 08       		.byte	0x8
 4269 18c9 64       		.byte	0x64
 4270 18ca 27       		.uleb128 0x27
 4271 18cb 01       		.uleb128 0x1
 4272 18cc 53       		.byte	0x53
 4273 18cd 02       		.uleb128 0x2
 4274 18ce 75       		.byte	0x75
 4275 18cf 00       		.sleb128 0
 4276 18d0 00       		.byte	0
 4277 18d1 00       		.byte	0
 4278 18d2 2B       		.uleb128 0x2b
 4279 18d3 EC140000 		.4byte	0x14ec
 4280 18d7 24000000 		.4byte	.LBB40
 4281 18db 0E000000 		.4byte	.LBE40-.LBB40
 4282 18df 01       		.byte	0x1
 4283 18e0 21       		.byte	0x21
 4284 18e1 29190000 		.4byte	0x1929
 4285 18e5 2C       		.uleb128 0x2c
 4286 18e6 15150000 		.4byte	0x1515
 4287 18ea E3010000 		.4byte	.LLST16
 4288 18ee 2C       		.uleb128 0x2c
 4289 18ef 09150000 		.4byte	0x1509
ARM GAS  C:\Users\jlabe\AppData\Local\Temp\ccJbzXZ1.s 			page 108


 4290 18f3 F8010000 		.4byte	.LLST17
 4291 18f7 2C       		.uleb128 0x2c
 4292 18f8 FD140000 		.4byte	0x14fd
 4293 18fc 0C020000 		.4byte	.LLST18
 4294 1900 26       		.uleb128 0x26
 4295 1901 32000000 		.4byte	.LVL32
 4296 1905 D5220000 		.4byte	0x22d5
 4297 1909 27       		.uleb128 0x27
 4298 190a 01       		.uleb128 0x1
 4299 190b 50       		.byte	0x50
 4300 190c 02       		.uleb128 0x2
 4301 190d 74       		.byte	0x74
 4302 190e 00       		.sleb128 0
 4303 190f 27       		.uleb128 0x27
 4304 1910 01       		.uleb128 0x1
 4305 1911 51       		.byte	0x51
 4306 1912 02       		.uleb128 0x2
 4307 1913 08       		.byte	0x8
 4308 1914 57       		.byte	0x57
 4309 1915 27       		.uleb128 0x27
 4310 1916 01       		.uleb128 0x1
 4311 1917 52       		.byte	0x52
 4312 1918 01       		.uleb128 0x1
 4313 1919 31       		.byte	0x31
 4314 191a 27       		.uleb128 0x27
 4315 191b 01       		.uleb128 0x1
 4316 191c 53       		.byte	0x53
 4317 191d 02       		.uleb128 0x2
 4318 191e 08       		.byte	0x8
 4319 191f 64       		.byte	0x64
 4320 1920 27       		.uleb128 0x27
 4321 1921 02       		.uleb128 0x2
 4322 1922 7D       		.byte	0x7d
 4323 1923 00       		.sleb128 0
 4324 1924 02       		.uleb128 0x2
 4325 1925 75       		.byte	0x75
 4326 1926 00       		.sleb128 0
 4327 1927 00       		.byte	0
 4328 1928 00       		.byte	0
 4329 1929 2B       		.uleb128 0x2b
 4330 192a B6140000 		.4byte	0x14b6
 4331 192e 3A000000 		.4byte	.LBB42
 4332 1932 0A000000 		.4byte	.LBE42-.LBB42
 4333 1936 01       		.byte	0x1
 4334 1937 25       		.byte	0x25
 4335 1938 80190000 		.4byte	0x1980
 4336 193c 2C       		.uleb128 0x2c
 4337 193d DF140000 		.4byte	0x14df
 4338 1941 21020000 		.4byte	.LLST19
 4339 1945 2C       		.uleb128 0x2c
 4340 1946 D3140000 		.4byte	0x14d3
 4341 194a 36020000 		.4byte	.LLST20
 4342 194e 2C       		.uleb128 0x2c
 4343 194f C7140000 		.4byte	0x14c7
 4344 1953 4B020000 		.4byte	.LLST21
 4345 1957 26       		.uleb128 0x26
 4346 1958 44000000 		.4byte	.LVL34
ARM GAS  C:\Users\jlabe\AppData\Local\Temp\ccJbzXZ1.s 			page 109


 4347 195c C9220000 		.4byte	0x22c9
 4348 1960 27       		.uleb128 0x27
 4349 1961 01       		.uleb128 0x1
 4350 1962 50       		.byte	0x50
 4351 1963 02       		.uleb128 0x2
 4352 1964 74       		.byte	0x74
 4353 1965 00       		.sleb128 0
 4354 1966 27       		.uleb128 0x27
 4355 1967 01       		.uleb128 0x1
 4356 1968 51       		.byte	0x51
 4357 1969 01       		.uleb128 0x1
 4358 196a 30       		.byte	0x30
 4359 196b 27       		.uleb128 0x27
 4360 196c 01       		.uleb128 0x1
 4361 196d 52       		.byte	0x52
 4362 196e 02       		.uleb128 0x2
 4363 196f 91       		.byte	0x91
 4364 1970 6F       		.sleb128 -17
 4365 1971 27       		.uleb128 0x27
 4366 1972 01       		.uleb128 0x1
 4367 1973 53       		.byte	0x53
 4368 1974 02       		.uleb128 0x2
 4369 1975 08       		.byte	0x8
 4370 1976 64       		.byte	0x64
 4371 1977 27       		.uleb128 0x27
 4372 1978 02       		.uleb128 0x2
 4373 1979 7D       		.byte	0x7d
 4374 197a 00       		.sleb128 0
 4375 197b 02       		.uleb128 0x2
 4376 197c 75       		.byte	0x75
 4377 197d 00       		.sleb128 0
 4378 197e 00       		.byte	0
 4379 197f 00       		.byte	0
 4380 1980 2D       		.uleb128 0x2d
 4381 1981 98140000 		.4byte	0x1498
 4382 1985 44000000 		.4byte	.LBB44
 4383 1989 0A000000 		.4byte	.LBE44-.LBB44
 4384 198d 01       		.byte	0x1
 4385 198e 26       		.byte	0x26
 4386 198f 2C       		.uleb128 0x2c
 4387 1990 A9140000 		.4byte	0x14a9
 4388 1994 5F020000 		.4byte	.LLST22
 4389 1998 26       		.uleb128 0x26
 4390 1999 4E000000 		.4byte	.LVL35
 4391 199d BD220000 		.4byte	0x22bd
 4392 19a1 27       		.uleb128 0x27
 4393 19a2 01       		.uleb128 0x1
 4394 19a3 50       		.byte	0x50
 4395 19a4 02       		.uleb128 0x2
 4396 19a5 74       		.byte	0x74
 4397 19a6 00       		.sleb128 0
 4398 19a7 27       		.uleb128 0x27
 4399 19a8 01       		.uleb128 0x1
 4400 19a9 51       		.byte	0x51
 4401 19aa 02       		.uleb128 0x2
 4402 19ab 08       		.byte	0x8
 4403 19ac 64       		.byte	0x64
ARM GAS  C:\Users\jlabe\AppData\Local\Temp\ccJbzXZ1.s 			page 110


 4404 19ad 27       		.uleb128 0x27
 4405 19ae 01       		.uleb128 0x1
 4406 19af 52       		.byte	0x52
 4407 19b0 02       		.uleb128 0x2
 4408 19b1 75       		.byte	0x75
 4409 19b2 00       		.sleb128 0
 4410 19b3 00       		.byte	0
 4411 19b4 00       		.byte	0
 4412 19b5 00       		.byte	0
 4413 19b6 2E       		.uleb128 0x2e
 4414 19b7 0A0E0000 		.4byte	.LASF375
 4415 19bb 01       		.byte	0x1
 4416 19bc 2C       		.byte	0x2c
 4417 19bd 00000000 		.4byte	.LFB694
 4418 19c1 48000000 		.4byte	.LFE694-.LFB694
 4419 19c5 01       		.uleb128 0x1
 4420 19c6 9C       		.byte	0x9c
 4421 19c7 061B0000 		.4byte	0x1b06
 4422 19cb 22       		.uleb128 0x22
 4423 19cc 1D140000 		.4byte	.LASF362
 4424 19d0 01       		.byte	0x1
 4425 19d1 2C       		.byte	0x2c
 4426 19d2 B8000000 		.4byte	0xb8
 4427 19d6 74020000 		.4byte	.LLST23
 4428 19da 22       		.uleb128 0x22
 4429 19db 500B0000 		.4byte	.LASF332
 4430 19df 01       		.byte	0x1
 4431 19e0 2C       		.byte	0x2c
 4432 19e1 B8000000 		.4byte	0xb8
 4433 19e5 95020000 		.4byte	.LLST24
 4434 19e9 2B       		.uleb128 0x2b
 4435 19ea 4C150000 		.4byte	0x154c
 4436 19ee 08000000 		.4byte	.LBB46
 4437 19f2 12000000 		.4byte	.LBE46-.LBB46
 4438 19f6 01       		.byte	0x1
 4439 19f7 2E       		.byte	0x2e
 4440 19f8 401A0000 		.4byte	0x1a40
 4441 19fc 2C       		.uleb128 0x2c
 4442 19fd 75150000 		.4byte	0x1575
 4443 1a01 B6020000 		.4byte	.LLST25
 4444 1a05 2C       		.uleb128 0x2c
 4445 1a06 69150000 		.4byte	0x1569
 4446 1a0a CB020000 		.4byte	.LLST26
 4447 1a0e 2C       		.uleb128 0x2c
 4448 1a0f 5D150000 		.4byte	0x155d
 4449 1a13 DF020000 		.4byte	.LLST27
 4450 1a17 26       		.uleb128 0x26
 4451 1a18 1A000000 		.4byte	.LVL40
 4452 1a1c B1220000 		.4byte	0x22b1
 4453 1a20 27       		.uleb128 0x27
 4454 1a21 01       		.uleb128 0x1
 4455 1a22 50       		.byte	0x50
 4456 1a23 02       		.uleb128 0x2
 4457 1a24 74       		.byte	0x74
 4458 1a25 00       		.sleb128 0
 4459 1a26 27       		.uleb128 0x27
 4460 1a27 01       		.uleb128 0x1
ARM GAS  C:\Users\jlabe\AppData\Local\Temp\ccJbzXZ1.s 			page 111


 4461 1a28 51       		.byte	0x51
 4462 1a29 02       		.uleb128 0x2
 4463 1a2a 08       		.byte	0x8
 4464 1a2b 57       		.byte	0x57
 4465 1a2c 27       		.uleb128 0x27
 4466 1a2d 01       		.uleb128 0x1
 4467 1a2e 52       		.byte	0x52
 4468 1a2f 01       		.uleb128 0x1
 4469 1a30 30       		.byte	0x30
 4470 1a31 27       		.uleb128 0x27
 4471 1a32 01       		.uleb128 0x1
 4472 1a33 53       		.byte	0x53
 4473 1a34 02       		.uleb128 0x2
 4474 1a35 08       		.byte	0x8
 4475 1a36 64       		.byte	0x64
 4476 1a37 27       		.uleb128 0x27
 4477 1a38 02       		.uleb128 0x2
 4478 1a39 7D       		.byte	0x7d
 4479 1a3a 00       		.sleb128 0
 4480 1a3b 02       		.uleb128 0x2
 4481 1a3c 75       		.byte	0x75
 4482 1a3d 00       		.sleb128 0
 4483 1a3e 00       		.byte	0
 4484 1a3f 00       		.byte	0
 4485 1a40 2B       		.uleb128 0x2b
 4486 1a41 22150000 		.4byte	0x1522
 4487 1a45 1A000000 		.4byte	.LBB48
 4488 1a49 0C000000 		.4byte	.LBE48-.LBB48
 4489 1a4d 01       		.byte	0x1
 4490 1a4e 2F       		.byte	0x2f
 4491 1a4f 881A0000 		.4byte	0x1a88
 4492 1a53 2C       		.uleb128 0x2c
 4493 1a54 3F150000 		.4byte	0x153f
 4494 1a58 F4020000 		.4byte	.LLST28
 4495 1a5c 2C       		.uleb128 0x2c
 4496 1a5d 33150000 		.4byte	0x1533
 4497 1a61 09030000 		.4byte	.LLST29
 4498 1a65 26       		.uleb128 0x26
 4499 1a66 26000000 		.4byte	.LVL41
 4500 1a6a A5220000 		.4byte	0x22a5
 4501 1a6e 27       		.uleb128 0x27
 4502 1a6f 01       		.uleb128 0x1
 4503 1a70 50       		.byte	0x50
 4504 1a71 02       		.uleb128 0x2
 4505 1a72 74       		.byte	0x74
 4506 1a73 00       		.sleb128 0
 4507 1a74 27       		.uleb128 0x27
 4508 1a75 01       		.uleb128 0x1
 4509 1a76 51       		.byte	0x51
 4510 1a77 02       		.uleb128 0x2
 4511 1a78 77       		.byte	0x77
 4512 1a79 00       		.sleb128 0
 4513 1a7a 27       		.uleb128 0x27
 4514 1a7b 01       		.uleb128 0x1
 4515 1a7c 52       		.byte	0x52
 4516 1a7d 02       		.uleb128 0x2
 4517 1a7e 08       		.byte	0x8
ARM GAS  C:\Users\jlabe\AppData\Local\Temp\ccJbzXZ1.s 			page 112


 4518 1a7f 64       		.byte	0x64
 4519 1a80 27       		.uleb128 0x27
 4520 1a81 01       		.uleb128 0x1
 4521 1a82 53       		.byte	0x53
 4522 1a83 02       		.uleb128 0x2
 4523 1a84 75       		.byte	0x75
 4524 1a85 00       		.sleb128 0
 4525 1a86 00       		.byte	0
 4526 1a87 00       		.byte	0
 4527 1a88 2B       		.uleb128 0x2b
 4528 1a89 22150000 		.4byte	0x1522
 4529 1a8d 26000000 		.4byte	.LBB50
 4530 1a91 0C000000 		.4byte	.LBE50-.LBB50
 4531 1a95 01       		.byte	0x1
 4532 1a96 30       		.byte	0x30
 4533 1a97 D01A0000 		.4byte	0x1ad0
 4534 1a9b 2C       		.uleb128 0x2c
 4535 1a9c 3F150000 		.4byte	0x153f
 4536 1aa0 1C030000 		.4byte	.LLST30
 4537 1aa4 2C       		.uleb128 0x2c
 4538 1aa5 33150000 		.4byte	0x1533
 4539 1aa9 31030000 		.4byte	.LLST31
 4540 1aad 26       		.uleb128 0x26
 4541 1aae 32000000 		.4byte	.LVL42
 4542 1ab2 A5220000 		.4byte	0x22a5
 4543 1ab6 27       		.uleb128 0x27
 4544 1ab7 01       		.uleb128 0x1
 4545 1ab8 50       		.byte	0x50
 4546 1ab9 02       		.uleb128 0x2
 4547 1aba 74       		.byte	0x74
 4548 1abb 00       		.sleb128 0
 4549 1abc 27       		.uleb128 0x27
 4550 1abd 01       		.uleb128 0x1
 4551 1abe 51       		.byte	0x51
 4552 1abf 02       		.uleb128 0x2
 4553 1ac0 76       		.byte	0x76
 4554 1ac1 00       		.sleb128 0
 4555 1ac2 27       		.uleb128 0x27
 4556 1ac3 01       		.uleb128 0x1
 4557 1ac4 52       		.byte	0x52
 4558 1ac5 02       		.uleb128 0x2
 4559 1ac6 08       		.byte	0x8
 4560 1ac7 64       		.byte	0x64
 4561 1ac8 27       		.uleb128 0x27
 4562 1ac9 01       		.uleb128 0x1
 4563 1aca 53       		.byte	0x53
 4564 1acb 02       		.uleb128 0x2
 4565 1acc 75       		.byte	0x75
 4566 1acd 00       		.sleb128 0
 4567 1ace 00       		.byte	0
 4568 1acf 00       		.byte	0
 4569 1ad0 2D       		.uleb128 0x2d
 4570 1ad1 98140000 		.4byte	0x1498
 4571 1ad5 32000000 		.4byte	.LBB52
 4572 1ad9 0A000000 		.4byte	.LBE52-.LBB52
 4573 1add 01       		.byte	0x1
 4574 1ade 31       		.byte	0x31
ARM GAS  C:\Users\jlabe\AppData\Local\Temp\ccJbzXZ1.s 			page 113


 4575 1adf 2C       		.uleb128 0x2c
 4576 1ae0 A9140000 		.4byte	0x14a9
 4577 1ae4 44030000 		.4byte	.LLST32
 4578 1ae8 26       		.uleb128 0x26
 4579 1ae9 3C000000 		.4byte	.LVL43
 4580 1aed BD220000 		.4byte	0x22bd
 4581 1af1 27       		.uleb128 0x27
 4582 1af2 01       		.uleb128 0x1
 4583 1af3 50       		.byte	0x50
 4584 1af4 02       		.uleb128 0x2
 4585 1af5 74       		.byte	0x74
 4586 1af6 00       		.sleb128 0
 4587 1af7 27       		.uleb128 0x27
 4588 1af8 01       		.uleb128 0x1
 4589 1af9 51       		.byte	0x51
 4590 1afa 02       		.uleb128 0x2
 4591 1afb 08       		.byte	0x8
 4592 1afc 64       		.byte	0x64
 4593 1afd 27       		.uleb128 0x27
 4594 1afe 01       		.uleb128 0x1
 4595 1aff 52       		.byte	0x52
 4596 1b00 02       		.uleb128 0x2
 4597 1b01 75       		.byte	0x75
 4598 1b02 00       		.sleb128 0
 4599 1b03 00       		.byte	0
 4600 1b04 00       		.byte	0
 4601 1b05 00       		.byte	0
 4602 1b06 2E       		.uleb128 0x2e
 4603 1b07 6C120000 		.4byte	.LASF376
 4604 1b0b 01       		.byte	0x1
 4605 1b0c 35       		.byte	0x35
 4606 1b0d 00000000 		.4byte	.LFB695
 4607 1b11 80000000 		.4byte	.LFE695-.LFB695
 4608 1b15 01       		.uleb128 0x1
 4609 1b16 9C       		.byte	0x9c
 4610 1b17 3A1D0000 		.4byte	0x1d3a
 4611 1b1b 22       		.uleb128 0x22
 4612 1b1c AF160000 		.4byte	.LASF377
 4613 1b20 01       		.byte	0x1
 4614 1b21 35       		.byte	0x35
 4615 1b22 B8000000 		.4byte	0xb8
 4616 1b26 59030000 		.4byte	.LLST33
 4617 1b2a 22       		.uleb128 0x22
 4618 1b2b DA0D0000 		.4byte	.LASF378
 4619 1b2f 01       		.byte	0x1
 4620 1b30 35       		.byte	0x35
 4621 1b31 040E0000 		.4byte	0xe04
 4622 1b35 7A030000 		.4byte	.LLST34
 4623 1b39 22       		.uleb128 0x22
 4624 1b3a 6C110000 		.4byte	.LASF333
 4625 1b3e 01       		.byte	0x1
 4626 1b3f 35       		.byte	0x35
 4627 1b40 B8000000 		.4byte	0xb8
 4628 1b44 A6030000 		.4byte	.LLST35
 4629 1b48 25       		.uleb128 0x25
 4630 1b49 69647800 		.ascii	"idx\000"
 4631 1b4d 01       		.byte	0x1
ARM GAS  C:\Users\jlabe\AppData\Local\Temp\ccJbzXZ1.s 			page 114


 4632 1b4e 3A       		.byte	0x3a
 4633 1b4f B8000000 		.4byte	0xb8
 4634 1b53 C7030000 		.4byte	.LLST36
 4635 1b57 2B       		.uleb128 0x2b
 4636 1b58 4C150000 		.4byte	0x154c
 4637 1b5c 0C000000 		.4byte	.LBB54
 4638 1b60 12000000 		.4byte	.LBE54-.LBB54
 4639 1b64 01       		.byte	0x1
 4640 1b65 37       		.byte	0x37
 4641 1b66 AE1B0000 		.4byte	0x1bae
 4642 1b6a 2C       		.uleb128 0x2c
 4643 1b6b 75150000 		.4byte	0x1575
 4644 1b6f F1030000 		.4byte	.LLST37
 4645 1b73 2C       		.uleb128 0x2c
 4646 1b74 69150000 		.4byte	0x1569
 4647 1b78 06040000 		.4byte	.LLST38
 4648 1b7c 2C       		.uleb128 0x2c
 4649 1b7d 5D150000 		.4byte	0x155d
 4650 1b81 1A040000 		.4byte	.LLST39
 4651 1b85 26       		.uleb128 0x26
 4652 1b86 1E000000 		.4byte	.LVL49
 4653 1b8a B1220000 		.4byte	0x22b1
 4654 1b8e 27       		.uleb128 0x27
 4655 1b8f 01       		.uleb128 0x1
 4656 1b90 50       		.byte	0x50
 4657 1b91 02       		.uleb128 0x2
 4658 1b92 74       		.byte	0x74
 4659 1b93 00       		.sleb128 0
 4660 1b94 27       		.uleb128 0x27
 4661 1b95 01       		.uleb128 0x1
 4662 1b96 51       		.byte	0x51
 4663 1b97 02       		.uleb128 0x2
 4664 1b98 08       		.byte	0x8
 4665 1b99 57       		.byte	0x57
 4666 1b9a 27       		.uleb128 0x27
 4667 1b9b 01       		.uleb128 0x1
 4668 1b9c 52       		.byte	0x52
 4669 1b9d 01       		.uleb128 0x1
 4670 1b9e 30       		.byte	0x30
 4671 1b9f 27       		.uleb128 0x27
 4672 1ba0 01       		.uleb128 0x1
 4673 1ba1 53       		.byte	0x53
 4674 1ba2 02       		.uleb128 0x2
 4675 1ba3 08       		.byte	0x8
 4676 1ba4 64       		.byte	0x64
 4677 1ba5 27       		.uleb128 0x27
 4678 1ba6 02       		.uleb128 0x2
 4679 1ba7 7D       		.byte	0x7d
 4680 1ba8 00       		.sleb128 0
 4681 1ba9 02       		.uleb128 0x2
 4682 1baa 77       		.byte	0x77
 4683 1bab 00       		.sleb128 0
 4684 1bac 00       		.byte	0
 4685 1bad 00       		.byte	0
 4686 1bae 2B       		.uleb128 0x2b
 4687 1baf 22150000 		.4byte	0x1522
 4688 1bb3 1E000000 		.4byte	.LBB56
ARM GAS  C:\Users\jlabe\AppData\Local\Temp\ccJbzXZ1.s 			page 115


 4689 1bb7 0C000000 		.4byte	.LBE56-.LBB56
 4690 1bbb 01       		.byte	0x1
 4691 1bbc 38       		.byte	0x38
 4692 1bbd F61B0000 		.4byte	0x1bf6
 4693 1bc1 2C       		.uleb128 0x2c
 4694 1bc2 3F150000 		.4byte	0x153f
 4695 1bc6 2F040000 		.4byte	.LLST40
 4696 1bca 2C       		.uleb128 0x2c
 4697 1bcb 33150000 		.4byte	0x1533
 4698 1bcf 44040000 		.4byte	.LLST41
 4699 1bd3 26       		.uleb128 0x26
 4700 1bd4 2A000000 		.4byte	.LVL50
 4701 1bd8 A5220000 		.4byte	0x22a5
 4702 1bdc 27       		.uleb128 0x27
 4703 1bdd 01       		.uleb128 0x1
 4704 1bde 50       		.byte	0x50
 4705 1bdf 02       		.uleb128 0x2
 4706 1be0 74       		.byte	0x74
 4707 1be1 00       		.sleb128 0
 4708 1be2 27       		.uleb128 0x27
 4709 1be3 01       		.uleb128 0x1
 4710 1be4 51       		.byte	0x51
 4711 1be5 02       		.uleb128 0x2
 4712 1be6 78       		.byte	0x78
 4713 1be7 00       		.sleb128 0
 4714 1be8 27       		.uleb128 0x27
 4715 1be9 01       		.uleb128 0x1
 4716 1bea 52       		.byte	0x52
 4717 1beb 02       		.uleb128 0x2
 4718 1bec 08       		.byte	0x8
 4719 1bed 64       		.byte	0x64
 4720 1bee 27       		.uleb128 0x27
 4721 1bef 01       		.uleb128 0x1
 4722 1bf0 53       		.byte	0x53
 4723 1bf1 02       		.uleb128 0x2
 4724 1bf2 77       		.byte	0x77
 4725 1bf3 00       		.sleb128 0
 4726 1bf4 00       		.byte	0
 4727 1bf5 00       		.byte	0
 4728 1bf6 2B       		.uleb128 0x2b
 4729 1bf7 EC140000 		.4byte	0x14ec
 4730 1bfb 2A000000 		.4byte	.LBB58
 4731 1bff 0E000000 		.4byte	.LBE58-.LBB58
 4732 1c03 01       		.byte	0x1
 4733 1c04 39       		.byte	0x39
 4734 1c05 4D1C0000 		.4byte	0x1c4d
 4735 1c09 2C       		.uleb128 0x2c
 4736 1c0a 15150000 		.4byte	0x1515
 4737 1c0e 57040000 		.4byte	.LLST42
 4738 1c12 2C       		.uleb128 0x2c
 4739 1c13 09150000 		.4byte	0x1509
 4740 1c17 6C040000 		.4byte	.LLST43
 4741 1c1b 2C       		.uleb128 0x2c
 4742 1c1c FD140000 		.4byte	0x14fd
 4743 1c20 80040000 		.4byte	.LLST44
 4744 1c24 26       		.uleb128 0x26
 4745 1c25 38000000 		.4byte	.LVL51
ARM GAS  C:\Users\jlabe\AppData\Local\Temp\ccJbzXZ1.s 			page 116


 4746 1c29 D5220000 		.4byte	0x22d5
 4747 1c2d 27       		.uleb128 0x27
 4748 1c2e 01       		.uleb128 0x1
 4749 1c2f 50       		.byte	0x50
 4750 1c30 02       		.uleb128 0x2
 4751 1c31 74       		.byte	0x74
 4752 1c32 00       		.sleb128 0
 4753 1c33 27       		.uleb128 0x27
 4754 1c34 01       		.uleb128 0x1
 4755 1c35 51       		.byte	0x51
 4756 1c36 02       		.uleb128 0x2
 4757 1c37 08       		.byte	0x8
 4758 1c38 57       		.byte	0x57
 4759 1c39 27       		.uleb128 0x27
 4760 1c3a 01       		.uleb128 0x1
 4761 1c3b 52       		.byte	0x52
 4762 1c3c 01       		.uleb128 0x1
 4763 1c3d 31       		.byte	0x31
 4764 1c3e 27       		.uleb128 0x27
 4765 1c3f 01       		.uleb128 0x1
 4766 1c40 53       		.byte	0x53
 4767 1c41 02       		.uleb128 0x2
 4768 1c42 08       		.byte	0x8
 4769 1c43 64       		.byte	0x64
 4770 1c44 27       		.uleb128 0x27
 4771 1c45 02       		.uleb128 0x2
 4772 1c46 7D       		.byte	0x7d
 4773 1c47 00       		.sleb128 0
 4774 1c48 02       		.uleb128 0x2
 4775 1c49 77       		.byte	0x77
 4776 1c4a 00       		.sleb128 0
 4777 1c4b 00       		.byte	0
 4778 1c4c 00       		.byte	0
 4779 1c4d 2B       		.uleb128 0x2b
 4780 1c4e B6140000 		.4byte	0x14b6
 4781 1c52 3C000000 		.4byte	.LBB60
 4782 1c56 10000000 		.4byte	.LBE60-.LBB60
 4783 1c5a 01       		.byte	0x1
 4784 1c5b 3C       		.byte	0x3c
 4785 1c5c AA1C0000 		.4byte	0x1caa
 4786 1c60 2C       		.uleb128 0x2c
 4787 1c61 DF140000 		.4byte	0x14df
 4788 1c65 95040000 		.4byte	.LLST45
 4789 1c69 2C       		.uleb128 0x2c
 4790 1c6a D3140000 		.4byte	0x14d3
 4791 1c6e AA040000 		.4byte	.LLST46
 4792 1c72 2C       		.uleb128 0x2c
 4793 1c73 C7140000 		.4byte	0x14c7
 4794 1c77 DD040000 		.4byte	.LLST47
 4795 1c7b 26       		.uleb128 0x26
 4796 1c7c 4C000000 		.4byte	.LVL54
 4797 1c80 C9220000 		.4byte	0x22c9
 4798 1c84 27       		.uleb128 0x27
 4799 1c85 01       		.uleb128 0x1
 4800 1c86 50       		.byte	0x50
 4801 1c87 05       		.uleb128 0x5
 4802 1c88 0C       		.byte	0xc
ARM GAS  C:\Users\jlabe\AppData\Local\Temp\ccJbzXZ1.s 			page 117


 4803 1c89 00006440 		.4byte	0x40640000
 4804 1c8d 27       		.uleb128 0x27
 4805 1c8e 01       		.uleb128 0x1
 4806 1c8f 51       		.byte	0x51
 4807 1c90 01       		.uleb128 0x1
 4808 1c91 30       		.byte	0x30
 4809 1c92 27       		.uleb128 0x27
 4810 1c93 01       		.uleb128 0x1
 4811 1c94 52       		.byte	0x52
 4812 1c95 05       		.uleb128 0x5
 4813 1c96 75       		.byte	0x75
 4814 1c97 00       		.sleb128 0
 4815 1c98 74       		.byte	0x74
 4816 1c99 00       		.sleb128 0
 4817 1c9a 22       		.byte	0x22
 4818 1c9b 27       		.uleb128 0x27
 4819 1c9c 01       		.uleb128 0x1
 4820 1c9d 53       		.byte	0x53
 4821 1c9e 02       		.uleb128 0x2
 4822 1c9f 08       		.byte	0x8
 4823 1ca0 64       		.byte	0x64
 4824 1ca1 27       		.uleb128 0x27
 4825 1ca2 02       		.uleb128 0x2
 4826 1ca3 7D       		.byte	0x7d
 4827 1ca4 00       		.sleb128 0
 4828 1ca5 02       		.uleb128 0x2
 4829 1ca6 77       		.byte	0x77
 4830 1ca7 00       		.sleb128 0
 4831 1ca8 00       		.byte	0
 4832 1ca9 00       		.byte	0
 4833 1caa 2B       		.uleb128 0x2b
 4834 1cab B6140000 		.4byte	0x14b6
 4835 1caf 56000000 		.4byte	.LBB62
 4836 1cb3 12000000 		.4byte	.LBE62-.LBB62
 4837 1cb7 01       		.byte	0x1
 4838 1cb8 3E       		.byte	0x3e
 4839 1cb9 041D0000 		.4byte	0x1d04
 4840 1cbd 2C       		.uleb128 0x2c
 4841 1cbe DF140000 		.4byte	0x14df
 4842 1cc2 F1040000 		.4byte	.LLST48
 4843 1cc6 2C       		.uleb128 0x2c
 4844 1cc7 D3140000 		.4byte	0x14d3
 4845 1ccb 06050000 		.4byte	.LLST49
 4846 1ccf 2C       		.uleb128 0x2c
 4847 1cd0 C7140000 		.4byte	0x14c7
 4848 1cd4 39050000 		.4byte	.LLST50
 4849 1cd8 26       		.uleb128 0x26
 4850 1cd9 68000000 		.4byte	.LVL59
 4851 1cdd C9220000 		.4byte	0x22c9
 4852 1ce1 27       		.uleb128 0x27
 4853 1ce2 01       		.uleb128 0x1
 4854 1ce3 50       		.byte	0x50
 4855 1ce4 02       		.uleb128 0x2
 4856 1ce5 76       		.byte	0x76
 4857 1ce6 00       		.sleb128 0
 4858 1ce7 27       		.uleb128 0x27
 4859 1ce8 01       		.uleb128 0x1
ARM GAS  C:\Users\jlabe\AppData\Local\Temp\ccJbzXZ1.s 			page 118


 4860 1ce9 51       		.byte	0x51
 4861 1cea 01       		.uleb128 0x1
 4862 1ceb 31       		.byte	0x31
 4863 1cec 27       		.uleb128 0x27
 4864 1ced 01       		.uleb128 0x1
 4865 1cee 52       		.byte	0x52
 4866 1cef 05       		.uleb128 0x5
 4867 1cf0 75       		.byte	0x75
 4868 1cf1 00       		.sleb128 0
 4869 1cf2 74       		.byte	0x74
 4870 1cf3 00       		.sleb128 0
 4871 1cf4 22       		.byte	0x22
 4872 1cf5 27       		.uleb128 0x27
 4873 1cf6 01       		.uleb128 0x1
 4874 1cf7 53       		.byte	0x53
 4875 1cf8 02       		.uleb128 0x2
 4876 1cf9 08       		.byte	0x8
 4877 1cfa 64       		.byte	0x64
 4878 1cfb 27       		.uleb128 0x27
 4879 1cfc 02       		.uleb128 0x2
 4880 1cfd 7D       		.byte	0x7d
 4881 1cfe 00       		.sleb128 0
 4882 1cff 02       		.uleb128 0x2
 4883 1d00 77       		.byte	0x77
 4884 1d01 00       		.sleb128 0
 4885 1d02 00       		.byte	0
 4886 1d03 00       		.byte	0
 4887 1d04 2D       		.uleb128 0x2d
 4888 1d05 98140000 		.4byte	0x1498
 4889 1d09 68000000 		.4byte	.LBB64
 4890 1d0d 0A000000 		.4byte	.LBE64-.LBB64
 4891 1d11 01       		.byte	0x1
 4892 1d12 3F       		.byte	0x3f
 4893 1d13 2C       		.uleb128 0x2c
 4894 1d14 A9140000 		.4byte	0x14a9
 4895 1d18 4D050000 		.4byte	.LLST51
 4896 1d1c 26       		.uleb128 0x26
 4897 1d1d 72000000 		.4byte	.LVL60
 4898 1d21 BD220000 		.4byte	0x22bd
 4899 1d25 27       		.uleb128 0x27
 4900 1d26 01       		.uleb128 0x1
 4901 1d27 50       		.byte	0x50
 4902 1d28 02       		.uleb128 0x2
 4903 1d29 76       		.byte	0x76
 4904 1d2a 00       		.sleb128 0
 4905 1d2b 27       		.uleb128 0x27
 4906 1d2c 01       		.uleb128 0x1
 4907 1d2d 51       		.byte	0x51
 4908 1d2e 02       		.uleb128 0x2
 4909 1d2f 08       		.byte	0x8
 4910 1d30 64       		.byte	0x64
 4911 1d31 27       		.uleb128 0x27
 4912 1d32 01       		.uleb128 0x1
 4913 1d33 52       		.byte	0x52
 4914 1d34 02       		.uleb128 0x2
 4915 1d35 77       		.byte	0x77
 4916 1d36 00       		.sleb128 0
ARM GAS  C:\Users\jlabe\AppData\Local\Temp\ccJbzXZ1.s 			page 119


 4917 1d37 00       		.byte	0
 4918 1d38 00       		.byte	0
 4919 1d39 00       		.byte	0
 4920 1d3a 2E       		.uleb128 0x2e
 4921 1d3b 97020000 		.4byte	.LASF379
 4922 1d3f 01       		.byte	0x1
 4923 1d40 42       		.byte	0x42
 4924 1d41 00000000 		.4byte	.LFB696
 4925 1d45 6A000000 		.4byte	.LFE696-.LFB696
 4926 1d49 01       		.uleb128 0x1
 4927 1d4a 9C       		.byte	0x9c
 4928 1d4b CF1D0000 		.4byte	0x1dcf
 4929 1d4f 22       		.uleb128 0x22
 4930 1d50 C2150000 		.4byte	.LASF380
 4931 1d54 01       		.byte	0x1
 4932 1d55 42       		.byte	0x42
 4933 1d56 CF1D0000 		.4byte	0x1dcf
 4934 1d5a 62050000 		.4byte	.LLST52
 4935 1d5e 22       		.uleb128 0x22
 4936 1d5f C2030000 		.4byte	.LASF381
 4937 1d63 01       		.byte	0x1
 4938 1d64 42       		.byte	0x42
 4939 1d65 CF1D0000 		.4byte	0x1dcf
 4940 1d69 80050000 		.4byte	.LLST53
 4941 1d6d 2A       		.uleb128 0x2a
 4942 1d6e 66030000 		.4byte	.LASF382
 4943 1d72 01       		.byte	0x1
 4944 1d73 47       		.byte	0x47
 4945 1d74 D51D0000 		.4byte	0x1dd5
 4946 1d78 02       		.uleb128 0x2
 4947 1d79 91       		.byte	0x91
 4948 1d7a 68       		.sleb128 -24
 4949 1d7b 2F       		.uleb128 0x2f
 4950 1d7c CB110000 		.4byte	.LASF383
 4951 1d80 01       		.byte	0x1
 4952 1d81 49       		.byte	0x49
 4953 1d82 CE000000 		.4byte	0xce
 4954 1d86 9E050000 		.4byte	.LLST54
 4955 1d8a 24       		.uleb128 0x24
 4956 1d8b 0E000000 		.4byte	.LBB66
 4957 1d8f 58000000 		.4byte	.LBE66-.LBB66
 4958 1d93 BF1D0000 		.4byte	0x1dbf
 4959 1d97 25       		.uleb128 0x25
 4960 1d98 6900     		.ascii	"i\000"
 4961 1d9a 01       		.byte	0x1
 4962 1d9b 4C       		.byte	0x4c
 4963 1d9c 9F000000 		.4byte	0x9f
 4964 1da0 F2050000 		.4byte	.LLST55
 4965 1da4 26       		.uleb128 0x26
 4966 1da5 26000000 		.4byte	.LVL66
 4967 1da9 061B0000 		.4byte	0x1b06
 4968 1dad 27       		.uleb128 0x27
 4969 1dae 01       		.uleb128 0x1
 4970 1daf 50       		.byte	0x50
 4971 1db0 01       		.uleb128 0x1
 4972 1db1 37       		.byte	0x37
 4973 1db2 27       		.uleb128 0x27
ARM GAS  C:\Users\jlabe\AppData\Local\Temp\ccJbzXZ1.s 			page 120


 4974 1db3 01       		.uleb128 0x1
 4975 1db4 51       		.byte	0x51
 4976 1db5 02       		.uleb128 0x2
 4977 1db6 7D       		.byte	0x7d
 4978 1db7 00       		.sleb128 0
 4979 1db8 27       		.uleb128 0x27
 4980 1db9 01       		.uleb128 0x1
 4981 1dba 52       		.byte	0x52
 4982 1dbb 01       		.uleb128 0x1
 4983 1dbc 36       		.byte	0x36
 4984 1dbd 00       		.byte	0
 4985 1dbe 00       		.byte	0
 4986 1dbf 26       		.uleb128 0x26
 4987 1dc0 0E000000 		.4byte	.LVL64
 4988 1dc4 FD170000 		.4byte	0x17fd
 4989 1dc8 27       		.uleb128 0x27
 4990 1dc9 01       		.uleb128 0x1
 4991 1dca 50       		.byte	0x50
 4992 1dcb 01       		.uleb128 0x1
 4993 1dcc 30       		.byte	0x30
 4994 1dcd 00       		.byte	0
 4995 1dce 00       		.byte	0
 4996 1dcf 10       		.uleb128 0x10
 4997 1dd0 04       		.byte	0x4
 4998 1dd1 CE000000 		.4byte	0xce
 4999 1dd5 07       		.uleb128 0x7
 5000 1dd6 B8000000 		.4byte	0xb8
 5001 1dda E51D0000 		.4byte	0x1de5
 5002 1dde 08       		.uleb128 0x8
 5003 1ddf EF000000 		.4byte	0xef
 5004 1de3 05       		.byte	0x5
 5005 1de4 00       		.byte	0
 5006 1de5 2E       		.uleb128 0x2e
 5007 1de6 3C100000 		.4byte	.LASF384
 5008 1dea 01       		.byte	0x1
 5009 1deb 6B       		.byte	0x6b
 5010 1dec 00000000 		.4byte	.LFB697
 5011 1df0 5C000000 		.4byte	.LFE697-.LFB697
 5012 1df4 01       		.uleb128 0x1
 5013 1df5 9C       		.byte	0x9c
 5014 1df6 501E0000 		.4byte	0x1e50
 5015 1dfa 22       		.uleb128 0x22
 5016 1dfb C2150000 		.4byte	.LASF380
 5017 1dff 01       		.byte	0x1
 5018 1e00 6B       		.byte	0x6b
 5019 1e01 E40B0000 		.4byte	0xbe4
 5020 1e05 11060000 		.4byte	.LLST56
 5021 1e09 22       		.uleb128 0x22
 5022 1e0a C2030000 		.4byte	.LASF381
 5023 1e0e 01       		.byte	0x1
 5024 1e0f 6B       		.byte	0x6b
 5025 1e10 E40B0000 		.4byte	0xbe4
 5026 1e14 2F060000 		.4byte	.LLST57
 5027 1e18 2A       		.uleb128 0x2a
 5028 1e19 66030000 		.4byte	.LASF382
 5029 1e1d 01       		.byte	0x1
 5030 1e1e 70       		.byte	0x70
ARM GAS  C:\Users\jlabe\AppData\Local\Temp\ccJbzXZ1.s 			page 121


 5031 1e1f D51D0000 		.4byte	0x1dd5
 5032 1e23 02       		.uleb128 0x2
 5033 1e24 91       		.byte	0x91
 5034 1e25 68       		.sleb128 -24
 5035 1e26 2F       		.uleb128 0x2f
 5036 1e27 CB110000 		.4byte	.LASF383
 5037 1e2b 01       		.byte	0x1
 5038 1e2c 71       		.byte	0x71
 5039 1e2d E4000000 		.4byte	0xe4
 5040 1e31 4D060000 		.4byte	.LLST58
 5041 1e35 26       		.uleb128 0x26
 5042 1e36 18000000 		.4byte	.LVL76
 5043 1e3a 061B0000 		.4byte	0x1b06
 5044 1e3e 27       		.uleb128 0x27
 5045 1e3f 01       		.uleb128 0x1
 5046 1e40 50       		.byte	0x50
 5047 1e41 01       		.uleb128 0x1
 5048 1e42 37       		.byte	0x37
 5049 1e43 27       		.uleb128 0x27
 5050 1e44 01       		.uleb128 0x1
 5051 1e45 51       		.byte	0x51
 5052 1e46 02       		.uleb128 0x2
 5053 1e47 7D       		.byte	0x7d
 5054 1e48 00       		.sleb128 0
 5055 1e49 27       		.uleb128 0x27
 5056 1e4a 01       		.uleb128 0x1
 5057 1e4b 52       		.byte	0x52
 5058 1e4c 01       		.uleb128 0x1
 5059 1e4d 36       		.byte	0x36
 5060 1e4e 00       		.byte	0
 5061 1e4f 00       		.byte	0
 5062 1e50 30       		.uleb128 0x30
 5063 1e51 8D140000 		.4byte	.LASF385
 5064 1e55 01       		.byte	0x1
 5065 1e56 91       		.byte	0x91
 5066 1e57 00000000 		.4byte	.LFB698
 5067 1e5b 64000000 		.4byte	.LFE698-.LFB698
 5068 1e5f 01       		.uleb128 0x1
 5069 1e60 9C       		.byte	0x9c
 5070 1e61 871F0000 		.4byte	0x1f87
 5071 1e65 28       		.uleb128 0x28
 5072 1e66 0A000000 		.4byte	.LVL83
 5073 1e6a B6190000 		.4byte	0x19b6
 5074 1e6e 7E1E0000 		.4byte	0x1e7e
 5075 1e72 27       		.uleb128 0x27
 5076 1e73 01       		.uleb128 0x1
 5077 1e74 50       		.byte	0x50
 5078 1e75 01       		.uleb128 0x1
 5079 1e76 32       		.byte	0x32
 5080 1e77 27       		.uleb128 0x27
 5081 1e78 01       		.uleb128 0x1
 5082 1e79 51       		.byte	0x51
 5083 1e7a 02       		.uleb128 0x2
 5084 1e7b 09       		.byte	0x9
 5085 1e7c C0       		.byte	0xc0
 5086 1e7d 00       		.byte	0
 5087 1e7e 28       		.uleb128 0x28
ARM GAS  C:\Users\jlabe\AppData\Local\Temp\ccJbzXZ1.s 			page 122


 5088 1e7f 12000000 		.4byte	.LVL84
 5089 1e83 B6190000 		.4byte	0x19b6
 5090 1e87 961E0000 		.4byte	0x1e96
 5091 1e8b 27       		.uleb128 0x27
 5092 1e8c 01       		.uleb128 0x1
 5093 1e8d 50       		.byte	0x50
 5094 1e8e 01       		.uleb128 0x1
 5095 1e8f 33       		.byte	0x33
 5096 1e90 27       		.uleb128 0x27
 5097 1e91 01       		.uleb128 0x1
 5098 1e92 51       		.byte	0x51
 5099 1e93 01       		.uleb128 0x1
 5100 1e94 30       		.byte	0x30
 5101 1e95 00       		.byte	0
 5102 1e96 28       		.uleb128 0x28
 5103 1e97 1A000000 		.4byte	.LVL85
 5104 1e9b B6190000 		.4byte	0x19b6
 5105 1e9f AE1E0000 		.4byte	0x1eae
 5106 1ea3 27       		.uleb128 0x27
 5107 1ea4 01       		.uleb128 0x1
 5108 1ea5 50       		.byte	0x50
 5109 1ea6 01       		.uleb128 0x1
 5110 1ea7 34       		.byte	0x34
 5111 1ea8 27       		.uleb128 0x27
 5112 1ea9 01       		.uleb128 0x1
 5113 1eaa 51       		.byte	0x51
 5114 1eab 01       		.uleb128 0x1
 5115 1eac 30       		.byte	0x30
 5116 1ead 00       		.byte	0
 5117 1eae 28       		.uleb128 0x28
 5118 1eaf 22000000 		.4byte	.LVL86
 5119 1eb3 B6190000 		.4byte	0x19b6
 5120 1eb7 C61E0000 		.4byte	0x1ec6
 5121 1ebb 27       		.uleb128 0x27
 5122 1ebc 01       		.uleb128 0x1
 5123 1ebd 50       		.byte	0x50
 5124 1ebe 01       		.uleb128 0x1
 5125 1ebf 35       		.byte	0x35
 5126 1ec0 27       		.uleb128 0x27
 5127 1ec1 01       		.uleb128 0x1
 5128 1ec2 51       		.byte	0x51
 5129 1ec3 01       		.uleb128 0x1
 5130 1ec4 30       		.byte	0x30
 5131 1ec5 00       		.byte	0
 5132 1ec6 28       		.uleb128 0x28
 5133 1ec7 2A000000 		.4byte	.LVL87
 5134 1ecb B6190000 		.4byte	0x19b6
 5135 1ecf DE1E0000 		.4byte	0x1ede
 5136 1ed3 27       		.uleb128 0x27
 5137 1ed4 01       		.uleb128 0x1
 5138 1ed5 50       		.byte	0x50
 5139 1ed6 01       		.uleb128 0x1
 5140 1ed7 36       		.byte	0x36
 5141 1ed8 27       		.uleb128 0x27
 5142 1ed9 01       		.uleb128 0x1
 5143 1eda 51       		.byte	0x51
 5144 1edb 01       		.uleb128 0x1
ARM GAS  C:\Users\jlabe\AppData\Local\Temp\ccJbzXZ1.s 			page 123


 5145 1edc 30       		.byte	0x30
 5146 1edd 00       		.byte	0
 5147 1ede 28       		.uleb128 0x28
 5148 1edf 32000000 		.4byte	.LVL88
 5149 1ee3 B6190000 		.4byte	0x19b6
 5150 1ee7 F71E0000 		.4byte	0x1ef7
 5151 1eeb 27       		.uleb128 0x27
 5152 1eec 01       		.uleb128 0x1
 5153 1eed 50       		.byte	0x50
 5154 1eee 01       		.uleb128 0x1
 5155 1eef 38       		.byte	0x38
 5156 1ef0 27       		.uleb128 0x27
 5157 1ef1 01       		.uleb128 0x1
 5158 1ef2 51       		.byte	0x51
 5159 1ef3 02       		.uleb128 0x2
 5160 1ef4 08       		.byte	0x8
 5161 1ef5 2F       		.byte	0x2f
 5162 1ef6 00       		.byte	0
 5163 1ef7 28       		.uleb128 0x28
 5164 1ef8 3A000000 		.4byte	.LVL89
 5165 1efc B6190000 		.4byte	0x19b6
 5166 1f00 0F1F0000 		.4byte	0x1f0f
 5167 1f04 27       		.uleb128 0x27
 5168 1f05 01       		.uleb128 0x1
 5169 1f06 50       		.byte	0x50
 5170 1f07 01       		.uleb128 0x1
 5171 1f08 39       		.byte	0x39
 5172 1f09 27       		.uleb128 0x27
 5173 1f0a 01       		.uleb128 0x1
 5174 1f0b 51       		.byte	0x51
 5175 1f0c 01       		.uleb128 0x1
 5176 1f0d 33       		.byte	0x33
 5177 1f0e 00       		.byte	0
 5178 1f0f 28       		.uleb128 0x28
 5179 1f10 42000000 		.4byte	.LVL90
 5180 1f14 B6190000 		.4byte	0x19b6
 5181 1f18 281F0000 		.4byte	0x1f28
 5182 1f1c 27       		.uleb128 0x27
 5183 1f1d 01       		.uleb128 0x1
 5184 1f1e 50       		.byte	0x50
 5185 1f1f 01       		.uleb128 0x1
 5186 1f20 3A       		.byte	0x3a
 5187 1f21 27       		.uleb128 0x27
 5188 1f22 01       		.uleb128 0x1
 5189 1f23 51       		.byte	0x51
 5190 1f24 02       		.uleb128 0x2
 5191 1f25 08       		.byte	0x8
 5192 1f26 27       		.byte	0x27
 5193 1f27 00       		.byte	0
 5194 1f28 28       		.uleb128 0x28
 5195 1f29 4A000000 		.4byte	.LVL91
 5196 1f2d B6190000 		.4byte	0x19b6
 5197 1f31 401F0000 		.4byte	0x1f40
 5198 1f35 27       		.uleb128 0x27
 5199 1f36 01       		.uleb128 0x1
 5200 1f37 50       		.byte	0x50
 5201 1f38 01       		.uleb128 0x1
ARM GAS  C:\Users\jlabe\AppData\Local\Temp\ccJbzXZ1.s 			page 124


 5202 1f39 3C       		.byte	0x3c
 5203 1f3a 27       		.uleb128 0x27
 5204 1f3b 01       		.uleb128 0x1
 5205 1f3c 51       		.byte	0x51
 5206 1f3d 01       		.uleb128 0x1
 5207 1f3e 3A       		.byte	0x3a
 5208 1f3f 00       		.byte	0
 5209 1f40 28       		.uleb128 0x28
 5210 1f41 52000000 		.4byte	.LVL92
 5211 1f45 B6190000 		.4byte	0x19b6
 5212 1f49 581F0000 		.4byte	0x1f58
 5213 1f4d 27       		.uleb128 0x27
 5214 1f4e 01       		.uleb128 0x1
 5215 1f4f 50       		.byte	0x50
 5216 1f50 01       		.uleb128 0x1
 5217 1f51 3D       		.byte	0x3d
 5218 1f52 27       		.uleb128 0x27
 5219 1f53 01       		.uleb128 0x1
 5220 1f54 51       		.byte	0x51
 5221 1f55 01       		.uleb128 0x1
 5222 1f56 3A       		.byte	0x3a
 5223 1f57 00       		.byte	0
 5224 1f58 28       		.uleb128 0x28
 5225 1f59 5A000000 		.4byte	.LVL93
 5226 1f5d B6190000 		.4byte	0x19b6
 5227 1f61 711F0000 		.4byte	0x1f71
 5228 1f65 27       		.uleb128 0x27
 5229 1f66 01       		.uleb128 0x1
 5230 1f67 50       		.byte	0x50
 5231 1f68 01       		.uleb128 0x1
 5232 1f69 40       		.byte	0x40
 5233 1f6a 27       		.uleb128 0x27
 5234 1f6b 01       		.uleb128 0x1
 5235 1f6c 51       		.byte	0x51
 5236 1f6d 02       		.uleb128 0x2
 5237 1f6e 08       		.byte	0x8
 5238 1f6f 7D       		.byte	0x7d
 5239 1f70 00       		.byte	0
 5240 1f71 26       		.uleb128 0x26
 5241 1f72 62000000 		.4byte	.LVL94
 5242 1f76 B6190000 		.4byte	0x19b6
 5243 1f7a 27       		.uleb128 0x27
 5244 1f7b 01       		.uleb128 0x1
 5245 1f7c 50       		.byte	0x50
 5246 1f7d 02       		.uleb128 0x2
 5247 1f7e 08       		.byte	0x8
 5248 1f7f 21       		.byte	0x21
 5249 1f80 27       		.uleb128 0x27
 5250 1f81 01       		.uleb128 0x1
 5251 1f82 51       		.byte	0x51
 5252 1f83 01       		.uleb128 0x1
 5253 1f84 31       		.byte	0x31
 5254 1f85 00       		.byte	0
 5255 1f86 00       		.byte	0
 5256 1f87 30       		.uleb128 0x30
 5257 1f88 7E160000 		.4byte	.LASF386
 5258 1f8c 01       		.byte	0x1
ARM GAS  C:\Users\jlabe\AppData\Local\Temp\ccJbzXZ1.s 			page 125


 5259 1f8d C8       		.byte	0xc8
 5260 1f8e 00000000 		.4byte	.LFB699
 5261 1f92 0C000000 		.4byte	.LFE699-.LFB699
 5262 1f96 01       		.uleb128 0x1
 5263 1f97 9C       		.byte	0x9c
 5264 1f98 B21F0000 		.4byte	0x1fb2
 5265 1f9c 26       		.uleb128 0x26
 5266 1f9d 0A000000 		.4byte	.LVL95
 5267 1fa1 B6190000 		.4byte	0x19b6
 5268 1fa5 27       		.uleb128 0x27
 5269 1fa6 01       		.uleb128 0x1
 5270 1fa7 50       		.byte	0x50
 5271 1fa8 01       		.uleb128 0x1
 5272 1fa9 39       		.byte	0x39
 5273 1faa 27       		.uleb128 0x27
 5274 1fab 01       		.uleb128 0x1
 5275 1fac 51       		.byte	0x51
 5276 1fad 02       		.uleb128 0x2
 5277 1fae 08       		.byte	0x8
 5278 1faf 40       		.byte	0x40
 5279 1fb0 00       		.byte	0
 5280 1fb1 00       		.byte	0
 5281 1fb2 2E       		.uleb128 0x2e
 5282 1fb3 38140000 		.4byte	.LASF387
 5283 1fb7 01       		.byte	0x1
 5284 1fb8 CC       		.byte	0xcc
 5285 1fb9 00000000 		.4byte	.LFB700
 5286 1fbd 0C000000 		.4byte	.LFE700-.LFB700
 5287 1fc1 01       		.uleb128 0x1
 5288 1fc2 9C       		.byte	0x9c
 5289 1fc3 E61F0000 		.4byte	0x1fe6
 5290 1fc7 23       		.uleb128 0x23
 5291 1fc8 616D7000 		.ascii	"amp\000"
 5292 1fcc 01       		.byte	0x1
 5293 1fcd CC       		.byte	0xcc
 5294 1fce B8000000 		.4byte	0xb8
 5295 1fd2 A7060000 		.4byte	.LLST59
 5296 1fd6 26       		.uleb128 0x26
 5297 1fd7 0A000000 		.4byte	.LVL98
 5298 1fdb B6190000 		.4byte	0x19b6
 5299 1fdf 27       		.uleb128 0x27
 5300 1fe0 01       		.uleb128 0x1
 5301 1fe1 50       		.byte	0x50
 5302 1fe2 01       		.uleb128 0x1
 5303 1fe3 3C       		.byte	0x3c
 5304 1fe4 00       		.byte	0
 5305 1fe5 00       		.byte	0
 5306 1fe6 2E       		.uleb128 0x2e
 5307 1fe7 AD140000 		.4byte	.LASF388
 5308 1feb 01       		.byte	0x1
 5309 1fec D1       		.byte	0xd1
 5310 1fed 00000000 		.4byte	.LFB701
 5311 1ff1 0E000000 		.4byte	.LFE701-.LFB701
 5312 1ff5 01       		.uleb128 0x1
 5313 1ff6 9C       		.byte	0x9c
 5314 1ff7 26200000 		.4byte	0x2026
 5315 1ffb 22       		.uleb128 0x22
ARM GAS  C:\Users\jlabe\AppData\Local\Temp\ccJbzXZ1.s 			page 126


 5316 1ffc DA0D0000 		.4byte	.LASF378
 5317 2000 01       		.byte	0x1
 5318 2001 D1       		.byte	0xd1
 5319 2002 040E0000 		.4byte	0xe04
 5320 2006 C8060000 		.4byte	.LLST60
 5321 200a 26       		.uleb128 0x26
 5322 200b 0C000000 		.4byte	.LVL101
 5323 200f 061B0000 		.4byte	0x1b06
 5324 2013 27       		.uleb128 0x27
 5325 2014 01       		.uleb128 0x1
 5326 2015 50       		.byte	0x50
 5327 2016 01       		.uleb128 0x1
 5328 2017 4F       		.byte	0x4f
 5329 2018 27       		.uleb128 0x27
 5330 2019 01       		.uleb128 0x1
 5331 201a 51       		.byte	0x51
 5332 201b 03       		.uleb128 0x3
 5333 201c F3       		.byte	0xf3
 5334 201d 01       		.uleb128 0x1
 5335 201e 50       		.byte	0x50
 5336 201f 27       		.uleb128 0x27
 5337 2020 01       		.uleb128 0x1
 5338 2021 52       		.byte	0x52
 5339 2022 01       		.uleb128 0x1
 5340 2023 38       		.byte	0x38
 5341 2024 00       		.byte	0
 5342 2025 00       		.byte	0
 5343 2026 31       		.uleb128 0x31
 5344 2027 600C0000 		.4byte	.LASF389
 5345 202b 01       		.byte	0x1
 5346 202c D8       		.byte	0xd8
 5347 202d 00000000 		.4byte	.LFB702
 5348 2031 50000000 		.4byte	.LFE702-.LFB702
 5349 2035 01       		.uleb128 0x1
 5350 2036 9C       		.byte	0x9c
 5351 2037 F0200000 		.4byte	0x20f0
 5352 203b 23       		.uleb128 0x23
 5353 203c 61726700 		.ascii	"arg\000"
 5354 2040 01       		.byte	0x1
 5355 2041 D8       		.byte	0xd8
 5356 2042 EA0B0000 		.4byte	0xbea
 5357 2046 F4060000 		.4byte	.LLST61
 5358 204a 2A       		.uleb128 0x2a
 5359 204b 73000000 		.4byte	.LASF390
 5360 204f 01       		.byte	0x1
 5361 2050 DB       		.byte	0xdb
 5362 2051 F0200000 		.4byte	0x20f0
 5363 2055 03       		.uleb128 0x3
 5364 2056 91       		.byte	0x91
 5365 2057 D060     		.sleb128 -4016
 5366 2059 2A       		.uleb128 0x2a
 5367 205a FD150000 		.4byte	.LASF391
 5368 205e 01       		.byte	0x1
 5369 205f DC       		.byte	0xdc
 5370 2060 F0200000 		.4byte	0x20f0
 5371 2064 03       		.uleb128 0x3
 5372 2065 91       		.byte	0x91
ARM GAS  C:\Users\jlabe\AppData\Local\Temp\ccJbzXZ1.s 			page 127


 5373 2066 B041     		.sleb128 -8016
 5374 2068 25       		.uleb128 0x25
 5375 2069 6900     		.ascii	"i\000"
 5376 206b 01       		.byte	0x1
 5377 206c DD       		.byte	0xdd
 5378 206d CE000000 		.4byte	0xce
 5379 2071 15070000 		.4byte	.LLST62
 5380 2075 2B       		.uleb128 0x2b
 5381 2076 82150000 		.4byte	0x1582
 5382 207a 14000000 		.4byte	.LBB67
 5383 207e 04000000 		.4byte	.LBE67-.LBB67
 5384 2082 01       		.byte	0x1
 5385 2083 E4       		.byte	0xe4
 5386 2084 9B200000 		.4byte	0x209b
 5387 2088 2C       		.uleb128 0x2c
 5388 2089 9F150000 		.4byte	0x159f
 5389 208d 3F070000 		.4byte	.LLST63
 5390 2091 2C       		.uleb128 0x2c
 5391 2092 93150000 		.4byte	0x1593
 5392 2096 53070000 		.4byte	.LLST64
 5393 209a 00       		.byte	0
 5394 209b 28       		.uleb128 0x28
 5395 209c 2E000000 		.4byte	.LVL108
 5396 20a0 E51D0000 		.4byte	0x1de5
 5397 20a4 C3200000 		.4byte	0x20c3
 5398 20a8 27       		.uleb128 0x27
 5399 20a9 01       		.uleb128 0x1
 5400 20aa 50       		.byte	0x50
 5401 20ab 07       		.uleb128 0x7
 5402 20ac 74       		.byte	0x74
 5403 20ad 00       		.sleb128 0
 5404 20ae 32       		.byte	0x32
 5405 20af 24       		.byte	0x24
 5406 20b0 75       		.byte	0x75
 5407 20b1 00       		.sleb128 0
 5408 20b2 22       		.byte	0x22
 5409 20b3 27       		.uleb128 0x27
 5410 20b4 01       		.uleb128 0x1
 5411 20b5 51       		.byte	0x51
 5412 20b6 0B       		.uleb128 0xb
 5413 20b7 74       		.byte	0x74
 5414 20b8 00       		.sleb128 0
 5415 20b9 32       		.byte	0x32
 5416 20ba 24       		.byte	0x24
 5417 20bb 91       		.byte	0x91
 5418 20bc 00       		.sleb128 0
 5419 20bd 22       		.byte	0x22
 5420 20be 0A       		.byte	0xa
 5421 20bf 501F     		.2byte	0x1f50
 5422 20c1 1C       		.byte	0x1c
 5423 20c2 00       		.byte	0
 5424 20c3 28       		.uleb128 0x28
 5425 20c4 3E000000 		.4byte	.LVL109
 5426 20c8 E1220000 		.4byte	0x22e1
 5427 20cc E0200000 		.4byte	0x20e0
 5428 20d0 27       		.uleb128 0x27
 5429 20d1 01       		.uleb128 0x1
ARM GAS  C:\Users\jlabe\AppData\Local\Temp\ccJbzXZ1.s 			page 128


 5430 20d2 50       		.byte	0x50
 5431 20d3 05       		.uleb128 0x5
 5432 20d4 03       		.byte	0x3
 5433 20d5 00000000 		.4byte	.LC0
 5434 20d9 27       		.uleb128 0x27
 5435 20da 01       		.uleb128 0x1
 5436 20db 51       		.byte	0x51
 5437 20dc 02       		.uleb128 0x2
 5438 20dd 74       		.byte	0x74
 5439 20de 00       		.sleb128 0
 5440 20df 00       		.byte	0
 5441 20e0 26       		.uleb128 0x26
 5442 20e1 44000000 		.4byte	.LVL110
 5443 20e5 EC220000 		.4byte	0x22ec
 5444 20e9 27       		.uleb128 0x27
 5445 20ea 01       		.uleb128 0x1
 5446 20eb 50       		.byte	0x50
 5447 20ec 01       		.uleb128 0x1
 5448 20ed 3A       		.byte	0x3a
 5449 20ee 00       		.byte	0
 5450 20ef 00       		.byte	0
 5451 20f0 07       		.uleb128 0x7
 5452 20f1 E4000000 		.4byte	0xe4
 5453 20f5 01210000 		.4byte	0x2101
 5454 20f9 0E       		.uleb128 0xe
 5455 20fa EF000000 		.4byte	0xef
 5456 20fe E703     		.2byte	0x3e7
 5457 2100 00       		.byte	0
 5458 2101 32       		.uleb128 0x32
 5459 2102 C1170000 		.4byte	.LASF392
 5460 2106 01       		.byte	0x1
 5461 2107 0E01     		.2byte	0x10e
 5462 2109 00000000 		.4byte	.LFB705
 5463 210d 4C000000 		.4byte	.LFE705-.LFB705
 5464 2111 01       		.uleb128 0x1
 5465 2112 9C       		.byte	0x9c
 5466 2113 60210000 		.4byte	0x2160
 5467 2117 28       		.uleb128 0x28
 5468 2118 08000000 		.4byte	.LVL111
 5469 211c EC220000 		.4byte	0x22ec
 5470 2120 2B210000 		.4byte	0x212b
 5471 2124 27       		.uleb128 0x27
 5472 2125 01       		.uleb128 0x1
 5473 2126 50       		.byte	0x50
 5474 2127 02       		.uleb128 0x2
 5475 2128 08       		.byte	0x8
 5476 2129 64       		.byte	0x64
 5477 212a 00       		.byte	0
 5478 212b 28       		.uleb128 0x28
 5479 212c 20000000 		.4byte	.LVL112
 5480 2130 F8220000 		.4byte	0x22f8
 5481 2134 3F210000 		.4byte	0x213f
 5482 2138 27       		.uleb128 0x27
 5483 2139 01       		.uleb128 0x1
 5484 213a 50       		.byte	0x50
 5485 213b 02       		.uleb128 0x2
 5486 213c 74       		.byte	0x74
ARM GAS  C:\Users\jlabe\AppData\Local\Temp\ccJbzXZ1.s 			page 129


 5487 213d 00       		.sleb128 0
 5488 213e 00       		.byte	0
 5489 213f 28       		.uleb128 0x28
 5490 2140 32000000 		.4byte	.LVL113
 5491 2144 03230000 		.4byte	0x2303
 5492 2148 53210000 		.4byte	0x2153
 5493 214c 27       		.uleb128 0x27
 5494 214d 01       		.uleb128 0x1
 5495 214e 50       		.byte	0x50
 5496 214f 02       		.uleb128 0x2
 5497 2150 74       		.byte	0x74
 5498 2151 00       		.sleb128 0
 5499 2152 00       		.byte	0
 5500 2153 33       		.uleb128 0x33
 5501 2154 38000000 		.4byte	.LVL114
 5502 2158 27       		.uleb128 0x27
 5503 2159 01       		.uleb128 0x1
 5504 215a 50       		.byte	0x50
 5505 215b 02       		.uleb128 0x2
 5506 215c 08       		.byte	0x8
 5507 215d 32       		.byte	0x32
 5508 215e 00       		.byte	0
 5509 215f 00       		.byte	0
 5510 2160 34       		.uleb128 0x34
 5511 2161 93010000 		.4byte	.LASF393
 5512 2165 01       		.byte	0x1
 5513 2166 2A01     		.2byte	0x12a
 5514 2168 00000000 		.4byte	.LFB706
 5515 216c 98000000 		.4byte	.LFE706-.LFB706
 5516 2170 01       		.uleb128 0x1
 5517 2171 9C       		.byte	0x9c
 5518 2172 21220000 		.4byte	0x2221
 5519 2176 35       		.uleb128 0x35
 5520 2177 61726700 		.ascii	"arg\000"
 5521 217b 01       		.byte	0x1
 5522 217c 2A01     		.2byte	0x12a
 5523 217e EA0B0000 		.4byte	0xbea
 5524 2182 6B070000 		.4byte	.LLST65
 5525 2186 36       		.uleb128 0x36
 5526 2187 61636300 		.ascii	"acc\000"
 5527 218b 01       		.byte	0x1
 5528 218c 2E01     		.2byte	0x12e
 5529 218e 1F120000 		.4byte	0x121f
 5530 2192 02       		.uleb128 0x2
 5531 2193 91       		.byte	0x91
 5532 2194 5C       		.sleb128 -36
 5533 2195 37       		.uleb128 0x37
 5534 2196 FE050000 		.4byte	.LASF394
 5535 219a 01       		.byte	0x1
 5536 219b 3001     		.2byte	0x130
 5537 219d D10B0000 		.4byte	0xbd1
 5538 21a1 8C070000 		.4byte	.LLST66
 5539 21a5 38       		.uleb128 0x38
 5540 21a6 08000000 		.4byte	.LVL116
 5541 21aa 01210000 		.4byte	0x2101
 5542 21ae 28       		.uleb128 0x28
 5543 21af 14000000 		.4byte	.LVL117
ARM GAS  C:\Users\jlabe\AppData\Local\Temp\ccJbzXZ1.s 			page 130


 5544 21b3 0E230000 		.4byte	0x230e
 5545 21b7 D5210000 		.4byte	0x21d5
 5546 21bb 27       		.uleb128 0x27
 5547 21bc 01       		.uleb128 0x1
 5548 21bd 50       		.byte	0x50
 5549 21be 01       		.uleb128 0x1
 5550 21bf 31       		.byte	0x31
 5551 21c0 27       		.uleb128 0x27
 5552 21c1 01       		.uleb128 0x1
 5553 21c2 51       		.byte	0x51
 5554 21c3 02       		.uleb128 0x2
 5555 21c4 91       		.byte	0x91
 5556 21c5 5C       		.sleb128 -36
 5557 21c6 27       		.uleb128 0x27
 5558 21c7 01       		.uleb128 0x1
 5559 21c8 52       		.byte	0x52
 5560 21c9 01       		.uleb128 0x1
 5561 21ca 30       		.byte	0x30
 5562 21cb 27       		.uleb128 0x27
 5563 21cc 01       		.uleb128 0x1
 5564 21cd 53       		.byte	0x53
 5565 21ce 05       		.uleb128 0x5
 5566 21cf 03       		.byte	0x3
 5567 21d0 00000000 		.4byte	bmi160Dev
 5568 21d4 00       		.byte	0
 5569 21d5 38       		.uleb128 0x38
 5570 21d6 2A000000 		.4byte	.LVL119
 5571 21da 19230000 		.4byte	0x2319
 5572 21de 38       		.uleb128 0x38
 5573 21df 3E000000 		.4byte	.LVL121
 5574 21e3 19230000 		.4byte	0x2319
 5575 21e7 38       		.uleb128 0x38
 5576 21e8 5E000000 		.4byte	.LVL124
 5577 21ec 19230000 		.4byte	0x2319
 5578 21f0 38       		.uleb128 0x38
 5579 21f1 72000000 		.4byte	.LVL126
 5580 21f5 24230000 		.4byte	0x2324
 5581 21f9 28       		.uleb128 0x28
 5582 21fa 84000000 		.4byte	.LVL129
 5583 21fe E1220000 		.4byte	0x22e1
 5584 2202 10220000 		.4byte	0x2210
 5585 2206 27       		.uleb128 0x27
 5586 2207 01       		.uleb128 0x1
 5587 2208 50       		.byte	0x50
 5588 2209 05       		.uleb128 0x5
 5589 220a 03       		.byte	0x3
 5590 220b 20000000 		.4byte	.LC1
 5591 220f 00       		.byte	0
 5592 2210 26       		.uleb128 0x26
 5593 2211 8A000000 		.4byte	.LVL130
 5594 2215 EC220000 		.4byte	0x22ec
 5595 2219 27       		.uleb128 0x27
 5596 221a 01       		.uleb128 0x1
 5597 221b 50       		.byte	0x50
 5598 221c 02       		.uleb128 0x2
 5599 221d 08       		.byte	0x8
 5600 221e C8       		.byte	0xc8
ARM GAS  C:\Users\jlabe\AppData\Local\Temp\ccJbzXZ1.s 			page 131


 5601 221f 00       		.byte	0
 5602 2220 00       		.byte	0
 5603 2221 39       		.uleb128 0x39
 5604 2222 B2090000 		.4byte	.LASF395
 5605 2226 12       		.byte	0x12
 5606 2227 0108     		.2byte	0x801
 5607 2229 2D220000 		.4byte	0x222d
 5608 222d 05       		.uleb128 0x5
 5609 222e D9000000 		.4byte	0xd9
 5610 2232 3A       		.uleb128 0x3a
 5611 2233 82000000 		.4byte	.LASF396
 5612 2237 09       		.byte	0x9
 5613 2238 A7       		.byte	0xa7
 5614 2239 3D220000 		.4byte	0x223d
 5615 223d 10       		.uleb128 0x10
 5616 223e 04       		.byte	0x4
 5617 223f 43220000 		.4byte	0x2243
 5618 2243 06       		.uleb128 0x6
 5619 2244 AC0B0000 		.4byte	0xbac
 5620 2248 3A       		.uleb128 0x3a
 5621 2249 44070000 		.4byte	.LASF397
 5622 224d 13       		.byte	0x13
 5623 224e 1F       		.byte	0x1f
 5624 224f 53220000 		.4byte	0x2253
 5625 2253 06       		.uleb128 0x6
 5626 2254 C7110000 		.4byte	0x11c7
 5627 2258 3A       		.uleb128 0x3a
 5628 2259 6D0C0000 		.4byte	.LASF398
 5629 225d 14       		.byte	0x14
 5630 225e 1F       		.byte	0x1f
 5631 225f 63220000 		.4byte	0x2263
 5632 2263 06       		.uleb128 0x6
 5633 2264 83100000 		.4byte	0x1083
 5634 2268 3A       		.uleb128 0x3a
 5635 2269 0A010000 		.4byte	.LASF399
 5636 226d 15       		.byte	0x15
 5637 226e 5E       		.byte	0x5e
 5638 226f AA0E0000 		.4byte	0xeaa
 5639 2273 3A       		.uleb128 0x3a
 5640 2274 E10D0000 		.4byte	.LASF400
 5641 2278 02       		.byte	0x2
 5642 2279 7F       		.byte	0x7f
 5643 227a 0F0E0000 		.4byte	0xe0f
 5644 227e 3A       		.uleb128 0x3a
 5645 227f 540A0000 		.4byte	.LASF401
 5646 2283 16       		.byte	0x16
 5647 2284 87       		.byte	0x87
 5648 2285 860F0000 		.4byte	0xf86
 5649 2289 3A       		.uleb128 0x3a
 5650 228a E5140000 		.4byte	.LASF402
 5651 228e 17       		.byte	0x17
 5652 228f 7F       		.byte	0x7f
 5653 2290 0F0E0000 		.4byte	0xe0f
 5654 2294 3B       		.uleb128 0x3b
 5655 2295 320E0000 		.4byte	.LASF403
 5656 2299 01       		.byte	0x1
 5657 229a ED       		.byte	0xed
ARM GAS  C:\Users\jlabe\AppData\Local\Temp\ccJbzXZ1.s 			page 132


 5658 229b CF130000 		.4byte	0x13cf
 5659 229f 05       		.uleb128 0x5
 5660 22a0 03       		.byte	0x3
 5661 22a1 00000000 		.4byte	bmi160Dev
 5662 22a5 3C       		.uleb128 0x3c
 5663 22a6 79070000 		.4byte	.LASF404
 5664 22aa 79070000 		.4byte	.LASF404
 5665 22ae 0B       		.byte	0xb
 5666 22af 5A03     		.2byte	0x35a
 5667 22b1 3C       		.uleb128 0x3c
 5668 22b2 5E0E0000 		.4byte	.LASF405
 5669 22b6 5E0E0000 		.4byte	.LASF405
 5670 22ba 0B       		.byte	0xb
 5671 22bb 5303     		.2byte	0x353
 5672 22bd 3C       		.uleb128 0x3c
 5673 22be E60C0000 		.4byte	.LASF406
 5674 22c2 E60C0000 		.4byte	.LASF406
 5675 22c6 0B       		.byte	0xb
 5676 22c7 5703     		.2byte	0x357
 5677 22c9 3C       		.uleb128 0x3c
 5678 22ca AD120000 		.4byte	.LASF407
 5679 22ce AD120000 		.4byte	.LASF407
 5680 22d2 0B       		.byte	0xb
 5681 22d3 5803     		.2byte	0x358
 5682 22d5 3C       		.uleb128 0x3c
 5683 22d6 5C070000 		.4byte	.LASF408
 5684 22da 5C070000 		.4byte	.LASF408
 5685 22de 0B       		.byte	0xb
 5686 22df 5503     		.2byte	0x355
 5687 22e1 3D       		.uleb128 0x3d
 5688 22e2 D10C0000 		.4byte	.LASF409
 5689 22e6 D10C0000 		.4byte	.LASF409
 5690 22ea 18       		.byte	0x18
 5691 22eb BB       		.byte	0xbb
 5692 22ec 3C       		.uleb128 0x3c
 5693 22ed EE080000 		.4byte	.LASF410
 5694 22f1 EE080000 		.4byte	.LASF410
 5695 22f5 19       		.byte	0x19
 5696 22f6 ED02     		.2byte	0x2ed
 5697 22f8 3D       		.uleb128 0x3d
 5698 22f9 CC170000 		.4byte	.LASF411
 5699 22fd CC170000 		.4byte	.LASF411
 5700 2301 1A       		.byte	0x1a
 5701 2302 55       		.byte	0x55
 5702 2303 3D       		.uleb128 0x3d
 5703 2304 2C0B0000 		.4byte	.LASF412
 5704 2308 2C0B0000 		.4byte	.LASF412
 5705 230c 1A       		.byte	0x1a
 5706 230d 88       		.byte	0x88
 5707 230e 3D       		.uleb128 0x3d
 5708 230f E7030000 		.4byte	.LASF413
 5709 2313 E7030000 		.4byte	.LASF413
 5710 2317 1A       		.byte	0x1a
 5711 2318 A3       		.byte	0xa3
 5712 2319 3E       		.uleb128 0x3e
 5713 231a 706F7700 		.ascii	"pow\000"
 5714 231e 706F7700 		.ascii	"pow\000"
ARM GAS  C:\Users\jlabe\AppData\Local\Temp\ccJbzXZ1.s 			page 133


 5715 2322 1B       		.byte	0x1b
 5716 2323 86       		.byte	0x86
 5717 2324 3D       		.uleb128 0x3d
 5718 2325 8F060000 		.4byte	.LASF414
 5719 2329 8F060000 		.4byte	.LASF414
 5720 232d 1B       		.byte	0x1b
 5721 232e 87       		.byte	0x87
 5722 232f 00       		.byte	0
 5723              		.section	.debug_abbrev,"",%progbits
 5724              	.Ldebug_abbrev0:
 5725 0000 01       		.uleb128 0x1
 5726 0001 11       		.uleb128 0x11
 5727 0002 01       		.byte	0x1
 5728 0003 25       		.uleb128 0x25
 5729 0004 0E       		.uleb128 0xe
 5730 0005 13       		.uleb128 0x13
 5731 0006 0B       		.uleb128 0xb
 5732 0007 03       		.uleb128 0x3
 5733 0008 0E       		.uleb128 0xe
 5734 0009 1B       		.uleb128 0x1b
 5735 000a 0E       		.uleb128 0xe
 5736 000b 55       		.uleb128 0x55
 5737 000c 17       		.uleb128 0x17
 5738 000d 11       		.uleb128 0x11
 5739 000e 01       		.uleb128 0x1
 5740 000f 10       		.uleb128 0x10
 5741 0010 17       		.uleb128 0x17
 5742 0011 00       		.byte	0
 5743 0012 00       		.byte	0
 5744 0013 02       		.uleb128 0x2
 5745 0014 24       		.uleb128 0x24
 5746 0015 00       		.byte	0
 5747 0016 0B       		.uleb128 0xb
 5748 0017 0B       		.uleb128 0xb
 5749 0018 3E       		.uleb128 0x3e
 5750 0019 0B       		.uleb128 0xb
 5751 001a 03       		.uleb128 0x3
 5752 001b 0E       		.uleb128 0xe
 5753 001c 00       		.byte	0
 5754 001d 00       		.byte	0
 5755 001e 03       		.uleb128 0x3
 5756 001f 16       		.uleb128 0x16
 5757 0020 00       		.byte	0
 5758 0021 03       		.uleb128 0x3
 5759 0022 0E       		.uleb128 0xe
 5760 0023 3A       		.uleb128 0x3a
 5761 0024 0B       		.uleb128 0xb
 5762 0025 3B       		.uleb128 0x3b
 5763 0026 0B       		.uleb128 0xb
 5764 0027 49       		.uleb128 0x49
 5765 0028 13       		.uleb128 0x13
 5766 0029 00       		.byte	0
 5767 002a 00       		.byte	0
 5768 002b 04       		.uleb128 0x4
 5769 002c 24       		.uleb128 0x24
 5770 002d 00       		.byte	0
 5771 002e 0B       		.uleb128 0xb
ARM GAS  C:\Users\jlabe\AppData\Local\Temp\ccJbzXZ1.s 			page 134


 5772 002f 0B       		.uleb128 0xb
 5773 0030 3E       		.uleb128 0x3e
 5774 0031 0B       		.uleb128 0xb
 5775 0032 03       		.uleb128 0x3
 5776 0033 08       		.uleb128 0x8
 5777 0034 00       		.byte	0
 5778 0035 00       		.byte	0
 5779 0036 05       		.uleb128 0x5
 5780 0037 35       		.uleb128 0x35
 5781 0038 00       		.byte	0
 5782 0039 49       		.uleb128 0x49
 5783 003a 13       		.uleb128 0x13
 5784 003b 00       		.byte	0
 5785 003c 00       		.byte	0
 5786 003d 06       		.uleb128 0x6
 5787 003e 26       		.uleb128 0x26
 5788 003f 00       		.byte	0
 5789 0040 49       		.uleb128 0x49
 5790 0041 13       		.uleb128 0x13
 5791 0042 00       		.byte	0
 5792 0043 00       		.byte	0
 5793 0044 07       		.uleb128 0x7
 5794 0045 01       		.uleb128 0x1
 5795 0046 01       		.byte	0x1
 5796 0047 49       		.uleb128 0x49
 5797 0048 13       		.uleb128 0x13
 5798 0049 01       		.uleb128 0x1
 5799 004a 13       		.uleb128 0x13
 5800 004b 00       		.byte	0
 5801 004c 00       		.byte	0
 5802 004d 08       		.uleb128 0x8
 5803 004e 21       		.uleb128 0x21
 5804 004f 00       		.byte	0
 5805 0050 49       		.uleb128 0x49
 5806 0051 13       		.uleb128 0x13
 5807 0052 2F       		.uleb128 0x2f
 5808 0053 0B       		.uleb128 0xb
 5809 0054 00       		.byte	0
 5810 0055 00       		.byte	0
 5811 0056 09       		.uleb128 0x9
 5812 0057 13       		.uleb128 0x13
 5813 0058 01       		.byte	0x1
 5814 0059 0B       		.uleb128 0xb
 5815 005a 0B       		.uleb128 0xb
 5816 005b 3A       		.uleb128 0x3a
 5817 005c 0B       		.uleb128 0xb
 5818 005d 3B       		.uleb128 0x3b
 5819 005e 0B       		.uleb128 0xb
 5820 005f 01       		.uleb128 0x1
 5821 0060 13       		.uleb128 0x13
 5822 0061 00       		.byte	0
 5823 0062 00       		.byte	0
 5824 0063 0A       		.uleb128 0xa
 5825 0064 0D       		.uleb128 0xd
 5826 0065 00       		.byte	0
 5827 0066 03       		.uleb128 0x3
 5828 0067 08       		.uleb128 0x8
ARM GAS  C:\Users\jlabe\AppData\Local\Temp\ccJbzXZ1.s 			page 135


 5829 0068 3A       		.uleb128 0x3a
 5830 0069 0B       		.uleb128 0xb
 5831 006a 3B       		.uleb128 0x3b
 5832 006b 0B       		.uleb128 0xb
 5833 006c 49       		.uleb128 0x49
 5834 006d 13       		.uleb128 0x13
 5835 006e 38       		.uleb128 0x38
 5836 006f 0B       		.uleb128 0xb
 5837 0070 00       		.byte	0
 5838 0071 00       		.byte	0
 5839 0072 0B       		.uleb128 0xb
 5840 0073 0D       		.uleb128 0xd
 5841 0074 00       		.byte	0
 5842 0075 03       		.uleb128 0x3
 5843 0076 0E       		.uleb128 0xe
 5844 0077 3A       		.uleb128 0x3a
 5845 0078 0B       		.uleb128 0xb
 5846 0079 3B       		.uleb128 0x3b
 5847 007a 0B       		.uleb128 0xb
 5848 007b 49       		.uleb128 0x49
 5849 007c 13       		.uleb128 0x13
 5850 007d 38       		.uleb128 0x38
 5851 007e 0B       		.uleb128 0xb
 5852 007f 00       		.byte	0
 5853 0080 00       		.byte	0
 5854 0081 0C       		.uleb128 0xc
 5855 0082 13       		.uleb128 0x13
 5856 0083 01       		.byte	0x1
 5857 0084 0B       		.uleb128 0xb
 5858 0085 05       		.uleb128 0x5
 5859 0086 3A       		.uleb128 0x3a
 5860 0087 0B       		.uleb128 0xb
 5861 0088 3B       		.uleb128 0x3b
 5862 0089 0B       		.uleb128 0xb
 5863 008a 01       		.uleb128 0x1
 5864 008b 13       		.uleb128 0x13
 5865 008c 00       		.byte	0
 5866 008d 00       		.byte	0
 5867 008e 0D       		.uleb128 0xd
 5868 008f 0D       		.uleb128 0xd
 5869 0090 00       		.byte	0
 5870 0091 03       		.uleb128 0x3
 5871 0092 0E       		.uleb128 0xe
 5872 0093 3A       		.uleb128 0x3a
 5873 0094 0B       		.uleb128 0xb
 5874 0095 3B       		.uleb128 0x3b
 5875 0096 0B       		.uleb128 0xb
 5876 0097 49       		.uleb128 0x49
 5877 0098 13       		.uleb128 0x13
 5878 0099 38       		.uleb128 0x38
 5879 009a 05       		.uleb128 0x5
 5880 009b 00       		.byte	0
 5881 009c 00       		.byte	0
 5882 009d 0E       		.uleb128 0xe
 5883 009e 21       		.uleb128 0x21
 5884 009f 00       		.byte	0
 5885 00a0 49       		.uleb128 0x49
ARM GAS  C:\Users\jlabe\AppData\Local\Temp\ccJbzXZ1.s 			page 136


 5886 00a1 13       		.uleb128 0x13
 5887 00a2 2F       		.uleb128 0x2f
 5888 00a3 05       		.uleb128 0x5
 5889 00a4 00       		.byte	0
 5890 00a5 00       		.byte	0
 5891 00a6 0F       		.uleb128 0xf
 5892 00a7 16       		.uleb128 0x16
 5893 00a8 00       		.byte	0
 5894 00a9 03       		.uleb128 0x3
 5895 00aa 0E       		.uleb128 0xe
 5896 00ab 3A       		.uleb128 0x3a
 5897 00ac 0B       		.uleb128 0xb
 5898 00ad 3B       		.uleb128 0x3b
 5899 00ae 05       		.uleb128 0x5
 5900 00af 49       		.uleb128 0x49
 5901 00b0 13       		.uleb128 0x13
 5902 00b1 00       		.byte	0
 5903 00b2 00       		.byte	0
 5904 00b3 10       		.uleb128 0x10
 5905 00b4 0F       		.uleb128 0xf
 5906 00b5 00       		.byte	0
 5907 00b6 0B       		.uleb128 0xb
 5908 00b7 0B       		.uleb128 0xb
 5909 00b8 49       		.uleb128 0x49
 5910 00b9 13       		.uleb128 0x13
 5911 00ba 00       		.byte	0
 5912 00bb 00       		.byte	0
 5913 00bc 11       		.uleb128 0x11
 5914 00bd 0F       		.uleb128 0xf
 5915 00be 00       		.byte	0
 5916 00bf 0B       		.uleb128 0xb
 5917 00c0 0B       		.uleb128 0xb
 5918 00c1 00       		.byte	0
 5919 00c2 00       		.byte	0
 5920 00c3 12       		.uleb128 0x12
 5921 00c4 04       		.uleb128 0x4
 5922 00c5 01       		.byte	0x1
 5923 00c6 0B       		.uleb128 0xb
 5924 00c7 0B       		.uleb128 0xb
 5925 00c8 49       		.uleb128 0x49
 5926 00c9 13       		.uleb128 0x13
 5927 00ca 3A       		.uleb128 0x3a
 5928 00cb 0B       		.uleb128 0xb
 5929 00cc 3B       		.uleb128 0x3b
 5930 00cd 05       		.uleb128 0x5
 5931 00ce 01       		.uleb128 0x1
 5932 00cf 13       		.uleb128 0x13
 5933 00d0 00       		.byte	0
 5934 00d1 00       		.byte	0
 5935 00d2 13       		.uleb128 0x13
 5936 00d3 28       		.uleb128 0x28
 5937 00d4 00       		.byte	0
 5938 00d5 03       		.uleb128 0x3
 5939 00d6 0E       		.uleb128 0xe
 5940 00d7 1C       		.uleb128 0x1c
 5941 00d8 0B       		.uleb128 0xb
 5942 00d9 00       		.byte	0
ARM GAS  C:\Users\jlabe\AppData\Local\Temp\ccJbzXZ1.s 			page 137


 5943 00da 00       		.byte	0
 5944 00db 14       		.uleb128 0x14
 5945 00dc 28       		.uleb128 0x28
 5946 00dd 00       		.byte	0
 5947 00de 03       		.uleb128 0x3
 5948 00df 0E       		.uleb128 0xe
 5949 00e0 1C       		.uleb128 0x1c
 5950 00e1 06       		.uleb128 0x6
 5951 00e2 00       		.byte	0
 5952 00e3 00       		.byte	0
 5953 00e4 15       		.uleb128 0x15
 5954 00e5 15       		.uleb128 0x15
 5955 00e6 01       		.byte	0x1
 5956 00e7 27       		.uleb128 0x27
 5957 00e8 19       		.uleb128 0x19
 5958 00e9 01       		.uleb128 0x1
 5959 00ea 13       		.uleb128 0x13
 5960 00eb 00       		.byte	0
 5961 00ec 00       		.byte	0
 5962 00ed 16       		.uleb128 0x16
 5963 00ee 05       		.uleb128 0x5
 5964 00ef 00       		.byte	0
 5965 00f0 49       		.uleb128 0x49
 5966 00f1 13       		.uleb128 0x13
 5967 00f2 00       		.byte	0
 5968 00f3 00       		.byte	0
 5969 00f4 17       		.uleb128 0x17
 5970 00f5 15       		.uleb128 0x15
 5971 00f6 01       		.byte	0x1
 5972 00f7 27       		.uleb128 0x27
 5973 00f8 19       		.uleb128 0x19
 5974 00f9 49       		.uleb128 0x49
 5975 00fa 13       		.uleb128 0x13
 5976 00fb 01       		.uleb128 0x1
 5977 00fc 13       		.uleb128 0x13
 5978 00fd 00       		.byte	0
 5979 00fe 00       		.byte	0
 5980 00ff 18       		.uleb128 0x18
 5981 0100 13       		.uleb128 0x13
 5982 0101 01       		.byte	0x1
 5983 0102 03       		.uleb128 0x3
 5984 0103 0E       		.uleb128 0xe
 5985 0104 0B       		.uleb128 0xb
 5986 0105 0B       		.uleb128 0xb
 5987 0106 3A       		.uleb128 0x3a
 5988 0107 0B       		.uleb128 0xb
 5989 0108 3B       		.uleb128 0x3b
 5990 0109 05       		.uleb128 0x5
 5991 010a 01       		.uleb128 0x1
 5992 010b 13       		.uleb128 0x13
 5993 010c 00       		.byte	0
 5994 010d 00       		.byte	0
 5995 010e 19       		.uleb128 0x19
 5996 010f 0D       		.uleb128 0xd
 5997 0110 00       		.byte	0
 5998 0111 03       		.uleb128 0x3
 5999 0112 0E       		.uleb128 0xe
ARM GAS  C:\Users\jlabe\AppData\Local\Temp\ccJbzXZ1.s 			page 138


 6000 0113 3A       		.uleb128 0x3a
 6001 0114 0B       		.uleb128 0xb
 6002 0115 3B       		.uleb128 0x3b
 6003 0116 05       		.uleb128 0x5
 6004 0117 49       		.uleb128 0x49
 6005 0118 13       		.uleb128 0x13
 6006 0119 38       		.uleb128 0x38
 6007 011a 0B       		.uleb128 0xb
 6008 011b 00       		.byte	0
 6009 011c 00       		.byte	0
 6010 011d 1A       		.uleb128 0x1a
 6011 011e 13       		.uleb128 0x13
 6012 011f 01       		.byte	0x1
 6013 0120 03       		.uleb128 0x3
 6014 0121 0E       		.uleb128 0xe
 6015 0122 0B       		.uleb128 0xb
 6016 0123 0B       		.uleb128 0xb
 6017 0124 3A       		.uleb128 0x3a
 6018 0125 0B       		.uleb128 0xb
 6019 0126 3B       		.uleb128 0x3b
 6020 0127 0B       		.uleb128 0xb
 6021 0128 01       		.uleb128 0x1
 6022 0129 13       		.uleb128 0x13
 6023 012a 00       		.byte	0
 6024 012b 00       		.byte	0
 6025 012c 1B       		.uleb128 0x1b
 6026 012d 0D       		.uleb128 0xd
 6027 012e 00       		.byte	0
 6028 012f 03       		.uleb128 0x3
 6029 0130 08       		.uleb128 0x8
 6030 0131 3A       		.uleb128 0x3a
 6031 0132 0B       		.uleb128 0xb
 6032 0133 3B       		.uleb128 0x3b
 6033 0134 05       		.uleb128 0x5
 6034 0135 49       		.uleb128 0x49
 6035 0136 13       		.uleb128 0x13
 6036 0137 38       		.uleb128 0x38
 6037 0138 0B       		.uleb128 0xb
 6038 0139 00       		.byte	0
 6039 013a 00       		.byte	0
 6040 013b 1C       		.uleb128 0x1c
 6041 013c 04       		.uleb128 0x4
 6042 013d 01       		.byte	0x1
 6043 013e 03       		.uleb128 0x3
 6044 013f 0E       		.uleb128 0xe
 6045 0140 0B       		.uleb128 0xb
 6046 0141 0B       		.uleb128 0xb
 6047 0142 49       		.uleb128 0x49
 6048 0143 13       		.uleb128 0x13
 6049 0144 3A       		.uleb128 0x3a
 6050 0145 0B       		.uleb128 0xb
 6051 0146 3B       		.uleb128 0x3b
 6052 0147 05       		.uleb128 0x5
 6053 0148 01       		.uleb128 0x1
 6054 0149 13       		.uleb128 0x13
 6055 014a 00       		.byte	0
 6056 014b 00       		.byte	0
ARM GAS  C:\Users\jlabe\AppData\Local\Temp\ccJbzXZ1.s 			page 139


 6057 014c 1D       		.uleb128 0x1d
 6058 014d 0D       		.uleb128 0xd
 6059 014e 00       		.byte	0
 6060 014f 03       		.uleb128 0x3
 6061 0150 0E       		.uleb128 0xe
 6062 0151 3A       		.uleb128 0x3a
 6063 0152 0B       		.uleb128 0xb
 6064 0153 3B       		.uleb128 0x3b
 6065 0154 05       		.uleb128 0x5
 6066 0155 49       		.uleb128 0x49
 6067 0156 13       		.uleb128 0x13
 6068 0157 0B       		.uleb128 0xb
 6069 0158 0B       		.uleb128 0xb
 6070 0159 0D       		.uleb128 0xd
 6071 015a 0B       		.uleb128 0xb
 6072 015b 0C       		.uleb128 0xc
 6073 015c 0B       		.uleb128 0xb
 6074 015d 38       		.uleb128 0x38
 6075 015e 0B       		.uleb128 0xb
 6076 015f 00       		.byte	0
 6077 0160 00       		.byte	0
 6078 0161 1E       		.uleb128 0x1e
 6079 0162 28       		.uleb128 0x28
 6080 0163 00       		.byte	0
 6081 0164 03       		.uleb128 0x3
 6082 0165 0E       		.uleb128 0xe
 6083 0166 1C       		.uleb128 0x1c
 6084 0167 0D       		.uleb128 0xd
 6085 0168 00       		.byte	0
 6086 0169 00       		.byte	0
 6087 016a 1F       		.uleb128 0x1f
 6088 016b 2E       		.uleb128 0x2e
 6089 016c 01       		.byte	0x1
 6090 016d 03       		.uleb128 0x3
 6091 016e 0E       		.uleb128 0xe
 6092 016f 3A       		.uleb128 0x3a
 6093 0170 0B       		.uleb128 0xb
 6094 0171 3B       		.uleb128 0x3b
 6095 0172 05       		.uleb128 0x5
 6096 0173 27       		.uleb128 0x27
 6097 0174 19       		.uleb128 0x19
 6098 0175 49       		.uleb128 0x49
 6099 0176 13       		.uleb128 0x13
 6100 0177 20       		.uleb128 0x20
 6101 0178 0B       		.uleb128 0xb
 6102 0179 01       		.uleb128 0x1
 6103 017a 13       		.uleb128 0x13
 6104 017b 00       		.byte	0
 6105 017c 00       		.byte	0
 6106 017d 20       		.uleb128 0x20
 6107 017e 05       		.uleb128 0x5
 6108 017f 00       		.byte	0
 6109 0180 03       		.uleb128 0x3
 6110 0181 0E       		.uleb128 0xe
 6111 0182 3A       		.uleb128 0x3a
 6112 0183 0B       		.uleb128 0xb
 6113 0184 3B       		.uleb128 0x3b
ARM GAS  C:\Users\jlabe\AppData\Local\Temp\ccJbzXZ1.s 			page 140


 6114 0185 05       		.uleb128 0x5
 6115 0186 49       		.uleb128 0x49
 6116 0187 13       		.uleb128 0x13
 6117 0188 00       		.byte	0
 6118 0189 00       		.byte	0
 6119 018a 21       		.uleb128 0x21
 6120 018b 2E       		.uleb128 0x2e
 6121 018c 01       		.byte	0x1
 6122 018d 3F       		.uleb128 0x3f
 6123 018e 19       		.uleb128 0x19
 6124 018f 03       		.uleb128 0x3
 6125 0190 0E       		.uleb128 0xe
 6126 0191 3A       		.uleb128 0x3a
 6127 0192 0B       		.uleb128 0xb
 6128 0193 3B       		.uleb128 0x3b
 6129 0194 0B       		.uleb128 0xb
 6130 0195 27       		.uleb128 0x27
 6131 0196 19       		.uleb128 0x19
 6132 0197 49       		.uleb128 0x49
 6133 0198 13       		.uleb128 0x13
 6134 0199 11       		.uleb128 0x11
 6135 019a 01       		.uleb128 0x1
 6136 019b 12       		.uleb128 0x12
 6137 019c 06       		.uleb128 0x6
 6138 019d 40       		.uleb128 0x40
 6139 019e 18       		.uleb128 0x18
 6140 019f 9742     		.uleb128 0x2117
 6141 01a1 19       		.uleb128 0x19
 6142 01a2 01       		.uleb128 0x1
 6143 01a3 13       		.uleb128 0x13
 6144 01a4 00       		.byte	0
 6145 01a5 00       		.byte	0
 6146 01a6 22       		.uleb128 0x22
 6147 01a7 05       		.uleb128 0x5
 6148 01a8 00       		.byte	0
 6149 01a9 03       		.uleb128 0x3
 6150 01aa 0E       		.uleb128 0xe
 6151 01ab 3A       		.uleb128 0x3a
 6152 01ac 0B       		.uleb128 0xb
 6153 01ad 3B       		.uleb128 0x3b
 6154 01ae 0B       		.uleb128 0xb
 6155 01af 49       		.uleb128 0x49
 6156 01b0 13       		.uleb128 0x13
 6157 01b1 02       		.uleb128 0x2
 6158 01b2 17       		.uleb128 0x17
 6159 01b3 00       		.byte	0
 6160 01b4 00       		.byte	0
 6161 01b5 23       		.uleb128 0x23
 6162 01b6 05       		.uleb128 0x5
 6163 01b7 00       		.byte	0
 6164 01b8 03       		.uleb128 0x3
 6165 01b9 08       		.uleb128 0x8
 6166 01ba 3A       		.uleb128 0x3a
 6167 01bb 0B       		.uleb128 0xb
 6168 01bc 3B       		.uleb128 0x3b
 6169 01bd 0B       		.uleb128 0xb
 6170 01be 49       		.uleb128 0x49
ARM GAS  C:\Users\jlabe\AppData\Local\Temp\ccJbzXZ1.s 			page 141


 6171 01bf 13       		.uleb128 0x13
 6172 01c0 02       		.uleb128 0x2
 6173 01c1 17       		.uleb128 0x17
 6174 01c2 00       		.byte	0
 6175 01c3 00       		.byte	0
 6176 01c4 24       		.uleb128 0x24
 6177 01c5 0B       		.uleb128 0xb
 6178 01c6 01       		.byte	0x1
 6179 01c7 11       		.uleb128 0x11
 6180 01c8 01       		.uleb128 0x1
 6181 01c9 12       		.uleb128 0x12
 6182 01ca 06       		.uleb128 0x6
 6183 01cb 01       		.uleb128 0x1
 6184 01cc 13       		.uleb128 0x13
 6185 01cd 00       		.byte	0
 6186 01ce 00       		.byte	0
 6187 01cf 25       		.uleb128 0x25
 6188 01d0 34       		.uleb128 0x34
 6189 01d1 00       		.byte	0
 6190 01d2 03       		.uleb128 0x3
 6191 01d3 08       		.uleb128 0x8
 6192 01d4 3A       		.uleb128 0x3a
 6193 01d5 0B       		.uleb128 0xb
 6194 01d6 3B       		.uleb128 0x3b
 6195 01d7 0B       		.uleb128 0xb
 6196 01d8 49       		.uleb128 0x49
 6197 01d9 13       		.uleb128 0x13
 6198 01da 02       		.uleb128 0x2
 6199 01db 17       		.uleb128 0x17
 6200 01dc 00       		.byte	0
 6201 01dd 00       		.byte	0
 6202 01de 26       		.uleb128 0x26
 6203 01df 898201   		.uleb128 0x4109
 6204 01e2 01       		.byte	0x1
 6205 01e3 11       		.uleb128 0x11
 6206 01e4 01       		.uleb128 0x1
 6207 01e5 31       		.uleb128 0x31
 6208 01e6 13       		.uleb128 0x13
 6209 01e7 00       		.byte	0
 6210 01e8 00       		.byte	0
 6211 01e9 27       		.uleb128 0x27
 6212 01ea 8A8201   		.uleb128 0x410a
 6213 01ed 00       		.byte	0
 6214 01ee 02       		.uleb128 0x2
 6215 01ef 18       		.uleb128 0x18
 6216 01f0 9142     		.uleb128 0x2111
 6217 01f2 18       		.uleb128 0x18
 6218 01f3 00       		.byte	0
 6219 01f4 00       		.byte	0
 6220 01f5 28       		.uleb128 0x28
 6221 01f6 898201   		.uleb128 0x4109
 6222 01f9 01       		.byte	0x1
 6223 01fa 11       		.uleb128 0x11
 6224 01fb 01       		.uleb128 0x1
 6225 01fc 31       		.uleb128 0x31
 6226 01fd 13       		.uleb128 0x13
 6227 01fe 01       		.uleb128 0x1
ARM GAS  C:\Users\jlabe\AppData\Local\Temp\ccJbzXZ1.s 			page 142


 6228 01ff 13       		.uleb128 0x13
 6229 0200 00       		.byte	0
 6230 0201 00       		.byte	0
 6231 0202 29       		.uleb128 0x29
 6232 0203 34       		.uleb128 0x34
 6233 0204 00       		.byte	0
 6234 0205 03       		.uleb128 0x3
 6235 0206 08       		.uleb128 0x8
 6236 0207 3A       		.uleb128 0x3a
 6237 0208 0B       		.uleb128 0xb
 6238 0209 3B       		.uleb128 0x3b
 6239 020a 05       		.uleb128 0x5
 6240 020b 49       		.uleb128 0x49
 6241 020c 13       		.uleb128 0x13
 6242 020d 02       		.uleb128 0x2
 6243 020e 17       		.uleb128 0x17
 6244 020f 00       		.byte	0
 6245 0210 00       		.byte	0
 6246 0211 2A       		.uleb128 0x2a
 6247 0212 34       		.uleb128 0x34
 6248 0213 00       		.byte	0
 6249 0214 03       		.uleb128 0x3
 6250 0215 0E       		.uleb128 0xe
 6251 0216 3A       		.uleb128 0x3a
 6252 0217 0B       		.uleb128 0xb
 6253 0218 3B       		.uleb128 0x3b
 6254 0219 0B       		.uleb128 0xb
 6255 021a 49       		.uleb128 0x49
 6256 021b 13       		.uleb128 0x13
 6257 021c 02       		.uleb128 0x2
 6258 021d 18       		.uleb128 0x18
 6259 021e 00       		.byte	0
 6260 021f 00       		.byte	0
 6261 0220 2B       		.uleb128 0x2b
 6262 0221 1D       		.uleb128 0x1d
 6263 0222 01       		.byte	0x1
 6264 0223 31       		.uleb128 0x31
 6265 0224 13       		.uleb128 0x13
 6266 0225 11       		.uleb128 0x11
 6267 0226 01       		.uleb128 0x1
 6268 0227 12       		.uleb128 0x12
 6269 0228 06       		.uleb128 0x6
 6270 0229 58       		.uleb128 0x58
 6271 022a 0B       		.uleb128 0xb
 6272 022b 59       		.uleb128 0x59
 6273 022c 0B       		.uleb128 0xb
 6274 022d 01       		.uleb128 0x1
 6275 022e 13       		.uleb128 0x13
 6276 022f 00       		.byte	0
 6277 0230 00       		.byte	0
 6278 0231 2C       		.uleb128 0x2c
 6279 0232 05       		.uleb128 0x5
 6280 0233 00       		.byte	0
 6281 0234 31       		.uleb128 0x31
 6282 0235 13       		.uleb128 0x13
 6283 0236 02       		.uleb128 0x2
 6284 0237 17       		.uleb128 0x17
ARM GAS  C:\Users\jlabe\AppData\Local\Temp\ccJbzXZ1.s 			page 143


 6285 0238 00       		.byte	0
 6286 0239 00       		.byte	0
 6287 023a 2D       		.uleb128 0x2d
 6288 023b 1D       		.uleb128 0x1d
 6289 023c 01       		.byte	0x1
 6290 023d 31       		.uleb128 0x31
 6291 023e 13       		.uleb128 0x13
 6292 023f 11       		.uleb128 0x11
 6293 0240 01       		.uleb128 0x1
 6294 0241 12       		.uleb128 0x12
 6295 0242 06       		.uleb128 0x6
 6296 0243 58       		.uleb128 0x58
 6297 0244 0B       		.uleb128 0xb
 6298 0245 59       		.uleb128 0x59
 6299 0246 0B       		.uleb128 0xb
 6300 0247 00       		.byte	0
 6301 0248 00       		.byte	0
 6302 0249 2E       		.uleb128 0x2e
 6303 024a 2E       		.uleb128 0x2e
 6304 024b 01       		.byte	0x1
 6305 024c 3F       		.uleb128 0x3f
 6306 024d 19       		.uleb128 0x19
 6307 024e 03       		.uleb128 0x3
 6308 024f 0E       		.uleb128 0xe
 6309 0250 3A       		.uleb128 0x3a
 6310 0251 0B       		.uleb128 0xb
 6311 0252 3B       		.uleb128 0x3b
 6312 0253 0B       		.uleb128 0xb
 6313 0254 27       		.uleb128 0x27
 6314 0255 19       		.uleb128 0x19
 6315 0256 11       		.uleb128 0x11
 6316 0257 01       		.uleb128 0x1
 6317 0258 12       		.uleb128 0x12
 6318 0259 06       		.uleb128 0x6
 6319 025a 40       		.uleb128 0x40
 6320 025b 18       		.uleb128 0x18
 6321 025c 9742     		.uleb128 0x2117
 6322 025e 19       		.uleb128 0x19
 6323 025f 01       		.uleb128 0x1
 6324 0260 13       		.uleb128 0x13
 6325 0261 00       		.byte	0
 6326 0262 00       		.byte	0
 6327 0263 2F       		.uleb128 0x2f
 6328 0264 34       		.uleb128 0x34
 6329 0265 00       		.byte	0
 6330 0266 03       		.uleb128 0x3
 6331 0267 0E       		.uleb128 0xe
 6332 0268 3A       		.uleb128 0x3a
 6333 0269 0B       		.uleb128 0xb
 6334 026a 3B       		.uleb128 0x3b
 6335 026b 0B       		.uleb128 0xb
 6336 026c 49       		.uleb128 0x49
 6337 026d 13       		.uleb128 0x13
 6338 026e 02       		.uleb128 0x2
 6339 026f 17       		.uleb128 0x17
 6340 0270 00       		.byte	0
 6341 0271 00       		.byte	0
ARM GAS  C:\Users\jlabe\AppData\Local\Temp\ccJbzXZ1.s 			page 144


 6342 0272 30       		.uleb128 0x30
 6343 0273 2E       		.uleb128 0x2e
 6344 0274 01       		.byte	0x1
 6345 0275 3F       		.uleb128 0x3f
 6346 0276 19       		.uleb128 0x19
 6347 0277 03       		.uleb128 0x3
 6348 0278 0E       		.uleb128 0xe
 6349 0279 3A       		.uleb128 0x3a
 6350 027a 0B       		.uleb128 0xb
 6351 027b 3B       		.uleb128 0x3b
 6352 027c 0B       		.uleb128 0xb
 6353 027d 11       		.uleb128 0x11
 6354 027e 01       		.uleb128 0x1
 6355 027f 12       		.uleb128 0x12
 6356 0280 06       		.uleb128 0x6
 6357 0281 40       		.uleb128 0x40
 6358 0282 18       		.uleb128 0x18
 6359 0283 9742     		.uleb128 0x2117
 6360 0285 19       		.uleb128 0x19
 6361 0286 01       		.uleb128 0x1
 6362 0287 13       		.uleb128 0x13
 6363 0288 00       		.byte	0
 6364 0289 00       		.byte	0
 6365 028a 31       		.uleb128 0x31
 6366 028b 2E       		.uleb128 0x2e
 6367 028c 01       		.byte	0x1
 6368 028d 3F       		.uleb128 0x3f
 6369 028e 19       		.uleb128 0x19
 6370 028f 03       		.uleb128 0x3
 6371 0290 0E       		.uleb128 0xe
 6372 0291 3A       		.uleb128 0x3a
 6373 0292 0B       		.uleb128 0xb
 6374 0293 3B       		.uleb128 0x3b
 6375 0294 0B       		.uleb128 0xb
 6376 0295 27       		.uleb128 0x27
 6377 0296 19       		.uleb128 0x19
 6378 0297 8701     		.uleb128 0x87
 6379 0299 19       		.uleb128 0x19
 6380 029a 11       		.uleb128 0x11
 6381 029b 01       		.uleb128 0x1
 6382 029c 12       		.uleb128 0x12
 6383 029d 06       		.uleb128 0x6
 6384 029e 40       		.uleb128 0x40
 6385 029f 18       		.uleb128 0x18
 6386 02a0 9742     		.uleb128 0x2117
 6387 02a2 19       		.uleb128 0x19
 6388 02a3 01       		.uleb128 0x1
 6389 02a4 13       		.uleb128 0x13
 6390 02a5 00       		.byte	0
 6391 02a6 00       		.byte	0
 6392 02a7 32       		.uleb128 0x32
 6393 02a8 2E       		.uleb128 0x2e
 6394 02a9 01       		.byte	0x1
 6395 02aa 3F       		.uleb128 0x3f
 6396 02ab 19       		.uleb128 0x19
 6397 02ac 03       		.uleb128 0x3
 6398 02ad 0E       		.uleb128 0xe
ARM GAS  C:\Users\jlabe\AppData\Local\Temp\ccJbzXZ1.s 			page 145


 6399 02ae 3A       		.uleb128 0x3a
 6400 02af 0B       		.uleb128 0xb
 6401 02b0 3B       		.uleb128 0x3b
 6402 02b1 05       		.uleb128 0x5
 6403 02b2 27       		.uleb128 0x27
 6404 02b3 19       		.uleb128 0x19
 6405 02b4 11       		.uleb128 0x11
 6406 02b5 01       		.uleb128 0x1
 6407 02b6 12       		.uleb128 0x12
 6408 02b7 06       		.uleb128 0x6
 6409 02b8 40       		.uleb128 0x40
 6410 02b9 18       		.uleb128 0x18
 6411 02ba 9742     		.uleb128 0x2117
 6412 02bc 19       		.uleb128 0x19
 6413 02bd 01       		.uleb128 0x1
 6414 02be 13       		.uleb128 0x13
 6415 02bf 00       		.byte	0
 6416 02c0 00       		.byte	0
 6417 02c1 33       		.uleb128 0x33
 6418 02c2 898201   		.uleb128 0x4109
 6419 02c5 01       		.byte	0x1
 6420 02c6 11       		.uleb128 0x11
 6421 02c7 01       		.uleb128 0x1
 6422 02c8 00       		.byte	0
 6423 02c9 00       		.byte	0
 6424 02ca 34       		.uleb128 0x34
 6425 02cb 2E       		.uleb128 0x2e
 6426 02cc 01       		.byte	0x1
 6427 02cd 3F       		.uleb128 0x3f
 6428 02ce 19       		.uleb128 0x19
 6429 02cf 03       		.uleb128 0x3
 6430 02d0 0E       		.uleb128 0xe
 6431 02d1 3A       		.uleb128 0x3a
 6432 02d2 0B       		.uleb128 0xb
 6433 02d3 3B       		.uleb128 0x3b
 6434 02d4 05       		.uleb128 0x5
 6435 02d5 27       		.uleb128 0x27
 6436 02d6 19       		.uleb128 0x19
 6437 02d7 8701     		.uleb128 0x87
 6438 02d9 19       		.uleb128 0x19
 6439 02da 11       		.uleb128 0x11
 6440 02db 01       		.uleb128 0x1
 6441 02dc 12       		.uleb128 0x12
 6442 02dd 06       		.uleb128 0x6
 6443 02de 40       		.uleb128 0x40
 6444 02df 18       		.uleb128 0x18
 6445 02e0 9642     		.uleb128 0x2116
 6446 02e2 19       		.uleb128 0x19
 6447 02e3 01       		.uleb128 0x1
 6448 02e4 13       		.uleb128 0x13
 6449 02e5 00       		.byte	0
 6450 02e6 00       		.byte	0
 6451 02e7 35       		.uleb128 0x35
 6452 02e8 05       		.uleb128 0x5
 6453 02e9 00       		.byte	0
 6454 02ea 03       		.uleb128 0x3
 6455 02eb 08       		.uleb128 0x8
ARM GAS  C:\Users\jlabe\AppData\Local\Temp\ccJbzXZ1.s 			page 146


 6456 02ec 3A       		.uleb128 0x3a
 6457 02ed 0B       		.uleb128 0xb
 6458 02ee 3B       		.uleb128 0x3b
 6459 02ef 05       		.uleb128 0x5
 6460 02f0 49       		.uleb128 0x49
 6461 02f1 13       		.uleb128 0x13
 6462 02f2 02       		.uleb128 0x2
 6463 02f3 17       		.uleb128 0x17
 6464 02f4 00       		.byte	0
 6465 02f5 00       		.byte	0
 6466 02f6 36       		.uleb128 0x36
 6467 02f7 34       		.uleb128 0x34
 6468 02f8 00       		.byte	0
 6469 02f9 03       		.uleb128 0x3
 6470 02fa 08       		.uleb128 0x8
 6471 02fb 3A       		.uleb128 0x3a
 6472 02fc 0B       		.uleb128 0xb
 6473 02fd 3B       		.uleb128 0x3b
 6474 02fe 05       		.uleb128 0x5
 6475 02ff 49       		.uleb128 0x49
 6476 0300 13       		.uleb128 0x13
 6477 0301 02       		.uleb128 0x2
 6478 0302 18       		.uleb128 0x18
 6479 0303 00       		.byte	0
 6480 0304 00       		.byte	0
 6481 0305 37       		.uleb128 0x37
 6482 0306 34       		.uleb128 0x34
 6483 0307 00       		.byte	0
 6484 0308 03       		.uleb128 0x3
 6485 0309 0E       		.uleb128 0xe
 6486 030a 3A       		.uleb128 0x3a
 6487 030b 0B       		.uleb128 0xb
 6488 030c 3B       		.uleb128 0x3b
 6489 030d 05       		.uleb128 0x5
 6490 030e 49       		.uleb128 0x49
 6491 030f 13       		.uleb128 0x13
 6492 0310 02       		.uleb128 0x2
 6493 0311 17       		.uleb128 0x17
 6494 0312 00       		.byte	0
 6495 0313 00       		.byte	0
 6496 0314 38       		.uleb128 0x38
 6497 0315 898201   		.uleb128 0x4109
 6498 0318 00       		.byte	0
 6499 0319 11       		.uleb128 0x11
 6500 031a 01       		.uleb128 0x1
 6501 031b 31       		.uleb128 0x31
 6502 031c 13       		.uleb128 0x13
 6503 031d 00       		.byte	0
 6504 031e 00       		.byte	0
 6505 031f 39       		.uleb128 0x39
 6506 0320 34       		.uleb128 0x34
 6507 0321 00       		.byte	0
 6508 0322 03       		.uleb128 0x3
 6509 0323 0E       		.uleb128 0xe
 6510 0324 3A       		.uleb128 0x3a
 6511 0325 0B       		.uleb128 0xb
 6512 0326 3B       		.uleb128 0x3b
ARM GAS  C:\Users\jlabe\AppData\Local\Temp\ccJbzXZ1.s 			page 147


 6513 0327 05       		.uleb128 0x5
 6514 0328 49       		.uleb128 0x49
 6515 0329 13       		.uleb128 0x13
 6516 032a 3F       		.uleb128 0x3f
 6517 032b 19       		.uleb128 0x19
 6518 032c 3C       		.uleb128 0x3c
 6519 032d 19       		.uleb128 0x19
 6520 032e 00       		.byte	0
 6521 032f 00       		.byte	0
 6522 0330 3A       		.uleb128 0x3a
 6523 0331 34       		.uleb128 0x34
 6524 0332 00       		.byte	0
 6525 0333 03       		.uleb128 0x3
 6526 0334 0E       		.uleb128 0xe
 6527 0335 3A       		.uleb128 0x3a
 6528 0336 0B       		.uleb128 0xb
 6529 0337 3B       		.uleb128 0x3b
 6530 0338 0B       		.uleb128 0xb
 6531 0339 49       		.uleb128 0x49
 6532 033a 13       		.uleb128 0x13
 6533 033b 3F       		.uleb128 0x3f
 6534 033c 19       		.uleb128 0x19
 6535 033d 3C       		.uleb128 0x3c
 6536 033e 19       		.uleb128 0x19
 6537 033f 00       		.byte	0
 6538 0340 00       		.byte	0
 6539 0341 3B       		.uleb128 0x3b
 6540 0342 34       		.uleb128 0x34
 6541 0343 00       		.byte	0
 6542 0344 03       		.uleb128 0x3
 6543 0345 0E       		.uleb128 0xe
 6544 0346 3A       		.uleb128 0x3a
 6545 0347 0B       		.uleb128 0xb
 6546 0348 3B       		.uleb128 0x3b
 6547 0349 0B       		.uleb128 0xb
 6548 034a 49       		.uleb128 0x49
 6549 034b 13       		.uleb128 0x13
 6550 034c 3F       		.uleb128 0x3f
 6551 034d 19       		.uleb128 0x19
 6552 034e 02       		.uleb128 0x2
 6553 034f 18       		.uleb128 0x18
 6554 0350 00       		.byte	0
 6555 0351 00       		.byte	0
 6556 0352 3C       		.uleb128 0x3c
 6557 0353 2E       		.uleb128 0x2e
 6558 0354 00       		.byte	0
 6559 0355 3F       		.uleb128 0x3f
 6560 0356 19       		.uleb128 0x19
 6561 0357 3C       		.uleb128 0x3c
 6562 0358 19       		.uleb128 0x19
 6563 0359 6E       		.uleb128 0x6e
 6564 035a 0E       		.uleb128 0xe
 6565 035b 03       		.uleb128 0x3
 6566 035c 0E       		.uleb128 0xe
 6567 035d 3A       		.uleb128 0x3a
 6568 035e 0B       		.uleb128 0xb
 6569 035f 3B       		.uleb128 0x3b
ARM GAS  C:\Users\jlabe\AppData\Local\Temp\ccJbzXZ1.s 			page 148


 6570 0360 05       		.uleb128 0x5
 6571 0361 00       		.byte	0
 6572 0362 00       		.byte	0
 6573 0363 3D       		.uleb128 0x3d
 6574 0364 2E       		.uleb128 0x2e
 6575 0365 00       		.byte	0
 6576 0366 3F       		.uleb128 0x3f
 6577 0367 19       		.uleb128 0x19
 6578 0368 3C       		.uleb128 0x3c
 6579 0369 19       		.uleb128 0x19
 6580 036a 6E       		.uleb128 0x6e
 6581 036b 0E       		.uleb128 0xe
 6582 036c 03       		.uleb128 0x3
 6583 036d 0E       		.uleb128 0xe
 6584 036e 3A       		.uleb128 0x3a
 6585 036f 0B       		.uleb128 0xb
 6586 0370 3B       		.uleb128 0x3b
 6587 0371 0B       		.uleb128 0xb
 6588 0372 00       		.byte	0
 6589 0373 00       		.byte	0
 6590 0374 3E       		.uleb128 0x3e
 6591 0375 2E       		.uleb128 0x2e
 6592 0376 00       		.byte	0
 6593 0377 3F       		.uleb128 0x3f
 6594 0378 19       		.uleb128 0x19
 6595 0379 3C       		.uleb128 0x3c
 6596 037a 19       		.uleb128 0x19
 6597 037b 6E       		.uleb128 0x6e
 6598 037c 08       		.uleb128 0x8
 6599 037d 03       		.uleb128 0x3
 6600 037e 08       		.uleb128 0x8
 6601 037f 3A       		.uleb128 0x3a
 6602 0380 0B       		.uleb128 0xb
 6603 0381 3B       		.uleb128 0x3b
 6604 0382 0B       		.uleb128 0xb
 6605 0383 00       		.byte	0
 6606 0384 00       		.byte	0
 6607 0385 00       		.byte	0
 6608              		.section	.debug_loc,"",%progbits
 6609              	.Ldebug_loc0:
 6610              	.LLST0:
 6611 0000 00000000 		.4byte	.LVL0
 6612 0004 1A000000 		.4byte	.LVL4
 6613 0008 0100     		.2byte	0x1
 6614 000a 50       		.byte	0x50
 6615 000b 1A000000 		.4byte	.LVL4
 6616 000f 5C000000 		.4byte	.LFE703
 6617 0013 0400     		.2byte	0x4
 6618 0015 F3       		.byte	0xf3
 6619 0016 01       		.uleb128 0x1
 6620 0017 50       		.byte	0x50
 6621 0018 9F       		.byte	0x9f
 6622 0019 00000000 		.4byte	0
 6623 001d 00000000 		.4byte	0
 6624              	.LLST1:
 6625 0021 00000000 		.4byte	.LVL0
 6626 0025 18000000 		.4byte	.LVL3
ARM GAS  C:\Users\jlabe\AppData\Local\Temp\ccJbzXZ1.s 			page 149


 6627 0029 0100     		.2byte	0x1
 6628 002b 51       		.byte	0x51
 6629 002c 18000000 		.4byte	.LVL3
 6630 0030 5C000000 		.4byte	.LFE703
 6631 0034 0400     		.2byte	0x4
 6632 0036 F3       		.byte	0xf3
 6633 0037 01       		.uleb128 0x1
 6634 0038 51       		.byte	0x51
 6635 0039 9F       		.byte	0x9f
 6636 003a 00000000 		.4byte	0
 6637 003e 00000000 		.4byte	0
 6638              	.LLST2:
 6639 0042 00000000 		.4byte	.LVL0
 6640 0046 16000000 		.4byte	.LVL2
 6641 004a 0100     		.2byte	0x1
 6642 004c 52       		.byte	0x52
 6643 004d 16000000 		.4byte	.LVL2
 6644 0051 52000000 		.4byte	.LVL11
 6645 0055 0100     		.2byte	0x1
 6646 0057 56       		.byte	0x56
 6647 0058 52000000 		.4byte	.LVL11
 6648 005c 5C000000 		.4byte	.LFE703
 6649 0060 0400     		.2byte	0x4
 6650 0062 F3       		.byte	0xf3
 6651 0063 01       		.uleb128 0x1
 6652 0064 52       		.byte	0x52
 6653 0065 9F       		.byte	0x9f
 6654 0066 00000000 		.4byte	0
 6655 006a 00000000 		.4byte	0
 6656              	.LLST3:
 6657 006e 00000000 		.4byte	.LVL0
 6658 0072 14000000 		.4byte	.LVL1
 6659 0076 0100     		.2byte	0x1
 6660 0078 53       		.byte	0x53
 6661 0079 14000000 		.4byte	.LVL1
 6662 007d 5C000000 		.4byte	.LFE703
 6663 0081 0400     		.2byte	0x4
 6664 0083 F3       		.byte	0xf3
 6665 0084 01       		.uleb128 0x1
 6666 0085 53       		.byte	0x53
 6667 0086 9F       		.byte	0x9f
 6668 0087 00000000 		.4byte	0
 6669 008b 00000000 		.4byte	0
 6670              	.LLST4:
 6671 008f 2A000000 		.4byte	.LVL6
 6672 0093 2E000000 		.4byte	.LVL7
 6673 0097 0200     		.2byte	0x2
 6674 0099 30       		.byte	0x30
 6675 009a 9F       		.byte	0x9f
 6676 009b 2E000000 		.4byte	.LVL7
 6677 009f 52000000 		.4byte	.LVL11
 6678 00a3 0100     		.2byte	0x1
 6679 00a5 54       		.byte	0x54
 6680 00a6 00000000 		.4byte	0
 6681 00aa 00000000 		.4byte	0
 6682              	.LLST5:
 6683 00ae 00000000 		.4byte	.LVL12
ARM GAS  C:\Users\jlabe\AppData\Local\Temp\ccJbzXZ1.s 			page 150


 6684 00b2 1C000000 		.4byte	.LVL16
 6685 00b6 0100     		.2byte	0x1
 6686 00b8 50       		.byte	0x50
 6687 00b9 1C000000 		.4byte	.LVL16
 6688 00bd 84000000 		.4byte	.LFE704
 6689 00c1 0400     		.2byte	0x4
 6690 00c3 F3       		.byte	0xf3
 6691 00c4 01       		.uleb128 0x1
 6692 00c5 50       		.byte	0x50
 6693 00c6 9F       		.byte	0x9f
 6694 00c7 00000000 		.4byte	0
 6695 00cb 00000000 		.4byte	0
 6696              	.LLST6:
 6697 00cf 00000000 		.4byte	.LVL12
 6698 00d3 1A000000 		.4byte	.LVL15
 6699 00d7 0100     		.2byte	0x1
 6700 00d9 51       		.byte	0x51
 6701 00da 1A000000 		.4byte	.LVL15
 6702 00de 84000000 		.4byte	.LFE704
 6703 00e2 0400     		.2byte	0x4
 6704 00e4 F3       		.byte	0xf3
 6705 00e5 01       		.uleb128 0x1
 6706 00e6 51       		.byte	0x51
 6707 00e7 9F       		.byte	0x9f
 6708 00e8 00000000 		.4byte	0
 6709 00ec 00000000 		.4byte	0
 6710              	.LLST7:
 6711 00f0 00000000 		.4byte	.LVL12
 6712 00f4 18000000 		.4byte	.LVL14
 6713 00f8 0100     		.2byte	0x1
 6714 00fa 52       		.byte	0x52
 6715 00fb 18000000 		.4byte	.LVL14
 6716 00ff 7C000000 		.4byte	.LVL26
 6717 0103 0100     		.2byte	0x1
 6718 0105 56       		.byte	0x56
 6719 0106 7C000000 		.4byte	.LVL26
 6720 010a 84000000 		.4byte	.LFE704
 6721 010e 0400     		.2byte	0x4
 6722 0110 F3       		.byte	0xf3
 6723 0111 01       		.uleb128 0x1
 6724 0112 52       		.byte	0x52
 6725 0113 9F       		.byte	0x9f
 6726 0114 00000000 		.4byte	0
 6727 0118 00000000 		.4byte	0
 6728              	.LLST8:
 6729 011c 00000000 		.4byte	.LVL12
 6730 0120 16000000 		.4byte	.LVL13
 6731 0124 0100     		.2byte	0x1
 6732 0126 53       		.byte	0x53
 6733 0127 16000000 		.4byte	.LVL13
 6734 012b 84000000 		.4byte	.LFE704
 6735 012f 0400     		.2byte	0x4
 6736 0131 F3       		.byte	0xf3
 6737 0132 01       		.uleb128 0x1
 6738 0133 53       		.byte	0x53
 6739 0134 9F       		.byte	0x9f
 6740 0135 00000000 		.4byte	0
ARM GAS  C:\Users\jlabe\AppData\Local\Temp\ccJbzXZ1.s 			page 151


 6741 0139 00000000 		.4byte	0
 6742              	.LLST9:
 6743 013d 3A000000 		.4byte	.LVL19
 6744 0141 3E000000 		.4byte	.LVL20
 6745 0145 0200     		.2byte	0x2
 6746 0147 30       		.byte	0x30
 6747 0148 9F       		.byte	0x9f
 6748 0149 3E000000 		.4byte	.LVL20
 6749 014d 5A000000 		.4byte	.LVL23
 6750 0151 0100     		.2byte	0x1
 6751 0153 54       		.byte	0x54
 6752 0154 00000000 		.4byte	0
 6753 0158 00000000 		.4byte	0
 6754              	.LLST10:
 6755 015c 00000000 		.4byte	.LVL27
 6756 0160 14000000 		.4byte	.LVL29
 6757 0164 0100     		.2byte	0x1
 6758 0166 50       		.byte	0x50
 6759 0167 14000000 		.4byte	.LVL29
 6760 016b 60000000 		.4byte	.LFE693
 6761 016f 0400     		.2byte	0x4
 6762 0171 F3       		.byte	0xf3
 6763 0172 01       		.uleb128 0x1
 6764 0173 50       		.byte	0x50
 6765 0174 9F       		.byte	0x9f
 6766 0175 00000000 		.4byte	0
 6767 0179 00000000 		.4byte	0
 6768              	.LLST11:
 6769 017d 06000000 		.4byte	.LVL28
 6770 0181 18000000 		.4byte	.LVL30
 6771 0185 0300     		.2byte	0x3
 6772 0187 08       		.byte	0x8
 6773 0188 64       		.byte	0x64
 6774 0189 9F       		.byte	0x9f
 6775 018a 00000000 		.4byte	0
 6776 018e 00000000 		.4byte	0
 6777              	.LLST12:
 6778 0192 06000000 		.4byte	.LVL28
 6779 0196 18000000 		.4byte	.LVL30
 6780 019a 0200     		.2byte	0x2
 6781 019c 30       		.byte	0x30
 6782 019d 9F       		.byte	0x9f
 6783 019e 00000000 		.4byte	0
 6784 01a2 00000000 		.4byte	0
 6785              	.LLST13:
 6786 01a6 06000000 		.4byte	.LVL28
 6787 01aa 18000000 		.4byte	.LVL30
 6788 01ae 0300     		.2byte	0x3
 6789 01b0 08       		.byte	0x8
 6790 01b1 57       		.byte	0x57
 6791 01b2 9F       		.byte	0x9f
 6792 01b3 00000000 		.4byte	0
 6793 01b7 00000000 		.4byte	0
 6794              	.LLST14:
 6795 01bb 18000000 		.4byte	.LVL30
 6796 01bf 24000000 		.4byte	.LVL31
 6797 01c3 0300     		.2byte	0x3
ARM GAS  C:\Users\jlabe\AppData\Local\Temp\ccJbzXZ1.s 			page 152


 6798 01c5 08       		.byte	0x8
 6799 01c6 64       		.byte	0x64
 6800 01c7 9F       		.byte	0x9f
 6801 01c8 00000000 		.4byte	0
 6802 01cc 00000000 		.4byte	0
 6803              	.LLST15:
 6804 01d0 18000000 		.4byte	.LVL30
 6805 01d4 24000000 		.4byte	.LVL31
 6806 01d8 0100     		.2byte	0x1
 6807 01da 56       		.byte	0x56
 6808 01db 00000000 		.4byte	0
 6809 01df 00000000 		.4byte	0
 6810              	.LLST16:
 6811 01e3 24000000 		.4byte	.LVL31
 6812 01e7 32000000 		.4byte	.LVL32
 6813 01eb 0300     		.2byte	0x3
 6814 01ed 08       		.byte	0x8
 6815 01ee 64       		.byte	0x64
 6816 01ef 9F       		.byte	0x9f
 6817 01f0 00000000 		.4byte	0
 6818 01f4 00000000 		.4byte	0
 6819              	.LLST17:
 6820 01f8 24000000 		.4byte	.LVL31
 6821 01fc 32000000 		.4byte	.LVL32
 6822 0200 0200     		.2byte	0x2
 6823 0202 31       		.byte	0x31
 6824 0203 9F       		.byte	0x9f
 6825 0204 00000000 		.4byte	0
 6826 0208 00000000 		.4byte	0
 6827              	.LLST18:
 6828 020c 24000000 		.4byte	.LVL31
 6829 0210 32000000 		.4byte	.LVL32
 6830 0214 0300     		.2byte	0x3
 6831 0216 08       		.byte	0x8
 6832 0217 57       		.byte	0x57
 6833 0218 9F       		.byte	0x9f
 6834 0219 00000000 		.4byte	0
 6835 021d 00000000 		.4byte	0
 6836              	.LLST19:
 6837 0221 3A000000 		.4byte	.LVL33
 6838 0225 44000000 		.4byte	.LVL34
 6839 0229 0300     		.2byte	0x3
 6840 022b 08       		.byte	0x8
 6841 022c 64       		.byte	0x64
 6842 022d 9F       		.byte	0x9f
 6843 022e 00000000 		.4byte	0
 6844 0232 00000000 		.4byte	0
 6845              	.LLST20:
 6846 0236 3A000000 		.4byte	.LVL33
 6847 023a 44000000 		.4byte	.LVL34
 6848 023e 0300     		.2byte	0x3
 6849 0240 91       		.byte	0x91
 6850 0241 6F       		.sleb128 -17
 6851 0242 9F       		.byte	0x9f
 6852 0243 00000000 		.4byte	0
 6853 0247 00000000 		.4byte	0
 6854              	.LLST21:
ARM GAS  C:\Users\jlabe\AppData\Local\Temp\ccJbzXZ1.s 			page 153


 6855 024b 3A000000 		.4byte	.LVL33
 6856 024f 44000000 		.4byte	.LVL34
 6857 0253 0200     		.2byte	0x2
 6858 0255 30       		.byte	0x30
 6859 0256 9F       		.byte	0x9f
 6860 0257 00000000 		.4byte	0
 6861 025b 00000000 		.4byte	0
 6862              	.LLST22:
 6863 025f 44000000 		.4byte	.LVL34
 6864 0263 4E000000 		.4byte	.LVL35
 6865 0267 0300     		.2byte	0x3
 6866 0269 08       		.byte	0x8
 6867 026a 64       		.byte	0x64
 6868 026b 9F       		.byte	0x9f
 6869 026c 00000000 		.4byte	0
 6870 0270 00000000 		.4byte	0
 6871              	.LLST23:
 6872 0274 00000000 		.4byte	.LVL36
 6873 0278 16000000 		.4byte	.LVL39
 6874 027c 0100     		.2byte	0x1
 6875 027e 50       		.byte	0x50
 6876 027f 16000000 		.4byte	.LVL39
 6877 0283 48000000 		.4byte	.LFE694
 6878 0287 0400     		.2byte	0x4
 6879 0289 F3       		.byte	0xf3
 6880 028a 01       		.uleb128 0x1
 6881 028b 50       		.byte	0x50
 6882 028c 9F       		.byte	0x9f
 6883 028d 00000000 		.4byte	0
 6884 0291 00000000 		.4byte	0
 6885              	.LLST24:
 6886 0295 00000000 		.4byte	.LVL36
 6887 0299 14000000 		.4byte	.LVL38
 6888 029d 0100     		.2byte	0x1
 6889 029f 51       		.byte	0x51
 6890 02a0 14000000 		.4byte	.LVL38
 6891 02a4 48000000 		.4byte	.LFE694
 6892 02a8 0400     		.2byte	0x4
 6893 02aa F3       		.byte	0xf3
 6894 02ab 01       		.uleb128 0x1
 6895 02ac 51       		.byte	0x51
 6896 02ad 9F       		.byte	0x9f
 6897 02ae 00000000 		.4byte	0
 6898 02b2 00000000 		.4byte	0
 6899              	.LLST25:
 6900 02b6 08000000 		.4byte	.LVL37
 6901 02ba 1A000000 		.4byte	.LVL40
 6902 02be 0300     		.2byte	0x3
 6903 02c0 08       		.byte	0x8
 6904 02c1 64       		.byte	0x64
 6905 02c2 9F       		.byte	0x9f
 6906 02c3 00000000 		.4byte	0
 6907 02c7 00000000 		.4byte	0
 6908              	.LLST26:
 6909 02cb 08000000 		.4byte	.LVL37
 6910 02cf 1A000000 		.4byte	.LVL40
 6911 02d3 0200     		.2byte	0x2
ARM GAS  C:\Users\jlabe\AppData\Local\Temp\ccJbzXZ1.s 			page 154


 6912 02d5 30       		.byte	0x30
 6913 02d6 9F       		.byte	0x9f
 6914 02d7 00000000 		.4byte	0
 6915 02db 00000000 		.4byte	0
 6916              	.LLST27:
 6917 02df 08000000 		.4byte	.LVL37
 6918 02e3 1A000000 		.4byte	.LVL40
 6919 02e7 0300     		.2byte	0x3
 6920 02e9 08       		.byte	0x8
 6921 02ea 57       		.byte	0x57
 6922 02eb 9F       		.byte	0x9f
 6923 02ec 00000000 		.4byte	0
 6924 02f0 00000000 		.4byte	0
 6925              	.LLST28:
 6926 02f4 1A000000 		.4byte	.LVL40
 6927 02f8 26000000 		.4byte	.LVL41
 6928 02fc 0300     		.2byte	0x3
 6929 02fe 08       		.byte	0x8
 6930 02ff 64       		.byte	0x64
 6931 0300 9F       		.byte	0x9f
 6932 0301 00000000 		.4byte	0
 6933 0305 00000000 		.4byte	0
 6934              	.LLST29:
 6935 0309 1A000000 		.4byte	.LVL40
 6936 030d 26000000 		.4byte	.LVL41
 6937 0311 0100     		.2byte	0x1
 6938 0313 57       		.byte	0x57
 6939 0314 00000000 		.4byte	0
 6940 0318 00000000 		.4byte	0
 6941              	.LLST30:
 6942 031c 26000000 		.4byte	.LVL41
 6943 0320 32000000 		.4byte	.LVL42
 6944 0324 0300     		.2byte	0x3
 6945 0326 08       		.byte	0x8
 6946 0327 64       		.byte	0x64
 6947 0328 9F       		.byte	0x9f
 6948 0329 00000000 		.4byte	0
 6949 032d 00000000 		.4byte	0
 6950              	.LLST31:
 6951 0331 26000000 		.4byte	.LVL41
 6952 0335 32000000 		.4byte	.LVL42
 6953 0339 0100     		.2byte	0x1
 6954 033b 56       		.byte	0x56
 6955 033c 00000000 		.4byte	0
 6956 0340 00000000 		.4byte	0
 6957              	.LLST32:
 6958 0344 32000000 		.4byte	.LVL42
 6959 0348 3C000000 		.4byte	.LVL43
 6960 034c 0300     		.2byte	0x3
 6961 034e 08       		.byte	0x8
 6962 034f 64       		.byte	0x64
 6963 0350 9F       		.byte	0x9f
 6964 0351 00000000 		.4byte	0
 6965 0355 00000000 		.4byte	0
 6966              	.LLST33:
 6967 0359 00000000 		.4byte	.LVL44
 6968 035d 1A000000 		.4byte	.LVL48
ARM GAS  C:\Users\jlabe\AppData\Local\Temp\ccJbzXZ1.s 			page 155


 6969 0361 0100     		.2byte	0x1
 6970 0363 50       		.byte	0x50
 6971 0364 1A000000 		.4byte	.LVL48
 6972 0368 80000000 		.4byte	.LFE695
 6973 036c 0400     		.2byte	0x4
 6974 036e F3       		.byte	0xf3
 6975 036f 01       		.uleb128 0x1
 6976 0370 50       		.byte	0x50
 6977 0371 9F       		.byte	0x9f
 6978 0372 00000000 		.4byte	0
 6979 0376 00000000 		.4byte	0
 6980              	.LLST34:
 6981 037a 00000000 		.4byte	.LVL44
 6982 037e 18000000 		.4byte	.LVL47
 6983 0382 0100     		.2byte	0x1
 6984 0384 51       		.byte	0x51
 6985 0385 18000000 		.4byte	.LVL47
 6986 0389 78000000 		.4byte	.LVL61
 6987 038d 0100     		.2byte	0x1
 6988 038f 55       		.byte	0x55
 6989 0390 78000000 		.4byte	.LVL61
 6990 0394 80000000 		.4byte	.LFE695
 6991 0398 0400     		.2byte	0x4
 6992 039a F3       		.byte	0xf3
 6993 039b 01       		.uleb128 0x1
 6994 039c 51       		.byte	0x51
 6995 039d 9F       		.byte	0x9f
 6996 039e 00000000 		.4byte	0
 6997 03a2 00000000 		.4byte	0
 6998              	.LLST35:
 6999 03a6 00000000 		.4byte	.LVL44
 7000 03aa 16000000 		.4byte	.LVL46
 7001 03ae 0100     		.2byte	0x1
 7002 03b0 52       		.byte	0x52
 7003 03b1 16000000 		.4byte	.LVL46
 7004 03b5 80000000 		.4byte	.LFE695
 7005 03b9 0400     		.2byte	0x4
 7006 03bb F3       		.byte	0xf3
 7007 03bc 01       		.uleb128 0x1
 7008 03bd 52       		.byte	0x52
 7009 03be 9F       		.byte	0x9f
 7010 03bf 00000000 		.4byte	0
 7011 03c3 00000000 		.4byte	0
 7012              	.LLST36:
 7013 03c7 38000000 		.4byte	.LVL51
 7014 03cb 3C000000 		.4byte	.LVL52
 7015 03cf 0200     		.2byte	0x2
 7016 03d1 30       		.byte	0x30
 7017 03d2 9F       		.byte	0x9f
 7018 03d3 3C000000 		.4byte	.LVL52
 7019 03d7 4E000000 		.4byte	.LVL55
 7020 03db 0100     		.2byte	0x1
 7021 03dd 54       		.byte	0x54
 7022 03de 50000000 		.4byte	.LVL56
 7023 03e2 78000000 		.4byte	.LVL61
 7024 03e6 0100     		.2byte	0x1
 7025 03e8 54       		.byte	0x54
ARM GAS  C:\Users\jlabe\AppData\Local\Temp\ccJbzXZ1.s 			page 156


 7026 03e9 00000000 		.4byte	0
 7027 03ed 00000000 		.4byte	0
 7028              	.LLST37:
 7029 03f1 0C000000 		.4byte	.LVL45
 7030 03f5 1E000000 		.4byte	.LVL49
 7031 03f9 0300     		.2byte	0x3
 7032 03fb 08       		.byte	0x8
 7033 03fc 64       		.byte	0x64
 7034 03fd 9F       		.byte	0x9f
 7035 03fe 00000000 		.4byte	0
 7036 0402 00000000 		.4byte	0
 7037              	.LLST38:
 7038 0406 0C000000 		.4byte	.LVL45
 7039 040a 1E000000 		.4byte	.LVL49
 7040 040e 0200     		.2byte	0x2
 7041 0410 30       		.byte	0x30
 7042 0411 9F       		.byte	0x9f
 7043 0412 00000000 		.4byte	0
 7044 0416 00000000 		.4byte	0
 7045              	.LLST39:
 7046 041a 0C000000 		.4byte	.LVL45
 7047 041e 1E000000 		.4byte	.LVL49
 7048 0422 0300     		.2byte	0x3
 7049 0424 08       		.byte	0x8
 7050 0425 57       		.byte	0x57
 7051 0426 9F       		.byte	0x9f
 7052 0427 00000000 		.4byte	0
 7053 042b 00000000 		.4byte	0
 7054              	.LLST40:
 7055 042f 1E000000 		.4byte	.LVL49
 7056 0433 2A000000 		.4byte	.LVL50
 7057 0437 0300     		.2byte	0x3
 7058 0439 08       		.byte	0x8
 7059 043a 64       		.byte	0x64
 7060 043b 9F       		.byte	0x9f
 7061 043c 00000000 		.4byte	0
 7062 0440 00000000 		.4byte	0
 7063              	.LLST41:
 7064 0444 1E000000 		.4byte	.LVL49
 7065 0448 2A000000 		.4byte	.LVL50
 7066 044c 0100     		.2byte	0x1
 7067 044e 58       		.byte	0x58
 7068 044f 00000000 		.4byte	0
 7069 0453 00000000 		.4byte	0
 7070              	.LLST42:
 7071 0457 2A000000 		.4byte	.LVL50
 7072 045b 38000000 		.4byte	.LVL51
 7073 045f 0300     		.2byte	0x3
 7074 0461 08       		.byte	0x8
 7075 0462 64       		.byte	0x64
 7076 0463 9F       		.byte	0x9f
 7077 0464 00000000 		.4byte	0
 7078 0468 00000000 		.4byte	0
 7079              	.LLST43:
 7080 046c 2A000000 		.4byte	.LVL50
 7081 0470 38000000 		.4byte	.LVL51
 7082 0474 0200     		.2byte	0x2
ARM GAS  C:\Users\jlabe\AppData\Local\Temp\ccJbzXZ1.s 			page 157


 7083 0476 31       		.byte	0x31
 7084 0477 9F       		.byte	0x9f
 7085 0478 00000000 		.4byte	0
 7086 047c 00000000 		.4byte	0
 7087              	.LLST44:
 7088 0480 2A000000 		.4byte	.LVL50
 7089 0484 38000000 		.4byte	.LVL51
 7090 0488 0300     		.2byte	0x3
 7091 048a 08       		.byte	0x8
 7092 048b 57       		.byte	0x57
 7093 048c 9F       		.byte	0x9f
 7094 048d 00000000 		.4byte	0
 7095 0491 00000000 		.4byte	0
 7096              	.LLST45:
 7097 0495 3C000000 		.4byte	.LVL52
 7098 0499 4C000000 		.4byte	.LVL54
 7099 049d 0300     		.2byte	0x3
 7100 049f 08       		.byte	0x8
 7101 04a0 64       		.byte	0x64
 7102 04a1 9F       		.byte	0x9f
 7103 04a2 00000000 		.4byte	0
 7104 04a6 00000000 		.4byte	0
 7105              	.LLST46:
 7106 04aa 3C000000 		.4byte	.LVL52
 7107 04ae 44000000 		.4byte	.LVL53
 7108 04b2 0600     		.2byte	0x6
 7109 04b4 75       		.byte	0x75
 7110 04b5 00       		.sleb128 0
 7111 04b6 74       		.byte	0x74
 7112 04b7 00       		.sleb128 0
 7113 04b8 22       		.byte	0x22
 7114 04b9 9F       		.byte	0x9f
 7115 04ba 44000000 		.4byte	.LVL53
 7116 04be 4B000000 		.4byte	.LVL54-1
 7117 04c2 0100     		.2byte	0x1
 7118 04c4 52       		.byte	0x52
 7119 04c5 4B000000 		.4byte	.LVL54-1
 7120 04c9 4C000000 		.4byte	.LVL54
 7121 04cd 0600     		.2byte	0x6
 7122 04cf 75       		.byte	0x75
 7123 04d0 00       		.sleb128 0
 7124 04d1 74       		.byte	0x74
 7125 04d2 00       		.sleb128 0
 7126 04d3 22       		.byte	0x22
 7127 04d4 9F       		.byte	0x9f
 7128 04d5 00000000 		.4byte	0
 7129 04d9 00000000 		.4byte	0
 7130              	.LLST47:
 7131 04dd 3C000000 		.4byte	.LVL52
 7132 04e1 4C000000 		.4byte	.LVL54
 7133 04e5 0200     		.2byte	0x2
 7134 04e7 30       		.byte	0x30
 7135 04e8 9F       		.byte	0x9f
 7136 04e9 00000000 		.4byte	0
 7137 04ed 00000000 		.4byte	0
 7138              	.LLST48:
 7139 04f1 56000000 		.4byte	.LVL57
ARM GAS  C:\Users\jlabe\AppData\Local\Temp\ccJbzXZ1.s 			page 158


 7140 04f5 68000000 		.4byte	.LVL59
 7141 04f9 0300     		.2byte	0x3
 7142 04fb 08       		.byte	0x8
 7143 04fc 64       		.byte	0x64
 7144 04fd 9F       		.byte	0x9f
 7145 04fe 00000000 		.4byte	0
 7146 0502 00000000 		.4byte	0
 7147              	.LLST49:
 7148 0506 56000000 		.4byte	.LVL57
 7149 050a 60000000 		.4byte	.LVL58
 7150 050e 0600     		.2byte	0x6
 7151 0510 75       		.byte	0x75
 7152 0511 00       		.sleb128 0
 7153 0512 74       		.byte	0x74
 7154 0513 00       		.sleb128 0
 7155 0514 22       		.byte	0x22
 7156 0515 9F       		.byte	0x9f
 7157 0516 60000000 		.4byte	.LVL58
 7158 051a 67000000 		.4byte	.LVL59-1
 7159 051e 0100     		.2byte	0x1
 7160 0520 52       		.byte	0x52
 7161 0521 67000000 		.4byte	.LVL59-1
 7162 0525 68000000 		.4byte	.LVL59
 7163 0529 0600     		.2byte	0x6
 7164 052b 75       		.byte	0x75
 7165 052c 00       		.sleb128 0
 7166 052d 74       		.byte	0x74
 7167 052e 00       		.sleb128 0
 7168 052f 22       		.byte	0x22
 7169 0530 9F       		.byte	0x9f
 7170 0531 00000000 		.4byte	0
 7171 0535 00000000 		.4byte	0
 7172              	.LLST50:
 7173 0539 56000000 		.4byte	.LVL57
 7174 053d 68000000 		.4byte	.LVL59
 7175 0541 0200     		.2byte	0x2
 7176 0543 31       		.byte	0x31
 7177 0544 9F       		.byte	0x9f
 7178 0545 00000000 		.4byte	0
 7179 0549 00000000 		.4byte	0
 7180              	.LLST51:
 7181 054d 68000000 		.4byte	.LVL59
 7182 0551 72000000 		.4byte	.LVL60
 7183 0555 0300     		.2byte	0x3
 7184 0557 08       		.byte	0x8
 7185 0558 64       		.byte	0x64
 7186 0559 9F       		.byte	0x9f
 7187 055a 00000000 		.4byte	0
 7188 055e 00000000 		.4byte	0
 7189              	.LLST52:
 7190 0562 00000000 		.4byte	.LVL62
 7191 0566 0A000000 		.4byte	.LVL63
 7192 056a 0100     		.2byte	0x1
 7193 056c 50       		.byte	0x50
 7194 056d 0A000000 		.4byte	.LVL63
 7195 0571 6A000000 		.4byte	.LFE696
 7196 0575 0100     		.2byte	0x1
ARM GAS  C:\Users\jlabe\AppData\Local\Temp\ccJbzXZ1.s 			page 159


 7197 0577 56       		.byte	0x56
 7198 0578 00000000 		.4byte	0
 7199 057c 00000000 		.4byte	0
 7200              	.LLST53:
 7201 0580 00000000 		.4byte	.LVL62
 7202 0584 0D000000 		.4byte	.LVL64-1
 7203 0588 0100     		.2byte	0x1
 7204 058a 51       		.byte	0x51
 7205 058b 0D000000 		.4byte	.LVL64-1
 7206 058f 6A000000 		.4byte	.LFE696
 7207 0593 0100     		.2byte	0x1
 7208 0595 55       		.byte	0x55
 7209 0596 00000000 		.4byte	0
 7210 059a 00000000 		.4byte	0
 7211              	.LLST54:
 7212 059e 26000000 		.4byte	.LVL66
 7213 05a2 2E000000 		.4byte	.LVL67
 7214 05a6 0200     		.2byte	0x2
 7215 05a8 30       		.byte	0x30
 7216 05a9 9F       		.byte	0x9f
 7217 05aa 2E000000 		.4byte	.LVL67
 7218 05ae 3C000000 		.4byte	.LVL68
 7219 05b2 0500     		.2byte	0x5
 7220 05b4 72       		.byte	0x72
 7221 05b5 00       		.sleb128 0
 7222 05b6 38       		.byte	0x38
 7223 05b7 24       		.byte	0x24
 7224 05b8 9F       		.byte	0x9f
 7225 05b9 3C000000 		.4byte	.LVL68
 7226 05bd 42000000 		.4byte	.LVL69
 7227 05c1 0100     		.2byte	0x1
 7228 05c3 52       		.byte	0x52
 7229 05c4 42000000 		.4byte	.LVL69
 7230 05c8 4A000000 		.4byte	.LVL70
 7231 05cc 0200     		.2byte	0x2
 7232 05ce 30       		.byte	0x30
 7233 05cf 9F       		.byte	0x9f
 7234 05d0 4A000000 		.4byte	.LVL70
 7235 05d4 58000000 		.4byte	.LVL71
 7236 05d8 0500     		.2byte	0x5
 7237 05da 72       		.byte	0x72
 7238 05db 00       		.sleb128 0
 7239 05dc 38       		.byte	0x38
 7240 05dd 24       		.byte	0x24
 7241 05de 9F       		.byte	0x9f
 7242 05df 58000000 		.4byte	.LVL71
 7243 05e3 60000000 		.4byte	.LVL72
 7244 05e7 0100     		.2byte	0x1
 7245 05e9 52       		.byte	0x52
 7246 05ea 00000000 		.4byte	0
 7247 05ee 00000000 		.4byte	0
 7248              	.LLST55:
 7249 05f2 0E000000 		.4byte	.LVL64
 7250 05f6 12000000 		.4byte	.LVL65
 7251 05fa 0200     		.2byte	0x2
 7252 05fc 30       		.byte	0x30
 7253 05fd 9F       		.byte	0x9f
ARM GAS  C:\Users\jlabe\AppData\Local\Temp\ccJbzXZ1.s 			page 160


 7254 05fe 12000000 		.4byte	.LVL65
 7255 0602 6A000000 		.4byte	.LFE696
 7256 0606 0100     		.2byte	0x1
 7257 0608 54       		.byte	0x54
 7258 0609 00000000 		.4byte	0
 7259 060d 00000000 		.4byte	0
 7260              	.LLST56:
 7261 0611 00000000 		.4byte	.LVL73
 7262 0615 14000000 		.4byte	.LVL75
 7263 0619 0100     		.2byte	0x1
 7264 061b 50       		.byte	0x50
 7265 061c 14000000 		.4byte	.LVL75
 7266 0620 5C000000 		.4byte	.LFE697
 7267 0624 0100     		.2byte	0x1
 7268 0626 54       		.byte	0x54
 7269 0627 00000000 		.4byte	0
 7270 062b 00000000 		.4byte	0
 7271              	.LLST57:
 7272 062f 00000000 		.4byte	.LVL73
 7273 0633 12000000 		.4byte	.LVL74
 7274 0637 0100     		.2byte	0x1
 7275 0639 51       		.byte	0x51
 7276 063a 12000000 		.4byte	.LVL74
 7277 063e 5C000000 		.4byte	.LFE697
 7278 0642 0100     		.2byte	0x1
 7279 0644 55       		.byte	0x55
 7280 0645 00000000 		.4byte	0
 7281 0649 00000000 		.4byte	0
 7282              	.LLST58:
 7283 064d 1C000000 		.4byte	.LVL77
 7284 0651 26000000 		.4byte	.LVL78
 7285 0655 0500     		.2byte	0x5
 7286 0657 72       		.byte	0x72
 7287 0658 00       		.sleb128 0
 7288 0659 40       		.byte	0x40
 7289 065a 24       		.byte	0x24
 7290 065b 9F       		.byte	0x9f
 7291 065c 26000000 		.4byte	.LVL78
 7292 0660 2E000000 		.4byte	.LVL79
 7293 0664 0500     		.2byte	0x5
 7294 0666 72       		.byte	0x72
 7295 0667 00       		.sleb128 0
 7296 0668 38       		.byte	0x38
 7297 0669 24       		.byte	0x24
 7298 066a 9F       		.byte	0x9f
 7299 066b 2E000000 		.4byte	.LVL79
 7300 066f 36000000 		.4byte	.LVL80
 7301 0673 0100     		.2byte	0x1
 7302 0675 52       		.byte	0x52
 7303 0676 36000000 		.4byte	.LVL80
 7304 067a 40000000 		.4byte	.LVL81
 7305 067e 0500     		.2byte	0x5
 7306 0680 72       		.byte	0x72
 7307 0681 00       		.sleb128 0
 7308 0682 40       		.byte	0x40
 7309 0683 24       		.byte	0x24
 7310 0684 9F       		.byte	0x9f
ARM GAS  C:\Users\jlabe\AppData\Local\Temp\ccJbzXZ1.s 			page 161


 7311 0685 40000000 		.4byte	.LVL81
 7312 0689 48000000 		.4byte	.LVL82
 7313 068d 0500     		.2byte	0x5
 7314 068f 72       		.byte	0x72
 7315 0690 00       		.sleb128 0
 7316 0691 38       		.byte	0x38
 7317 0692 24       		.byte	0x24
 7318 0693 9F       		.byte	0x9f
 7319 0694 48000000 		.4byte	.LVL82
 7320 0698 5C000000 		.4byte	.LFE697
 7321 069c 0100     		.2byte	0x1
 7322 069e 52       		.byte	0x52
 7323 069f 00000000 		.4byte	0
 7324 06a3 00000000 		.4byte	0
 7325              	.LLST59:
 7326 06a7 00000000 		.4byte	.LVL96
 7327 06ab 06000000 		.4byte	.LVL97
 7328 06af 0100     		.2byte	0x1
 7329 06b1 50       		.byte	0x50
 7330 06b2 06000000 		.4byte	.LVL97
 7331 06b6 0C000000 		.4byte	.LFE700
 7332 06ba 0400     		.2byte	0x4
 7333 06bc F3       		.byte	0xf3
 7334 06bd 01       		.uleb128 0x1
 7335 06be 50       		.byte	0x50
 7336 06bf 9F       		.byte	0x9f
 7337 06c0 00000000 		.4byte	0
 7338 06c4 00000000 		.4byte	0
 7339              	.LLST60:
 7340 06c8 00000000 		.4byte	.LVL99
 7341 06cc 08000000 		.4byte	.LVL100
 7342 06d0 0100     		.2byte	0x1
 7343 06d2 50       		.byte	0x50
 7344 06d3 08000000 		.4byte	.LVL100
 7345 06d7 0B000000 		.4byte	.LVL101-1
 7346 06db 0100     		.2byte	0x1
 7347 06dd 51       		.byte	0x51
 7348 06de 0B000000 		.4byte	.LVL101-1
 7349 06e2 0E000000 		.4byte	.LFE701
 7350 06e6 0400     		.2byte	0x4
 7351 06e8 F3       		.byte	0xf3
 7352 06e9 01       		.uleb128 0x1
 7353 06ea 50       		.byte	0x50
 7354 06eb 9F       		.byte	0x9f
 7355 06ec 00000000 		.4byte	0
 7356 06f0 00000000 		.4byte	0
 7357              	.LLST61:
 7358 06f4 00000000 		.4byte	.LVL102
 7359 06f8 0A000000 		.4byte	.LVL104
 7360 06fc 0100     		.2byte	0x1
 7361 06fe 50       		.byte	0x50
 7362 06ff 0A000000 		.4byte	.LVL104
 7363 0703 50000000 		.4byte	.LFE702
 7364 0707 0400     		.2byte	0x4
 7365 0709 F3       		.byte	0xf3
 7366 070a 01       		.uleb128 0x1
 7367 070b 50       		.byte	0x50
ARM GAS  C:\Users\jlabe\AppData\Local\Temp\ccJbzXZ1.s 			page 162


 7368 070c 9F       		.byte	0x9f
 7369 070d 00000000 		.4byte	0
 7370 0711 00000000 		.4byte	0
 7371              	.LLST62:
 7372 0715 08000000 		.4byte	.LVL103
 7373 0719 0A000000 		.4byte	.LVL104
 7374 071d 0200     		.2byte	0x2
 7375 071f 30       		.byte	0x30
 7376 0720 9F       		.byte	0x9f
 7377 0721 0A000000 		.4byte	.LVL104
 7378 0725 12000000 		.4byte	.LVL105
 7379 0729 0100     		.2byte	0x1
 7380 072b 54       		.byte	0x54
 7381 072c 14000000 		.4byte	.LVL106
 7382 0730 50000000 		.4byte	.LFE702
 7383 0734 0100     		.2byte	0x1
 7384 0736 54       		.byte	0x54
 7385 0737 00000000 		.4byte	0
 7386 073b 00000000 		.4byte	0
 7387              	.LLST63:
 7388 073f 14000000 		.4byte	.LVL106
 7389 0743 18000000 		.4byte	.LVL107
 7390 0747 0200     		.2byte	0x2
 7391 0749 37       		.byte	0x37
 7392 074a 9F       		.byte	0x9f
 7393 074b 00000000 		.4byte	0
 7394 074f 00000000 		.4byte	0
 7395              	.LLST64:
 7396 0753 14000000 		.4byte	.LVL106
 7397 0757 18000000 		.4byte	.LVL107
 7398 075b 0600     		.2byte	0x6
 7399 075d 0C       		.byte	0xc
 7400 075e 80063240 		.4byte	0x40320680
 7401 0762 9F       		.byte	0x9f
 7402 0763 00000000 		.4byte	0
 7403 0767 00000000 		.4byte	0
 7404              	.LLST65:
 7405 076b 00000000 		.4byte	.LVL115
 7406 076f 07000000 		.4byte	.LVL116-1
 7407 0773 0100     		.2byte	0x1
 7408 0775 50       		.byte	0x50
 7409 0776 07000000 		.4byte	.LVL116-1
 7410 077a 98000000 		.4byte	.LFE706
 7411 077e 0400     		.2byte	0x4
 7412 0780 F3       		.byte	0xf3
 7413 0781 01       		.uleb128 0x1
 7414 0782 50       		.byte	0x50
 7415 0783 9F       		.byte	0x9f
 7416 0784 00000000 		.4byte	0
 7417 0788 00000000 		.4byte	0
 7418              	.LLST66:
 7419 078c 7A000000 		.4byte	.LVL127
 7420 0790 80000000 		.4byte	.LVL128
 7421 0794 0600     		.2byte	0x6
 7422 0796 50       		.byte	0x50
 7423 0797 93       		.byte	0x93
 7424 0798 04       		.uleb128 0x4
ARM GAS  C:\Users\jlabe\AppData\Local\Temp\ccJbzXZ1.s 			page 163


 7425 0799 51       		.byte	0x51
 7426 079a 93       		.byte	0x93
 7427 079b 04       		.uleb128 0x4
 7428 079c 00000000 		.4byte	0
 7429 07a0 00000000 		.4byte	0
 7430              		.section	.debug_aranges,"",%progbits
 7431 0000 84000000 		.4byte	0x84
 7432 0004 0200     		.2byte	0x2
 7433 0006 00000000 		.4byte	.Ldebug_info0
 7434 000a 04       		.byte	0x4
 7435 000b 00       		.byte	0
 7436 000c 0000     		.2byte	0
 7437 000e 0000     		.2byte	0
 7438 0010 00000000 		.4byte	.LFB703
 7439 0014 5C000000 		.4byte	.LFE703-.LFB703
 7440 0018 00000000 		.4byte	.LFB704
 7441 001c 84000000 		.4byte	.LFE704-.LFB704
 7442 0020 00000000 		.4byte	.LFB693
 7443 0024 60000000 		.4byte	.LFE693-.LFB693
 7444 0028 00000000 		.4byte	.LFB694
 7445 002c 48000000 		.4byte	.LFE694-.LFB694
 7446 0030 00000000 		.4byte	.LFB695
 7447 0034 80000000 		.4byte	.LFE695-.LFB695
 7448 0038 00000000 		.4byte	.LFB696
 7449 003c 6A000000 		.4byte	.LFE696-.LFB696
 7450 0040 00000000 		.4byte	.LFB697
 7451 0044 5C000000 		.4byte	.LFE697-.LFB697
 7452 0048 00000000 		.4byte	.LFB698
 7453 004c 64000000 		.4byte	.LFE698-.LFB698
 7454 0050 00000000 		.4byte	.LFB699
 7455 0054 0C000000 		.4byte	.LFE699-.LFB699
 7456 0058 00000000 		.4byte	.LFB700
 7457 005c 0C000000 		.4byte	.LFE700-.LFB700
 7458 0060 00000000 		.4byte	.LFB701
 7459 0064 0E000000 		.4byte	.LFE701-.LFB701
 7460 0068 00000000 		.4byte	.LFB702
 7461 006c 50000000 		.4byte	.LFE702-.LFB702
 7462 0070 00000000 		.4byte	.LFB705
 7463 0074 4C000000 		.4byte	.LFE705-.LFB705
 7464 0078 00000000 		.4byte	.LFB706
 7465 007c 98000000 		.4byte	.LFE706-.LFB706
 7466 0080 00000000 		.4byte	0
 7467 0084 00000000 		.4byte	0
 7468              		.section	.debug_ranges,"",%progbits
 7469              	.Ldebug_ranges0:
 7470 0000 00000000 		.4byte	.LFB703
 7471 0004 5C000000 		.4byte	.LFE703
 7472 0008 00000000 		.4byte	.LFB704
 7473 000c 84000000 		.4byte	.LFE704
 7474 0010 00000000 		.4byte	.LFB693
 7475 0014 60000000 		.4byte	.LFE693
 7476 0018 00000000 		.4byte	.LFB694
 7477 001c 48000000 		.4byte	.LFE694
 7478 0020 00000000 		.4byte	.LFB695
 7479 0024 80000000 		.4byte	.LFE695
 7480 0028 00000000 		.4byte	.LFB696
 7481 002c 6A000000 		.4byte	.LFE696
ARM GAS  C:\Users\jlabe\AppData\Local\Temp\ccJbzXZ1.s 			page 164


 7482 0030 00000000 		.4byte	.LFB697
 7483 0034 5C000000 		.4byte	.LFE697
 7484 0038 00000000 		.4byte	.LFB698
 7485 003c 64000000 		.4byte	.LFE698
 7486 0040 00000000 		.4byte	.LFB699
 7487 0044 0C000000 		.4byte	.LFE699
 7488 0048 00000000 		.4byte	.LFB700
 7489 004c 0C000000 		.4byte	.LFE700
 7490 0050 00000000 		.4byte	.LFB701
 7491 0054 0E000000 		.4byte	.LFE701
 7492 0058 00000000 		.4byte	.LFB702
 7493 005c 50000000 		.4byte	.LFE702
 7494 0060 00000000 		.4byte	.LFB705
 7495 0064 4C000000 		.4byte	.LFE705
 7496 0068 00000000 		.4byte	.LFB706
 7497 006c 98000000 		.4byte	.LFE706
 7498 0070 00000000 		.4byte	0
 7499 0074 00000000 		.4byte	0
 7500              		.section	.debug_line,"",%progbits
 7501              	.Ldebug_line0:
 7502 0000 3A070000 		.section	.debug_str,"MS",%progbits,1
 7502      02000605 
 7502      00000201 
 7502      FB0E0D00 
 7502      01010101 
 7503              	.LASF161:
 7504 0000 666C6173 		.ascii	"flashCtlMainWs1Freq\000"
 7504      6843746C 
 7504      4D61696E 
 7504      57733146 
 7504      72657100 
 7505              	.LASF299:
 7506 0014 70657269 		.ascii	"period1\000"
 7506      6F643100 
 7507              	.LASF33:
 7508 001c 52455345 		.ascii	"RESERVED\000"
 7508      52564544 
 7508      00
 7509              	.LASF351:
 7510 0025 70726576 		.ascii	"prev_aux_cfg\000"
 7510      5F617578 
 7510      5F636667 
 7510      00
 7511              	.LASF251:
 7512 0032 63795F63 		.ascii	"cy_cb_scb_spi_handle_events_t\000"
 7512      625F7363 
 7512      625F7370 
 7512      695F6861 
 7512      6E646C65 
 7513              	.LASF289:
 7514 0050 73746F70 		.ascii	"stopInputMode\000"
 7514      496E7075 
 7514      744D6F64 
 7514      6500
 7515              	.LASF326:
 7516 005e 626D6931 		.ascii	"bmi160_select_sensor\000"
 7516      36305F73 
ARM GAS  C:\Users\jlabe\AppData\Local\Temp\ccJbzXZ1.s 			page 165


 7516      656C6563 
 7516      745F7365 
 7516      6E736F72 
 7517              	.LASF390:
 7518 0073 7265645F 		.ascii	"red_LED_buffer\000"
 7518      4C45445F 
 7518      62756666 
 7518      657200
 7519              	.LASF396:
 7520 0082 63795F64 		.ascii	"cy_device\000"
 7520      65766963 
 7520      6500
 7521              	.LASF417:
 7522 008c 433A5C55 		.ascii	"C:\\Users\\jlabe\\Desktop\\H21\\GBM2100_Projet\\PRO"
 7522      73657273 
 7522      5C6A6C61 
 7522      62655C44 
 7522      65736B74 
 7523 00b9 4A45545C 		.ascii	"JET\\Prototype\\Laboratoire3.cydsn\000"
 7523      50726F74 
 7523      6F747970 
 7523      655C4C61 
 7523      626F7261 
 7524              	.LASF188:
 7525 00da 63707573 		.ascii	"cpussCm0ClockCtlOffset\000"
 7525      73436D30 
 7525      436C6F63 
 7525      6B43746C 
 7525      4F666673 
 7526              	.LASF147:
 7527 00f1 70657269 		.ascii	"periClockNr\000"
 7527      436C6F63 
 7527      6B4E7200 
 7528              	.LASF232:
 7529 00fd 6D617374 		.ascii	"masterStatus\000"
 7529      65725374 
 7529      61747573 
 7529      00
 7530              	.LASF399:
 7531 010a 43595F45 		.ascii	"CY_EINK_SPIM_context\000"
 7531      494E4B5F 
 7531      5350494D 
 7531      5F636F6E 
 7531      74657874 
 7532              	.LASF312:
 7533 011f 626D6931 		.ascii	"bmi160_sensor_data\000"
 7533      36305F73 
 7533      656E736F 
 7533      725F6461 
 7533      746100
 7534              	.LASF265:
 7535 0132 74785374 		.ascii	"txStatus\000"
 7535      61747573 
 7535      00
 7536              	.LASF218:
 7537 013b 43595F53 		.ascii	"CY_SCB_I2C_MASTER_MANUAL_BUS_ERR\000"
 7537      43425F49 
ARM GAS  C:\Users\jlabe\AppData\Local\Temp\ccJbzXZ1.s 			page 166


 7537      32435F4D 
 7537      41535445 
 7537      525F4D41 
 7538              	.LASF50:
 7539 015c 434D445F 		.ascii	"CMD_RESP_STATUS\000"
 7539      52455350 
 7539      5F535441 
 7539      54555300 
 7540              	.LASF243:
 7541 016c 736C6176 		.ascii	"slaveTxBufferIdx\000"
 7541      65547842 
 7541      75666665 
 7541      72496478 
 7541      00
 7542              	.LASF106:
 7543 017d 494E5452 		.ascii	"INTR_TX_MASK\000"
 7543      5F54585F 
 7543      4D41534B 
 7543      00
 7544              	.LASF120:
 7545 018a 70657269 		.ascii	"periBase\000"
 7545      42617365 
 7545      00
 7546              	.LASF393:
 7547 0193 6D6F7469 		.ascii	"motionTask\000"
 7547      6F6E5461 
 7547      736B00
 7548              	.LASF317:
 7549 019e 626D6931 		.ascii	"bmi160_cfg\000"
 7549      36305F63 
 7549      666700
 7550              	.LASF222:
 7551 01a9 43595F53 		.ascii	"CY_SCB_I2C_READ_XFER\000"
 7551      43425F49 
 7551      32435F52 
 7551      4541445F 
 7551      58464552 
 7552              	.LASF324:
 7553 01be 6175785F 		.ascii	"aux_odr\000"
 7553      6F647200 
 7554              	.LASF344:
 7555 01c6 696E7465 		.ascii	"interface\000"
 7555      72666163 
 7555      6500
 7556              	.LASF166:
 7557 01d0 64774368 		.ascii	"dwChSize\000"
 7557      53697A65 
 7557      00
 7558              	.LASF212:
 7559 01d9 43595F53 		.ascii	"CY_SCB_I2C_BAD_PARAM\000"
 7559      43425F49 
 7559      32435F42 
 7559      41445F50 
 7559      4152414D 
 7560              	.LASF67:
 7561 01ee 54585F46 		.ascii	"TX_FIFO_STATUS\000"
 7561      49464F5F 
ARM GAS  C:\Users\jlabe\AppData\Local\Temp\ccJbzXZ1.s 			page 167


 7561      53544154 
 7561      555300
 7562              	.LASF239:
 7563 01fd 736C6176 		.ascii	"slaveStatus\000"
 7563      65537461 
 7563      74757300 
 7564              	.LASF44:
 7565 0209 5644445F 		.ascii	"VDD_INTR_MASKED\000"
 7565      494E5452 
 7565      5F4D4153 
 7565      4B454400 
 7566              	.LASF14:
 7567 0219 756E7369 		.ascii	"unsigned int\000"
 7567      676E6564 
 7567      20696E74 
 7567      00
 7568              	.LASF227:
 7569 0226 63795F63 		.ascii	"cy_cb_scb_i2c_handle_events_t\000"
 7569      625F7363 
 7569      625F6932 
 7569      635F6861 
 7569      6E646C65 
 7570              	.LASF237:
 7571 0244 6D617374 		.ascii	"masterBufferIdx\000"
 7571      65724275 
 7571      66666572 
 7571      49647800 
 7572              	.LASF82:
 7573 0254 494E5452 		.ascii	"INTR_CAUSE\000"
 7573      5F434155 
 7573      534500
 7574              	.LASF148:
 7575 025f 736D6966 		.ascii	"smifDeviceNr\000"
 7575      44657669 
 7575      63654E72 
 7575      00
 7576              	.LASF178:
 7577 026c 70657269 		.ascii	"periDivCmdPaTypeSelPos\000"
 7577      44697643 
 7577      6D645061 
 7577      54797065 
 7577      53656C50 
 7578              	.LASF260:
 7579 0283 74784275 		.ascii	"txBufIdx\000"
 7579      66496478 
 7579      00
 7580              	.LASF288:
 7581 028c 73746172 		.ascii	"startInput\000"
 7581      74496E70 
 7581      757400
 7582              	.LASF379:
 7583 0297 4D415833 		.ascii	"MAX30102ReadFIFO16bits\000"
 7583      30313032 
 7583      52656164 
 7583      4649464F 
 7583      31366269 
 7584              	.LASF374:
ARM GAS  C:\Users\jlabe\AppData\Local\Temp\ccJbzXZ1.s 			page 168


 7585 02ae 72656756 		.ascii	"regValue\000"
 7585      616C7565 
 7585      00
 7586              	.LASF8:
 7587 02b7 5F5F696E 		.ascii	"__int32_t\000"
 7587      7433325F 
 7587      7400
 7588              	.LASF272:
 7589 02c1 63795F73 		.ascii	"cy_stc_scb_uart_context_t\000"
 7589      74635F73 
 7589      63625F75 
 7589      6172745F 
 7589      636F6E74 
 7590              	.LASF118:
 7591 02db 63707573 		.ascii	"cpussBase\000"
 7591      73426173 
 7591      6500
 7592              	.LASF245:
 7593 02e5 736C6176 		.ascii	"slaveRxBuffer\000"
 7593      65527842 
 7593      75666665 
 7593      7200
 7594              	.LASF19:
 7595 02f3 696E7433 		.ascii	"int32_t\000"
 7595      325F7400 
 7596              	.LASF142:
 7597 02fb 63707573 		.ascii	"cpussFmIrq\000"
 7597      73466D49 
 7597      727100
 7598              	.LASF100:
 7599 0306 494E5452 		.ascii	"INTR_S_SET\000"
 7599      5F535F53 
 7599      455400
 7600              	.LASF49:
 7601 0311 434D445F 		.ascii	"CMD_RESP_CTRL\000"
 7601      52455350 
 7601      5F435452 
 7601      4C00
 7602              	.LASF249:
 7603 031f 63624164 		.ascii	"cbAddr\000"
 7603      647200
 7604              	.LASF112:
 7605 0326 494E5452 		.ascii	"INTR_RX_MASKED\000"
 7605      5F52585F 
 7605      4D41534B 
 7605      454400
 7606              	.LASF224:
 7607 0335 43595F53 		.ascii	"CY_SCB_I2C_ACK\000"
 7607      43425F49 
 7607      32435F41 
 7607      434B00
 7608              	.LASF290:
 7609 0344 73746F70 		.ascii	"stopInput\000"
 7609      496E7075 
 7609      7400
 7610              	.LASF268:
 7611 034e 72785269 		.ascii	"rxRingBufSize\000"
ARM GAS  C:\Users\jlabe\AppData\Local\Temp\ccJbzXZ1.s 			page 169


 7611      6E674275 
 7611      6653697A 
 7611      6500
 7612              	.LASF256:
 7613 035c 72784275 		.ascii	"rxBufSize\000"
 7613      6653697A 
 7613      6500
 7614              	.LASF382:
 7615 0366 74656D70 		.ascii	"temp_buffer\000"
 7615      5F627566 
 7615      66657200 
 7616              	.LASF295:
 7617 0372 70776D4D 		.ascii	"pwmMode\000"
 7617      6F646500 
 7618              	.LASF174:
 7619 037a 70657269 		.ascii	"periTrGrSize\000"
 7619      54724772 
 7619      53697A65 
 7619      00
 7620              	.LASF177:
 7621 0387 70657269 		.ascii	"periDivCmdPaDivSelPos\000"
 7621      44697643 
 7621      6D645061 
 7621      44697653 
 7621      656C506F 
 7622              	.LASF28:
 7623 039d 494E5452 		.ascii	"INTR_SET\000"
 7623      5F534554 
 7623      00
 7624              	.LASF154:
 7625 03a6 63727970 		.ascii	"cryptoMemSize\000"
 7625      746F4D65 
 7625      6D53697A 
 7625      6500
 7626              	.LASF200:
 7627 03b4 63707573 		.ascii	"cpussRam1Ctl0\000"
 7627      7352616D 
 7627      3143746C 
 7627      3000
 7628              	.LASF381:
 7629 03c2 64617461 		.ascii	"data_ir\000"
 7629      5F697200 
 7630              	.LASF202:
 7631 03ca 69706353 		.ascii	"ipcStructSize\000"
 7631      74727563 
 7631      7453697A 
 7631      6500
 7632              	.LASF225:
 7633 03d8 43595F53 		.ascii	"CY_SCB_I2C_NAK\000"
 7633      43425F49 
 7633      32435F4E 
 7633      414B00
 7634              	.LASF413:
 7635 03e7 626D6931 		.ascii	"bmi160_get_sensor_data\000"
 7635      36305F67 
 7635      65745F73 
 7635      656E736F 
ARM GAS  C:\Users\jlabe\AppData\Local\Temp\ccJbzXZ1.s 			page 170


 7635      725F6461 
 7636              	.LASF328:
 7637 03fe 424D4931 		.ascii	"BMI160_BOTH_ANY_SIG_MOTION_DISABLED\000"
 7637      36305F42 
 7637      4F54485F 
 7637      414E595F 
 7637      5349475F 
 7638              	.LASF228:
 7639 0422 63795F63 		.ascii	"cy_cb_scb_i2c_handle_addr_t\000"
 7639      625F7363 
 7639      625F6932 
 7639      635F6861 
 7639      6E646C65 
 7640              	.LASF279:
 7641 043e 636F6D70 		.ascii	"compare0\000"
 7641      61726530 
 7641      00
 7642              	.LASF280:
 7643 0447 636F6D70 		.ascii	"compare1\000"
 7643      61726531 
 7643      00
 7644              	.LASF415:
 7645 0450 474E5520 		.ascii	"GNU C11 5.4.1 20160609 (release) [ARM/embedded-5-br"
 7645      43313120 
 7645      352E342E 
 7645      31203230 
 7645      31363036 
 7646 0483 616E6368 		.ascii	"anch revision 237715] -mcpu=cortex-m4 -mfloat-abi=s"
 7646      20726576 
 7646      6973696F 
 7646      6E203233 
 7646      37373135 
 7647 04b6 6F667466 		.ascii	"oftfp -mfpu=fpv4-sp-d16 -mthumb -g -Og -ffunction-s"
 7647      70202D6D 
 7647      6670753D 
 7647      66707634 
 7647      2D73702D 
 7648 04e9 65637469 		.ascii	"ections -ffat-lto-objects\000"
 7648      6F6E7320 
 7648      2D666661 
 7648      742D6C74 
 7648      6F2D6F62 
 7649              	.LASF136:
 7650 0503 70726F74 		.ascii	"protVersion\000"
 7650      56657273 
 7650      696F6E00 
 7651              	.LASF252:
 7652 050f 63795F73 		.ascii	"cy_stc_scb_i2c_context\000"
 7652      74635F73 
 7652      63625F69 
 7652      32635F63 
 7652      6F6E7465 
 7653              	.LASF55:
 7654 0526 55415254 		.ascii	"UART_RX_CTRL\000"
 7654      5F52585F 
 7654      4354524C 
 7654      00
ARM GAS  C:\Users\jlabe\AppData\Local\Temp\ccJbzXZ1.s 			page 171


 7655              	.LASF311:
 7656 0533 626D6931 		.ascii	"bmi160_delay_fptr_t\000"
 7656      36305F64 
 7656      656C6179 
 7656      5F667074 
 7656      725F7400 
 7657              	.LASF5:
 7658 0547 5F5F696E 		.ascii	"__int16_t\000"
 7658      7431365F 
 7658      7400
 7659              	.LASF294:
 7660 0551 63795F73 		.ascii	"cy_stc_tcpwm_pwm_config\000"
 7660      74635F74 
 7660      6370776D 
 7660      5F70776D 
 7660      5F636F6E 
 7661              	.LASF176:
 7662 0569 70657269 		.ascii	"periDivCmdTypeSelPos\000"
 7662      44697643 
 7662      6D645479 
 7662      70655365 
 7662      6C506F73 
 7663              	.LASF193:
 7664 057e 63707573 		.ascii	"cpussTrimRamCtlOffset\000"
 7664      73547269 
 7664      6D52616D 
 7664      43746C4F 
 7664      66667365 
 7665              	.LASF116:
 7666 0594 43795343 		.ascii	"CySCB_Type\000"
 7666      425F5479 
 7666      706500
 7667              	.LASF196:
 7668 059f 63707573 		.ascii	"cpussCm0NmiCtlOffset\000"
 7668      73436D30 
 7668      4E6D6943 
 7668      746C4F66 
 7668      66736574 
 7669              	.LASF335:
 7670 05b4 6669666F 		.ascii	"fifo_header_enable\000"
 7670      5F686561 
 7670      6465725F 
 7670      656E6162 
 7670      6C6500
 7671              	.LASF30:
 7672 05c7 4346475F 		.ascii	"CFG_IN\000"
 7672      494E00
 7673              	.LASF63:
 7674 05ce 4932435F 		.ascii	"I2C_CFG\000"
 7674      43464700 
 7675              	.LASF330:
 7676 05d6 424D4931 		.ascii	"BMI160_SIG_MOTION_ENABLED\000"
 7676      36305F53 
 7676      49475F4D 
 7676      4F54494F 
 7676      4E5F454E 
 7677              	.LASF241:
ARM GAS  C:\Users\jlabe\AppData\Local\Temp\ccJbzXZ1.s 			page 172


 7678 05f0 736C6176 		.ascii	"slaveTxBuffer\000"
 7678      65547842 
 7678      75666665 
 7678      7200
 7679              	.LASF394:
 7680 05fe 61636365 		.ascii	"acceleration\000"
 7680      6C657261 
 7680      74696F6E 
 7680      00
 7681              	.LASF61:
 7682 060b 4932435F 		.ascii	"I2C_M_CMD\000"
 7682      4D5F434D 
 7682      4400
 7683              	.LASF78:
 7684 0615 52585F46 		.ascii	"RX_FIFO_RD_SILENT\000"
 7684      49464F5F 
 7684      52445F53 
 7684      494C454E 
 7684      5400
 7685              	.LASF282:
 7686 0627 696E7465 		.ascii	"interruptSources\000"
 7686      72727570 
 7686      74536F75 
 7686      72636573 
 7686      00
 7687              	.LASF20:
 7688 0638 75696E74 		.ascii	"uint32_t\000"
 7688      33325F74 
 7688      00
 7689              	.LASF15:
 7690 0641 696E7438 		.ascii	"int8_t\000"
 7690      5F7400
 7691              	.LASF95:
 7692 0648 494E5452 		.ascii	"INTR_M_SET\000"
 7692      5F4D5F53 
 7692      455400
 7693              	.LASF46:
 7694 0653 4750494F 		.ascii	"GPIO_V1_Type\000"
 7694      5F56315F 
 7694      54797065 
 7694      00
 7695              	.LASF186:
 7696 0660 6770696F 		.ascii	"gpioPrtCfgOutOffset\000"
 7696      50727443 
 7696      66674F75 
 7696      744F6666 
 7696      73657400 
 7697              	.LASF25:
 7698 0674 494E5452 		.ascii	"INTR\000"
 7698      00
 7699              	.LASF23:
 7700 0679 4F55545F 		.ascii	"OUT_SET\000"
 7700      53455400 
 7701              	.LASF129:
 7702 0681 63727970 		.ascii	"cryptoVersion\000"
 7702      746F5665 
 7702      7273696F 
ARM GAS  C:\Users\jlabe\AppData\Local\Temp\ccJbzXZ1.s 			page 173


 7702      6E00
 7703              	.LASF414:
 7704 068f 73717274 		.ascii	"sqrt\000"
 7704      00
 7705              	.LASF97:
 7706 0694 494E5452 		.ascii	"INTR_M_MASKED\000"
 7706      5F4D5F4D 
 7706      41534B45 
 7706      4400
 7707              	.LASF150:
 7708 06a2 65704D6F 		.ascii	"epMonitorNr\000"
 7708      6E69746F 
 7708      724E7200 
 7709              	.LASF367:
 7710 06ae 62617365 		.ascii	"base\000"
 7710      00
 7711              	.LASF264:
 7712 06b3 63795F73 		.ascii	"cy_stc_scb_uart_context\000"
 7712      74635F73 
 7712      63625F75 
 7712      6172745F 
 7712      636F6E74 
 7713              	.LASF22:
 7714 06cb 4F55545F 		.ascii	"OUT_CLR\000"
 7714      434C5200 
 7715              	.LASF286:
 7716 06d3 72656C6F 		.ascii	"reloadInput\000"
 7716      6164496E 
 7716      70757400 
 7717              	.LASF17:
 7718 06df 696E7431 		.ascii	"int16_t\000"
 7718      365F7400 
 7719              	.LASF185:
 7720 06e7 6770696F 		.ascii	"gpioPrtCfgInOffset\000"
 7720      50727443 
 7720      6667496E 
 7720      4F666673 
 7720      657400
 7721              	.LASF13:
 7722 06fa 6C6F6E67 		.ascii	"long long unsigned int\000"
 7722      206C6F6E 
 7722      6720756E 
 7722      7369676E 
 7722      65642069 
 7723              	.LASF358:
 7724 0711 74696D65 		.ascii	"timeoutMs\000"
 7724      6F75744D 
 7724      7300
 7725              	.LASF182:
 7726 071b 70657269 		.ascii	"periDiv24_5CtlOffset\000"
 7726      44697632 
 7726      345F3543 
 7726      746C4F66 
 7726      66736574 
 7727              	.LASF187:
 7728 0730 6770696F 		.ascii	"gpioPrtCfgSioOffset\000"
 7728      50727443 
ARM GAS  C:\Users\jlabe\AppData\Local\Temp\ccJbzXZ1.s 			page 174


 7728      66675369 
 7728      6F4F6666 
 7728      73657400 
 7729              	.LASF397:
 7730 0744 50574D5F 		.ascii	"PWM_config\000"
 7730      636F6E66 
 7730      696700
 7731              	.LASF141:
 7732 074f 63707573 		.ascii	"cpussIpc0Irq\000"
 7732      73497063 
 7732      30497271 
 7732      00
 7733              	.LASF408:
 7734 075c 43795F53 		.ascii	"Cy_SCB_I2C_MasterSendReStart\000"
 7734      43425F49 
 7734      32435F4D 
 7734      61737465 
 7734      7253656E 
 7735              	.LASF404:
 7736 0779 43795F53 		.ascii	"Cy_SCB_I2C_MasterWriteByte\000"
 7736      43425F49 
 7736      32435F4D 
 7736      61737465 
 7736      72577269 
 7737              	.LASF121:
 7738 0794 75646242 		.ascii	"udbBase\000"
 7738      61736500 
 7739              	.LASF242:
 7740 079c 736C6176 		.ascii	"slaveTxBufferSize\000"
 7740      65547842 
 7740      75666665 
 7740      7253697A 
 7740      6500
 7741              	.LASF34:
 7742 07ae 4346475F 		.ascii	"CFG_IN_GPIO5V\000"
 7742      494E5F47 
 7742      50494F35 
 7742      5600
 7743              	.LASF240:
 7744 07bc 736C6176 		.ascii	"slaveRdBufEmpty\000"
 7744      65526442 
 7744      7566456D 
 7744      70747900 
 7745              	.LASF302:
 7746 07cc 696E7665 		.ascii	"invertPWMOutN\000"
 7746      72745057 
 7746      4D4F7574 
 7746      4E00
 7747              	.LASF287:
 7748 07da 73746172 		.ascii	"startInputMode\000"
 7748      74496E70 
 7748      75744D6F 
 7748      646500
 7749              	.LASF65:
 7750 07e9 54585F43 		.ascii	"TX_CTRL\000"
 7750      54524C00 
 7751              	.LASF105:
ARM GAS  C:\Users\jlabe\AppData\Local\Temp\ccJbzXZ1.s 			page 175


 7752 07f1 494E5452 		.ascii	"INTR_TX_SET\000"
 7752      5F54585F 
 7752      53455400 
 7753              	.LASF283:
 7754 07fd 63617074 		.ascii	"captureInputMode\000"
 7754      75726549 
 7754      6E707574 
 7754      4D6F6465 
 7754      00
 7755              	.LASF54:
 7756 080e 55415254 		.ascii	"UART_TX_CTRL\000"
 7756      5F54585F 
 7756      4354524C 
 7756      00
 7757              	.LASF127:
 7758 081b 63727970 		.ascii	"cryptoBase\000"
 7758      746F4261 
 7758      736500
 7759              	.LASF31:
 7760 0826 4346475F 		.ascii	"CFG_OUT\000"
 7760      4F555400 
 7761              	.LASF266:
 7762 082e 72785374 		.ascii	"rxStatus\000"
 7762      61747573 
 7762      00
 7763              	.LASF359:
 7764 0837 61636B4E 		.ascii	"ackNack\000"
 7764      61636B00 
 7765              	.LASF345:
 7766 083f 616E795F 		.ascii	"any_sig_sel\000"
 7766      7369675F 
 7766      73656C00 
 7767              	.LASF163:
 7768 084b 666C6173 		.ascii	"flashCtlMainWs3Freq\000"
 7768      6843746C 
 7768      4D61696E 
 7768      57733346 
 7768      72657100 
 7769              	.LASF226:
 7770 085f 63795F65 		.ascii	"cy_en_scb_i2c_command_t\000"
 7770      6E5F7363 
 7770      625F6932 
 7770      635F636F 
 7770      6D6D616E 
 7771              	.LASF314:
 7772 0877 424D4931 		.ascii	"BMI160_ACCEL_ONLY\000"
 7772      36305F41 
 7772      4343454C 
 7772      5F4F4E4C 
 7772      5900
 7773              	.LASF145:
 7774 0889 73727373 		.ascii	"srssNumPll\000"
 7774      4E756D50 
 7774      6C6C00
 7775              	.LASF343:
 7776 0894 63686970 		.ascii	"chip_id\000"
 7776      5F696400 
ARM GAS  C:\Users\jlabe\AppData\Local\Temp\ccJbzXZ1.s 			page 176


 7777              	.LASF352:
 7778 089c 6669666F 		.ascii	"fifo\000"
 7778      00
 7779              	.LASF340:
 7780 08a1 73656E73 		.ascii	"sensor_time\000"
 7780      6F725F74 
 7780      696D6500 
 7781              	.LASF89:
 7782 08ad 494E5452 		.ascii	"INTR_SPI_EC\000"
 7782      5F535049 
 7782      5F454300 
 7783              	.LASF156:
 7784 08b9 666C6173 		.ascii	"flashPipeRequired\000"
 7784      68506970 
 7784      65526571 
 7784      75697265 
 7784      6400
 7785              	.LASF329:
 7786 08cb 424D4931 		.ascii	"BMI160_ANY_MOTION_ENABLED\000"
 7786      36305F41 
 7786      4E595F4D 
 7786      4F54494F 
 7786      4E5F454E 
 7787              	.LASF248:
 7788 08e5 63624576 		.ascii	"cbEvents\000"
 7788      656E7473 
 7788      00
 7789              	.LASF410:
 7790 08ee 76546173 		.ascii	"vTaskDelay\000"
 7790      6B44656C 
 7790      617900
 7791              	.LASF310:
 7792 08f9 626D6931 		.ascii	"bmi160_com_fptr_t\000"
 7792      36305F63 
 7792      6F6D5F66 
 7792      7074725F 
 7792      7400
 7793              	.LASF111:
 7794 090b 494E5452 		.ascii	"INTR_RX_MASK\000"
 7794      5F52585F 
 7794      4D41534B 
 7794      00
 7795              	.LASF210:
 7796 0918 5F426F6F 		.ascii	"_Bool\000"
 7796      6C00
 7797              	.LASF75:
 7798 091e 52585F4D 		.ascii	"RX_MATCH\000"
 7798      41544348 
 7798      00
 7799              	.LASF213:
 7800 0927 43595F53 		.ascii	"CY_SCB_I2C_MASTER_NOT_READY\000"
 7800      43425F49 
 7800      32435F4D 
 7800      41535445 
 7800      525F4E4F 
 7801              	.LASF273:
 7802 0943 63795F73 		.ascii	"cy_stc_tcpwm_counter_config\000"
ARM GAS  C:\Users\jlabe\AppData\Local\Temp\ccJbzXZ1.s 			page 177


 7802      74635F74 
 7802      6370776D 
 7802      5F636F75 
 7802      6E746572 
 7803              	.LASF217:
 7804 095f 43595F53 		.ascii	"CY_SCB_I2C_MASTER_MANUAL_ARB_LOST\000"
 7804      43425F49 
 7804      32435F4D 
 7804      41535445 
 7804      525F4D41 
 7805              	.LASF160:
 7806 0981 666C6173 		.ascii	"flashCtlMainWs0Freq\000"
 7806      6843746C 
 7806      4D61696E 
 7806      57733046 
 7806      72657100 
 7807              	.LASF305:
 7808 0995 73776170 		.ascii	"swapInput\000"
 7808      496E7075 
 7808      7400
 7809              	.LASF229:
 7810 099f 75736552 		.ascii	"useRxFifo\000"
 7810      78466966 
 7810      6F00
 7811              	.LASF42:
 7812 09a9 5644445F 		.ascii	"VDD_INTR\000"
 7812      494E5452 
 7812      00
 7813              	.LASF395:
 7814 09b2 49544D5F 		.ascii	"ITM_RxBuffer\000"
 7814      52784275 
 7814      66666572 
 7814      00
 7815              	.LASF124:
 7816 09bf 6770696F 		.ascii	"gpioBase\000"
 7816      42617365 
 7816      00
 7817              	.LASF84:
 7818 09c8 494E5452 		.ascii	"INTR_I2C_EC\000"
 7818      5F493243 
 7818      5F454300 
 7819              	.LASF296:
 7820 09d4 70776D41 		.ascii	"pwmAlignment\000"
 7820      6C69676E 
 7820      6D656E74 
 7820      00
 7821              	.LASF371:
 7822 09e1 424D4931 		.ascii	"BMI160BurstWrite\000"
 7822      36304275 
 7822      72737457 
 7822      72697465 
 7822      00
 7823              	.LASF102:
 7824 09f2 494E5452 		.ascii	"INTR_S_MASKED\000"
 7824      5F535F4D 
 7824      41534B45 
 7824      4400
ARM GAS  C:\Users\jlabe\AppData\Local\Temp\ccJbzXZ1.s 			page 178


 7825              	.LASF355:
 7826 0a00 64656C61 		.ascii	"delay_ms\000"
 7826      795F6D73 
 7826      00
 7827              	.LASF195:
 7828 0a09 63707573 		.ascii	"cpussSysTickCtlOffset\000"
 7828      73537973 
 7828      5469636B 
 7828      43746C4F 
 7828      66667365 
 7829              	.LASF151:
 7830 0a1f 75646250 		.ascii	"udbPresent\000"
 7830      72657365 
 7830      6E7400
 7831              	.LASF114:
 7832 0a2a 4750494F 		.ascii	"GPIO_PRT_Type\000"
 7832      5F505254 
 7832      5F547970 
 7832      6500
 7833              	.LASF169:
 7834 0a38 64775374 		.ascii	"dwStatusChIdxPos\000"
 7834      61747573 
 7834      43684964 
 7834      78506F73 
 7834      00
 7835              	.LASF6:
 7836 0a49 5F5F7569 		.ascii	"__uint16_t\000"
 7836      6E743136 
 7836      5F7400
 7837              	.LASF401:
 7838 0a54 55415254 		.ascii	"UART_1_context\000"
 7838      5F315F63 
 7838      6F6E7465 
 7838      787400
 7839              	.LASF370:
 7840 0a63 7265675F 		.ascii	"reg_addr\000"
 7840      61646472 
 7840      00
 7841              	.LASF238:
 7842 0a6c 6D617374 		.ascii	"masterNumBytes\000"
 7842      65724E75 
 7842      6D427974 
 7842      657300
 7843              	.LASF140:
 7844 0a7b 63707573 		.ascii	"cpussFlashPaSize\000"
 7844      73466C61 
 7844      73685061 
 7844      53697A65 
 7844      00
 7845              	.LASF284:
 7846 0a8c 63617074 		.ascii	"captureInput\000"
 7846      75726549 
 7846      6E707574 
 7846      00
 7847              	.LASF119:
 7848 0a99 666C6173 		.ascii	"flashcBase\000"
 7848      68634261 
ARM GAS  C:\Users\jlabe\AppData\Local\Temp\ccJbzXZ1.s 			page 179


 7848      736500
 7849              	.LASF206:
 7850 0aa4 63686172 		.ascii	"char\000"
 7850      00
 7851              	.LASF113:
 7852 0aa9 43795343 		.ascii	"CySCB_V1_Type\000"
 7852      425F5631 
 7852      5F547970 
 7852      6500
 7853              	.LASF350:
 7854 0ab7 6175785F 		.ascii	"aux_cfg\000"
 7854      63666700 
 7855              	.LASF270:
 7856 0abf 72785269 		.ascii	"rxRingBufTail\000"
 7856      6E674275 
 7856      66546169 
 7856      6C00
 7857              	.LASF101:
 7858 0acd 494E5452 		.ascii	"INTR_S_MASK\000"
 7858      5F535F4D 
 7858      41534B00 
 7859              	.LASF152:
 7860 0ad9 73797350 		.ascii	"sysPmSimoPresent\000"
 7860      6D53696D 
 7860      6F507265 
 7860      73656E74 
 7860      00
 7861              	.LASF236:
 7862 0aea 6D617374 		.ascii	"masterBufferSize\000"
 7862      65724275 
 7862      66666572 
 7862      53697A65 
 7862      00
 7863              	.LASF211:
 7864 0afb 43595F53 		.ascii	"CY_SCB_I2C_SUCCESS\000"
 7864      43425F49 
 7864      32435F53 
 7864      55434345 
 7864      535300
 7865              	.LASF87:
 7866 0b0e 494E5452 		.ascii	"INTR_I2C_EC_MASKED\000"
 7866      5F493243 
 7866      5F45435F 
 7866      4D41534B 
 7866      454400
 7867              	.LASF342:
 7868 0b21 626D6931 		.ascii	"bmi160_dev\000"
 7868      36305F64 
 7868      657600
 7869              	.LASF412:
 7870 0b2c 626D6931 		.ascii	"bmi160_set_sens_conf\000"
 7870      36305F73 
 7870      65745F73 
 7870      656E735F 
 7870      636F6E66 
 7871              	.LASF275:
 7872 0b41 636C6F63 		.ascii	"clockPrescaler\000"
ARM GAS  C:\Users\jlabe\AppData\Local\Temp\ccJbzXZ1.s 			page 180


 7872      6B507265 
 7872      7363616C 
 7872      657200
 7873              	.LASF332:
 7874 0b50 64617461 		.ascii	"data\000"
 7874      00
 7875              	.LASF12:
 7876 0b55 6C6F6E67 		.ascii	"long long int\000"
 7876      206C6F6E 
 7876      6720696E 
 7876      7400
 7877              	.LASF257:
 7878 0b63 72784275 		.ascii	"rxBufIdx\000"
 7878      66496478 
 7878      00
 7879              	.LASF261:
 7880 0b6c 696E6974 		.ascii	"initKey\000"
 7880      4B657900 
 7881              	.LASF170:
 7882 0b74 64775374 		.ascii	"dwStatusChIdxMsk\000"
 7882      61747573 
 7882      43684964 
 7882      784D736B 
 7882      00
 7883              	.LASF72:
 7884 0b85 52585F46 		.ascii	"RX_FIFO_CTRL\000"
 7884      49464F5F 
 7884      4354524C 
 7884      00
 7885              	.LASF16:
 7886 0b92 75696E74 		.ascii	"uint8_t\000"
 7886      385F7400 
 7887              	.LASF254:
 7888 0b9a 73746174 		.ascii	"status\000"
 7888      757300
 7889              	.LASF214:
 7890 0ba1 43595F53 		.ascii	"CY_SCB_I2C_MASTER_MANUAL_TIMEOUT\000"
 7890      43425F49 
 7890      32435F4D 
 7890      41535445 
 7890      525F4D41 
 7891              	.LASF244:
 7892 0bc2 736C6176 		.ascii	"slaveTxBufferCnt\000"
 7892      65547842 
 7892      75666665 
 7892      72436E74 
 7892      00
 7893              	.LASF37:
 7894 0bd3 494E5452 		.ascii	"INTR_CAUSE0\000"
 7894      5F434155 
 7894      53453000 
 7895              	.LASF336:
 7896 0bdf 6669666F 		.ascii	"fifo_data_enable\000"
 7896      5F646174 
 7896      615F656E 
 7896      61626C65 
 7896      00
ARM GAS  C:\Users\jlabe\AppData\Local\Temp\ccJbzXZ1.s 			page 181


 7897              	.LASF175:
 7898 0bf0 70657269 		.ascii	"periDivCmdDivSelMsk\000"
 7898      44697643 
 7898      6D644469 
 7898      7653656C 
 7898      4D736B00 
 7899              	.LASF39:
 7900 0c04 494E5452 		.ascii	"INTR_CAUSE2\000"
 7900      5F434155 
 7900      53453200 
 7901              	.LASF416:
 7902 0c10 436F6D6D 		.ascii	"Communication.c\000"
 7902      756E6963 
 7902      6174696F 
 7902      6E2E6300 
 7903              	.LASF40:
 7904 0c20 494E5452 		.ascii	"INTR_CAUSE3\000"
 7904      5F434155 
 7904      53453300 
 7905              	.LASF181:
 7906 0c2c 70657269 		.ascii	"periDiv16_5CtlOffset\000"
 7906      44697631 
 7906      365F3543 
 7906      746C4F66 
 7906      66736574 
 7907              	.LASF263:
 7908 0c41 63795F63 		.ascii	"cy_cb_scb_uart_handle_events_t\000"
 7908      625F7363 
 7908      625F7561 
 7908      72745F68 
 7908      616E646C 
 7909              	.LASF389:
 7910 0c60 4D415833 		.ascii	"MAX30102Task\000"
 7910      30313032 
 7910      5461736B 
 7910      00
 7911              	.LASF398:
 7912 0c6d 43595F45 		.ascii	"CY_EINK_Timer_config\000"
 7912      494E4B5F 
 7912      54696D65 
 7912      725F636F 
 7912      6E666967 
 7913              	.LASF199:
 7914 0c82 63707573 		.ascii	"cpussRam0Ctl0\000"
 7914      7352616D 
 7914      3043746C 
 7914      3000
 7915              	.LASF339:
 7916 0c90 6175785F 		.ascii	"aux_byte_start_idx\000"
 7916      62797465 
 7916      5F737461 
 7916      72745F69 
 7916      647800
 7917              	.LASF126:
 7918 0ca3 69706342 		.ascii	"ipcBase\000"
 7918      61736500 
 7919              	.LASF167:
ARM GAS  C:\Users\jlabe\AppData\Local\Temp\ccJbzXZ1.s 			page 182


 7920 0cab 64774368 		.ascii	"dwChCtlPrioPos\000"
 7920      43746C50 
 7920      72696F50 
 7920      6F7300
 7921              	.LASF354:
 7922 0cba 77726974 		.ascii	"write\000"
 7922      6500
 7923              	.LASF300:
 7924 0cc0 656E6162 		.ascii	"enablePeriodSwap\000"
 7924      6C655065 
 7924      72696F64 
 7924      53776170 
 7924      00
 7925              	.LASF409:
 7926 0cd1 7072696E 		.ascii	"printf\000"
 7926      746600
 7927              	.LASF304:
 7928 0cd8 73776170 		.ascii	"swapInputMode\000"
 7928      496E7075 
 7928      744D6F64 
 7928      6500
 7929              	.LASF406:
 7930 0ce6 43795F53 		.ascii	"Cy_SCB_I2C_MasterSendStop\000"
 7930      43425F49 
 7930      32435F4D 
 7930      61737465 
 7930      7253656E 
 7931              	.LASF157:
 7932 0d00 666C6173 		.ascii	"flashWriteDelay\000"
 7932      68577269 
 7932      74654465 
 7932      6C617900 
 7933              	.LASF298:
 7934 0d10 70657269 		.ascii	"period0\000"
 7934      6F643000 
 7935              	.LASF230:
 7936 0d18 75736554 		.ascii	"useTxFifo\000"
 7936      78466966 
 7936      6F00
 7937              	.LASF349:
 7938 0d22 70726576 		.ascii	"prev_gyro_cfg\000"
 7938      5F677972 
 7938      6F5F6366 
 7938      6700
 7939              	.LASF357:
 7940 0d30 4932435F 		.ascii	"I2C_1_MasterReadByte\000"
 7940      315F4D61 
 7940      73746572 
 7940      52656164 
 7940      42797465 
 7941              	.LASF57:
 7942 0d45 55415254 		.ascii	"UART_FLOW_CTRL\000"
 7942      5F464C4F 
 7942      575F4354 
 7942      524C00
 7943              	.LASF348:
 7944 0d54 6779726F 		.ascii	"gyro_cfg\000"
ARM GAS  C:\Users\jlabe\AppData\Local\Temp\ccJbzXZ1.s 			page 183


 7944      5F636667 
 7944      00
 7945              	.LASF123:
 7946 0d5d 6873696F 		.ascii	"hsiomBase\000"
 7946      6D426173 
 7946      6500
 7947              	.LASF234:
 7948 0d67 6D617374 		.ascii	"masterRdDir\000"
 7948      65725264 
 7948      44697200 
 7949              	.LASF173:
 7950 0d73 70657269 		.ascii	"periTrGrOffset\000"
 7950      54724772 
 7950      4F666673 
 7950      657400
 7951              	.LASF143:
 7952 0d82 63707573 		.ascii	"cpussNotConnectedIrq\000"
 7952      734E6F74 
 7952      436F6E6E 
 7952      65637465 
 7952      64497271 
 7953              	.LASF262:
 7954 0d97 63795F73 		.ascii	"cy_stc_scb_spi_context_t\000"
 7954      74635F73 
 7954      63625F73 
 7954      70695F63 
 7954      6F6E7465 
 7955              	.LASF269:
 7956 0db0 72785269 		.ascii	"rxRingBufHead\000"
 7956      6E674275 
 7956      66486561 
 7956      6400
 7957              	.LASF139:
 7958 0dbe 63707573 		.ascii	"cpussDwChNr\000"
 7958      73447743 
 7958      684E7200 
 7959              	.LASF285:
 7960 0dca 72656C6F 		.ascii	"reloadInputMode\000"
 7960      6164496E 
 7960      7075744D 
 7960      6F646500 
 7961              	.LASF378:
 7962 0dda 62756666 		.ascii	"buffer\000"
 7962      657200
 7963              	.LASF400:
 7964 0de1 4932435F 		.ascii	"I2C_1_context\000"
 7964      315F636F 
 7964      6E746578 
 7964      7400
 7965              	.LASF319:
 7966 0def 72616E67 		.ascii	"range\000"
 7966      6500
 7967              	.LASF259:
 7968 0df5 74784275 		.ascii	"txBufSize\000"
 7968      6653697A 
 7968      6500
 7969              	.LASF137:
ARM GAS  C:\Users\jlabe\AppData\Local\Temp\ccJbzXZ1.s 			page 184


 7970 0dff 63707573 		.ascii	"cpussIpcNr\000"
 7970      73497063 
 7970      4E7200
 7971              	.LASF375:
 7972 0e0a 4D415833 		.ascii	"MAX30102Write\000"
 7972      30313032 
 7972      57726974 
 7972      6500
 7973              	.LASF0:
 7974 0e18 73686F72 		.ascii	"short int\000"
 7974      7420696E 
 7974      7400
 7975              	.LASF149:
 7976 0e22 70617373 		.ascii	"passSarChannels\000"
 7976      53617243 
 7976      68616E6E 
 7976      656C7300 
 7977              	.LASF403:
 7978 0e32 626D6931 		.ascii	"bmi160Dev\000"
 7978      36304465 
 7978      7600
 7979              	.LASF201:
 7980 0e3c 63707573 		.ascii	"cpussRam2Ctl0\000"
 7980      7352616D 
 7980      3243746C 
 7980      3000
 7981              	.LASF233:
 7982 0e4a 6D617374 		.ascii	"masterPause\000"
 7982      65725061 
 7982      75736500 
 7983              	.LASF80:
 7984 0e56 455A5F44 		.ascii	"EZ_DATA\000"
 7984      41544100 
 7985              	.LASF405:
 7986 0e5e 43795F53 		.ascii	"Cy_SCB_I2C_MasterSendStart\000"
 7986      43425F49 
 7986      32435F4D 
 7986      61737465 
 7986      7253656E 
 7987              	.LASF109:
 7988 0e79 494E5452 		.ascii	"INTR_RX\000"
 7988      5F525800 
 7989              	.LASF346:
 7990 0e81 61636365 		.ascii	"accel_cfg\000"
 7990      6C5F6366 
 7990      6700
 7991              	.LASF347:
 7992 0e8b 70726576 		.ascii	"prev_accel_cfg\000"
 7992      5F616363 
 7992      656C5F63 
 7992      666700
 7993              	.LASF258:
 7994 0e9a 74784275 		.ascii	"txBuf\000"
 7994      6600
 7995              	.LASF338:
 7996 0ea0 6779726F 		.ascii	"gyro_byte_start_idx\000"
 7996      5F627974 
ARM GAS  C:\Users\jlabe\AppData\Local\Temp\ccJbzXZ1.s 			page 185


 7996      655F7374 
 7996      6172745F 
 7996      69647800 
 7997              	.LASF309:
 7998 0eb4 5469636B 		.ascii	"TickType_t\000"
 7998      54797065 
 7998      5F7400
 7999              	.LASF158:
 8000 0ebf 666C6173 		.ascii	"flashProgramDelay\000"
 8000      6850726F 
 8000      6772616D 
 8000      44656C61 
 8000      7900
 8001              	.LASF180:
 8002 0ed1 70657269 		.ascii	"periDiv16CtlOffset\000"
 8002      44697631 
 8002      3643746C 
 8002      4F666673 
 8002      657400
 8003              	.LASF301:
 8004 0ee4 696E7665 		.ascii	"invertPWMOut\000"
 8004      72745057 
 8004      4D4F7574 
 8004      00
 8005              	.LASF246:
 8006 0ef1 736C6176 		.ascii	"slaveRxBufferSize\000"
 8006      65527842 
 8006      75666665 
 8006      7253697A 
 8006      6500
 8007              	.LASF327:
 8008 0f03 626D6931 		.ascii	"bmi160_any_sig_motion_active_interrupt_state\000"
 8008      36305F61 
 8008      6E795F73 
 8008      69675F6D 
 8008      6F74696F 
 8009              	.LASF7:
 8010 0f30 73686F72 		.ascii	"short unsigned int\000"
 8010      7420756E 
 8010      7369676E 
 8010      65642069 
 8010      6E7400
 8011              	.LASF267:
 8012 0f43 72785269 		.ascii	"rxRingBuf\000"
 8012      6E674275 
 8012      6600
 8013              	.LASF117:
 8014 0f4d 6C6F6E67 		.ascii	"long double\000"
 8014      20646F75 
 8014      626C6500 
 8015              	.LASF18:
 8016 0f59 75696E74 		.ascii	"uint16_t\000"
 8016      31365F74 
 8016      00
 8017              	.LASF86:
 8018 0f62 494E5452 		.ascii	"INTR_I2C_EC_MASK\000"
 8018      5F493243 
ARM GAS  C:\Users\jlabe\AppData\Local\Temp\ccJbzXZ1.s 			page 186


 8018      5F45435F 
 8018      4D41534B 
 8018      00
 8019              	.LASF308:
 8020 0f73 63795F73 		.ascii	"cy_stc_tcpwm_pwm_config_t\000"
 8020      74635F74 
 8020      6370776D 
 8020      5F70776D 
 8020      5F636F6E 
 8021              	.LASF45:
 8022 0f8d 5644445F 		.ascii	"VDD_INTR_SET\000"
 8022      494E5452 
 8022      5F534554 
 8022      00
 8023              	.LASF276:
 8024 0f9a 72756E4D 		.ascii	"runMode\000"
 8024      6F646500 
 8025              	.LASF172:
 8026 0fa2 70657269 		.ascii	"periTrCmdGrSelMsk\000"
 8026      5472436D 
 8026      64477253 
 8026      656C4D73 
 8026      6B00
 8027              	.LASF215:
 8028 0fb4 43595F53 		.ascii	"CY_SCB_I2C_MASTER_MANUAL_ADDR_NAK\000"
 8028      43425F49 
 8028      32435F4D 
 8028      41535445 
 8028      525F4D41 
 8029              	.LASF235:
 8030 0fd6 6D617374 		.ascii	"masterBuffer\000"
 8030      65724275 
 8030      66666572 
 8030      00
 8031              	.LASF146:
 8032 0fe3 73727373 		.ascii	"srssNumHfroot\000"
 8032      4E756D48 
 8032      66726F6F 
 8032      7400
 8033              	.LASF293:
 8034 0ff1 63795F73 		.ascii	"cy_stc_tcpwm_counter_config_t\000"
 8034      74635F74 
 8034      6370776D 
 8034      5F636F75 
 8034      6E746572 
 8035              	.LASF168:
 8036 100f 64774368 		.ascii	"dwChCtlPreemptablePos\000"
 8036      43746C50 
 8036      7265656D 
 8036      70746162 
 8036      6C65506F 
 8037              	.LASF255:
 8038 1025 72784275 		.ascii	"rxBuf\000"
 8038      6600
 8039              	.LASF91:
 8040 102b 494E5452 		.ascii	"INTR_SPI_EC_MASK\000"
 8040      5F535049 
ARM GAS  C:\Users\jlabe\AppData\Local\Temp\ccJbzXZ1.s 			page 187


 8040      5F45435F 
 8040      4D41534B 
 8040      00
 8041              	.LASF384:
 8042 103c 4D415833 		.ascii	"MAX30102ReadFIFO32bits\000"
 8042      30313032 
 8042      52656164 
 8042      4649464F 
 8042      33326269 
 8043              	.LASF21:
 8044 1053 73697A65 		.ascii	"sizetype\000"
 8044      74797065 
 8044      00
 8045              	.LASF62:
 8046 105c 4932435F 		.ascii	"I2C_S_CMD\000"
 8046      535F434D 
 8046      4400
 8047              	.LASF197:
 8048 1066 63707573 		.ascii	"cpussCm4NmiCtlOffset\000"
 8048      73436D34 
 8048      4E6D6943 
 8048      746C4F66 
 8048      66736574 
 8049              	.LASF278:
 8050 107b 636F6D70 		.ascii	"compareOrCapture\000"
 8050      6172654F 
 8050      72436170 
 8050      74757265 
 8050      00
 8051              	.LASF179:
 8052 108c 70657269 		.ascii	"periDiv8CtlOffset\000"
 8052      44697638 
 8052      43746C4F 
 8052      66667365 
 8052      7400
 8053              	.LASF58:
 8054 109e 52455345 		.ascii	"RESERVED2\000"
 8054      52564544 
 8054      3200
 8055              	.LASF64:
 8056 10a8 52455345 		.ascii	"RESERVED3\000"
 8056      52564544 
 8056      3300
 8057              	.LASF68:
 8058 10b2 52455345 		.ascii	"RESERVED4\000"
 8058      52564544 
 8058      3400
 8059              	.LASF70:
 8060 10bc 52455345 		.ascii	"RESERVED5\000"
 8060      52564544 
 8060      3500
 8061              	.LASF74:
 8062 10c6 52455345 		.ascii	"RESERVED6\000"
 8062      52564544 
 8062      3600
 8063              	.LASF316:
 8064 10d0 424D4931 		.ascii	"BMI160_BOTH_ACCEL_AND_GYRO\000"
ARM GAS  C:\Users\jlabe\AppData\Local\Temp\ccJbzXZ1.s 			page 188


 8064      36305F42 
 8064      4F54485F 
 8064      41434345 
 8064      4C5F414E 
 8065              	.LASF79:
 8066 10eb 52455345 		.ascii	"RESERVED8\000"
 8066      52564544 
 8066      3800
 8067              	.LASF81:
 8068 10f5 52455345 		.ascii	"RESERVED9\000"
 8068      52564544 
 8068      3900
 8069              	.LASF303:
 8070 10ff 6B696C6C 		.ascii	"killMode\000"
 8070      4D6F6465 
 8070      00
 8071              	.LASF281:
 8072 1108 656E6162 		.ascii	"enableCompareSwap\000"
 8072      6C65436F 
 8072      6D706172 
 8072      65537761 
 8072      7000
 8073              	.LASF365:
 8074 111a 4932435F 		.ascii	"I2C_1_MasterSendStart\000"
 8074      315F4D61 
 8074      73746572 
 8074      53656E64 
 8074      53746172 
 8075              	.LASF9:
 8076 1130 6C6F6E67 		.ascii	"long int\000"
 8076      20696E74 
 8076      00
 8077              	.LASF128:
 8078 1139 63707573 		.ascii	"cpussVersion\000"
 8078      73566572 
 8078      73696F6E 
 8078      00
 8079              	.LASF60:
 8080 1146 4932435F 		.ascii	"I2C_STATUS\000"
 8080      53544154 
 8080      555300
 8081              	.LASF291:
 8082 1151 636F756E 		.ascii	"countInputMode\000"
 8082      74496E70 
 8082      75744D6F 
 8082      646500
 8083              	.LASF132:
 8084 1160 6770696F 		.ascii	"gpioVersion\000"
 8084      56657273 
 8084      696F6E00 
 8085              	.LASF333:
 8086 116c 6C656E67 		.ascii	"length\000"
 8086      746800
 8087              	.LASF107:
 8088 1173 494E5452 		.ascii	"INTR_TX_MASKED\000"
 8088      5F54585F 
 8088      4D41534B 
ARM GAS  C:\Users\jlabe\AppData\Local\Temp\ccJbzXZ1.s 			page 189


 8088      454400
 8089              	.LASF131:
 8090 1182 666C6173 		.ascii	"flashcVersion\000"
 8090      68635665 
 8090      7273696F 
 8090      6E00
 8091              	.LASF153:
 8092 1190 70726F74 		.ascii	"protBusMasterMask\000"
 8092      4275734D 
 8092      61737465 
 8092      724D6173 
 8092      6B00
 8093              	.LASF122:
 8094 11a2 70726F74 		.ascii	"protBase\000"
 8094      42617365 
 8094      00
 8095              	.LASF277:
 8096 11ab 636F756E 		.ascii	"countDirection\000"
 8096      74446972 
 8096      65637469 
 8096      6F6E00
 8097              	.LASF36:
 8098 11ba 4750494F 		.ascii	"GPIO_PRT_V1_Type\000"
 8098      5F505254 
 8098      5F56315F 
 8098      54797065 
 8098      00
 8099              	.LASF383:
 8100 11cb 74656D70 		.ascii	"temp\000"
 8100      00
 8101              	.LASF321:
 8102 11d0 6175785F 		.ascii	"aux_sensor_enable\000"
 8102      73656E73 
 8102      6F725F65 
 8102      6E61626C 
 8102      6500
 8103              	.LASF369:
 8104 11e2 6465765F 		.ascii	"dev_addr\000"
 8104      61646472 
 8104      00
 8105              	.LASF216:
 8106 11eb 43595F53 		.ascii	"CY_SCB_I2C_MASTER_MANUAL_NAK\000"
 8106      43425F49 
 8106      32435F4D 
 8106      41535445 
 8106      525F4D41 
 8107              	.LASF205:
 8108 1208 63686172 		.ascii	"char_t\000"
 8108      5F7400
 8109              	.LASF322:
 8110 120f 6D616E75 		.ascii	"manual_enable\000"
 8110      616C5F65 
 8110      6E61626C 
 8110      6500
 8111              	.LASF26:
 8112 121d 494E5452 		.ascii	"INTR_MASK\000"
 8112      5F4D4153 
ARM GAS  C:\Users\jlabe\AppData\Local\Temp\ccJbzXZ1.s 			page 190


 8112      4B00
 8113              	.LASF104:
 8114 1227 494E5452 		.ascii	"INTR_TX\000"
 8114      5F545800 
 8115              	.LASF56:
 8116 122f 55415254 		.ascii	"UART_RX_STATUS\000"
 8116      5F52585F 
 8116      53544154 
 8116      555300
 8117              	.LASF271:
 8118 123e 74784C65 		.ascii	"txLeftToTransmit\000"
 8118      6674546F 
 8118      5472616E 
 8118      736D6974 
 8118      00
 8119              	.LASF373:
 8120 124f 4D415833 		.ascii	"MAX30102Read\000"
 8120      30313032 
 8120      52656164 
 8120      00
 8121              	.LASF159:
 8122 125c 666C6173 		.ascii	"flashEraseDelay\000"
 8122      68457261 
 8122      73654465 
 8122      6C617900 
 8123              	.LASF376:
 8124 126c 4D415833 		.ascii	"MAX30102ReadMultipleBytes\000"
 8124      30313032 
 8124      52656164 
 8124      4D756C74 
 8124      69706C65 
 8125              	.LASF24:
 8126 1286 4F55545F 		.ascii	"OUT_INV\000"
 8126      494E5600 
 8127              	.LASF192:
 8128 128e 63707573 		.ascii	"cpussCm4PwrCtlOffset\000"
 8128      73436D34 
 8128      50777243 
 8128      746C4F66 
 8128      66736574 
 8129              	.LASF3:
 8130 12a3 5F5F7569 		.ascii	"__uint8_t\000"
 8130      6E74385F 
 8130      7400
 8131              	.LASF407:
 8132 12ad 43795F53 		.ascii	"Cy_SCB_I2C_MasterReadByte\000"
 8132      43425F49 
 8132      32435F4D 
 8132      61737465 
 8132      72526561 
 8133              	.LASF66:
 8134 12c7 54585F46 		.ascii	"TX_FIFO_CTRL\000"
 8134      49464F5F 
 8134      4354524C 
 8134      00
 8135              	.LASF353:
 8136 12d4 72656164 		.ascii	"read\000"
ARM GAS  C:\Users\jlabe\AppData\Local\Temp\ccJbzXZ1.s 			page 191


 8136      00
 8137              	.LASF221:
 8138 12d9 43595F53 		.ascii	"CY_SCB_I2C_WRITE_XFER\000"
 8138      43425F49 
 8138      32435F57 
 8138      52495445 
 8138      5F584645 
 8139              	.LASF92:
 8140 12ef 494E5452 		.ascii	"INTR_SPI_EC_MASKED\000"
 8140      5F535049 
 8140      5F45435F 
 8140      4D41534B 
 8140      454400
 8141              	.LASF183:
 8142 1302 6770696F 		.ascii	"gpioPrtIntrCfgOffset\000"
 8142      50727449 
 8142      6E747243 
 8142      66674F66 
 8142      66736574 
 8143              	.LASF51:
 8144 1317 5350495F 		.ascii	"SPI_CTRL\000"
 8144      4354524C 
 8144      00
 8145              	.LASF331:
 8146 1320 626D6931 		.ascii	"bmi160_fifo_frame\000"
 8146      36305F66 
 8146      69666F5F 
 8146      6672616D 
 8146      6500
 8147              	.LASF219:
 8148 1332 43595F53 		.ascii	"CY_SCB_I2C_MASTER_MANUAL_ABORT_START\000"
 8148      43425F49 
 8148      32435F4D 
 8148      41535445 
 8148      525F4D41 
 8149              	.LASF361:
 8150 1357 4932435F 		.ascii	"I2C_1_MasterSendReStart\000"
 8150      315F4D61 
 8150      73746572 
 8150      53656E64 
 8150      52655374 
 8151              	.LASF2:
 8152 136f 5F5F696E 		.ascii	"__int8_t\000"
 8152      74385F74 
 8152      00
 8153              	.LASF189:
 8154 1378 63707573 		.ascii	"cpussCm4ClockCtlOffset\000"
 8154      73436D34 
 8154      436C6F63 
 8154      6B43746C 
 8154      4F666673 
 8155              	.LASF27:
 8156 138f 494E5452 		.ascii	"INTR_MASKED\000"
 8156      5F4D4153 
 8156      4B454400 
 8157              	.LASF71:
 8158 139b 52585F43 		.ascii	"RX_CTRL\000"
ARM GAS  C:\Users\jlabe\AppData\Local\Temp\ccJbzXZ1.s 			page 192


 8158      54524C00 
 8159              	.LASF307:
 8160 13a3 6B696C6C 		.ascii	"killInput\000"
 8160      496E7075 
 8160      7400
 8161              	.LASF194:
 8162 13ad 63707573 		.ascii	"cpussTrimRomCtlOffset\000"
 8162      73547269 
 8162      6D526F6D 
 8162      43746C4F 
 8162      66667365 
 8163              	.LASF220:
 8164 13c3 63795F65 		.ascii	"cy_en_scb_i2c_status_t\000"
 8164      6E5F7363 
 8164      625F6932 
 8164      635F7374 
 8164      61747573 
 8165              	.LASF306:
 8166 13da 6B696C6C 		.ascii	"killInputMode\000"
 8166      496E7075 
 8166      744D6F64 
 8166      6500
 8167              	.LASF59:
 8168 13e8 4932435F 		.ascii	"I2C_CTRL\000"
 8168      4354524C 
 8168      00
 8169              	.LASF133:
 8170 13f1 6873696F 		.ascii	"hsiomVersion\000"
 8170      6D566572 
 8170      73696F6E 
 8170      00
 8171              	.LASF325:
 8172 13fe 6175785F 		.ascii	"aux_i2c_addr\000"
 8172      6932635F 
 8172      61646472 
 8172      00
 8173              	.LASF11:
 8174 140b 6C6F6E67 		.ascii	"long unsigned int\000"
 8174      20756E73 
 8174      69676E65 
 8174      6420696E 
 8174      7400
 8175              	.LASF362:
 8176 141d 61646472 		.ascii	"address\000"
 8176      65737300 
 8177              	.LASF94:
 8178 1425 494E5452 		.ascii	"INTR_M\000"
 8178      5F4D00
 8179              	.LASF198:
 8180 142c 63707573 		.ascii	"cpussRomCtl\000"
 8180      73526F6D 
 8180      43746C00 
 8181              	.LASF387:
 8182 1438 6368616E 		.ascii	"change_RED_LED_amp\000"
 8182      67655F52 
 8182      45445F4C 
 8182      45445F61 
ARM GAS  C:\Users\jlabe\AppData\Local\Temp\ccJbzXZ1.s 			page 193


 8182      6D7000
 8183              	.LASF207:
 8184 144b 666C6F61 		.ascii	"float\000"
 8184      7400
 8185              	.LASF99:
 8186 1451 494E5452 		.ascii	"INTR_S\000"
 8186      5F5300
 8187              	.LASF356:
 8188 1458 4932435F 		.ascii	"I2C_1_MasterSendStop\000"
 8188      315F4D61 
 8188      73746572 
 8188      53656E64 
 8188      53746F70 
 8189              	.LASF297:
 8190 146d 64656164 		.ascii	"deadTimeClocks\000"
 8190      54696D65 
 8190      436C6F63 
 8190      6B7300
 8191              	.LASF96:
 8192 147c 494E5452 		.ascii	"INTR_M_MASK\000"
 8192      5F4D5F4D 
 8192      41534B00 
 8193              	.LASF360:
 8194 1488 62797465 		.ascii	"byte\000"
 8194      00
 8195              	.LASF385:
 8196 148d 4D415833 		.ascii	"MAX30102Config\000"
 8196      30313032 
 8196      436F6E66 
 8196      696700
 8197              	.LASF315:
 8198 149c 424D4931 		.ascii	"BMI160_GYRO_ONLY\000"
 8198      36305F47 
 8198      59524F5F 
 8198      4F4E4C59 
 8198      00
 8199              	.LASF388:
 8200 14ad 4D415833 		.ascii	"MAX30102ReadTemperature\000"
 8200      30313032 
 8200      52656164 
 8200      54656D70 
 8200      65726174 
 8201              	.LASF191:
 8202 14c5 63707573 		.ascii	"cpussCm0StatusOffset\000"
 8202      73436D30 
 8202      53746174 
 8202      75734F66 
 8202      66736574 
 8203              	.LASF52:
 8204 14da 5350495F 		.ascii	"SPI_STATUS\000"
 8204      53544154 
 8204      555300
 8205              	.LASF402:
 8206 14e5 4932435F 		.ascii	"I2C_2_context\000"
 8206      325F636F 
 8206      6E746578 
 8206      7400
ARM GAS  C:\Users\jlabe\AppData\Local\Temp\ccJbzXZ1.s 			page 194


 8207              	.LASF130:
 8208 14f3 64775665 		.ascii	"dwVersion\000"
 8208      7273696F 
 8208      6E00
 8209              	.LASF4:
 8210 14fd 756E7369 		.ascii	"unsigned char\000"
 8210      676E6564 
 8210      20636861 
 8210      7200
 8211              	.LASF10:
 8212 150b 5F5F7569 		.ascii	"__uint32_t\000"
 8212      6E743332 
 8212      5F7400
 8213              	.LASF115:
 8214 1516 4750494F 		.ascii	"GPIO_Type\000"
 8214      5F547970 
 8214      6500
 8215              	.LASF203:
 8216 1520 6970634C 		.ascii	"ipcLockStatusOffset\000"
 8216      6F636B53 
 8216      74617475 
 8216      734F6666 
 8216      73657400 
 8217              	.LASF292:
 8218 1534 636F756E 		.ascii	"countInput\000"
 8218      74496E70 
 8218      757400
 8219              	.LASF29:
 8220 153f 494E5452 		.ascii	"INTR_CFG\000"
 8220      5F434647 
 8220      00
 8221              	.LASF38:
 8222 1548 494E5452 		.ascii	"INTR_CAUSE1\000"
 8222      5F434155 
 8222      53453100 
 8223              	.LASF48:
 8224 1554 53544154 		.ascii	"STATUS\000"
 8224      555300
 8225              	.LASF83:
 8226 155b 52455345 		.ascii	"RESERVED10\000"
 8226      52564544 
 8226      313000
 8227              	.LASF85:
 8228 1566 52455345 		.ascii	"RESERVED11\000"
 8228      52564544 
 8228      313100
 8229              	.LASF88:
 8230 1571 52455345 		.ascii	"RESERVED12\000"
 8230      52564544 
 8230      313200
 8231              	.LASF90:
 8232 157c 52455345 		.ascii	"RESERVED13\000"
 8232      52564544 
 8232      313300
 8233              	.LASF93:
 8234 1587 52455345 		.ascii	"RESERVED14\000"
 8234      52564544 
ARM GAS  C:\Users\jlabe\AppData\Local\Temp\ccJbzXZ1.s 			page 195


 8234      313400
 8235              	.LASF98:
 8236 1592 52455345 		.ascii	"RESERVED15\000"
 8236      52564544 
 8236      313500
 8237              	.LASF103:
 8238 159d 52455345 		.ascii	"RESERVED16\000"
 8238      52564544 
 8238      313600
 8239              	.LASF108:
 8240 15a8 52455345 		.ascii	"RESERVED17\000"
 8240      52564544 
 8240      313700
 8241              	.LASF73:
 8242 15b3 52585F46 		.ascii	"RX_FIFO_STATUS\000"
 8242      49464F5F 
 8242      53544154 
 8242      555300
 8243              	.LASF380:
 8244 15c2 64617461 		.ascii	"data_red\000"
 8244      5F726564 
 8244      00
 8245              	.LASF231:
 8246 15cb 73746174 		.ascii	"state\000"
 8246      6500
 8247              	.LASF69:
 8248 15d1 54585F46 		.ascii	"TX_FIFO_WR\000"
 8248      49464F5F 
 8248      575200
 8249              	.LASF364:
 8250 15dc 4932435F 		.ascii	"I2C_1_MasterWriteByte\000"
 8250      315F4D61 
 8250      73746572 
 8250      57726974 
 8250      65427974 
 8251              	.LASF313:
 8252 15f2 73656E73 		.ascii	"sensortime\000"
 8252      6F727469 
 8252      6D6500
 8253              	.LASF391:
 8254 15fd 69725F4C 		.ascii	"ir_LED_buffer\000"
 8254      45445F62 
 8254      75666665 
 8254      7200
 8255              	.LASF318:
 8256 160b 706F7765 		.ascii	"power\000"
 8256      7200
 8257              	.LASF155:
 8258 1611 666C6173 		.ascii	"flashRwwRequired\000"
 8258      68527777 
 8258      52657175 
 8258      69726564 
 8258      00
 8259              	.LASF184:
 8260 1622 6770696F 		.ascii	"gpioPrtCfgOffset\000"
 8260      50727443 
 8260      66674F66 
ARM GAS  C:\Users\jlabe\AppData\Local\Temp\ccJbzXZ1.s 			page 196


 8260      66736574 
 8260      00
 8261              	.LASF368:
 8262 1633 70696E4E 		.ascii	"pinNum\000"
 8262      756D00
 8263              	.LASF43:
 8264 163a 5644445F 		.ascii	"VDD_INTR_MASK\000"
 8264      494E5452 
 8264      5F4D4153 
 8264      4B00
 8265              	.LASF1:
 8266 1648 7369676E 		.ascii	"signed char\000"
 8266      65642063 
 8266      68617200 
 8267              	.LASF274:
 8268 1654 70657269 		.ascii	"period\000"
 8268      6F6400
 8269              	.LASF165:
 8270 165b 64774368 		.ascii	"dwChOffset\000"
 8270      4F666673 
 8270      657400
 8271              	.LASF53:
 8272 1666 55415254 		.ascii	"UART_CTRL\000"
 8272      5F435452 
 8272      4C00
 8273              	.LASF138:
 8274 1670 63707573 		.ascii	"cpussIpcIrqNr\000"
 8274      73497063 
 8274      4972714E 
 8274      7200
 8275              	.LASF386:
 8276 167e 4D415833 		.ascii	"MAX30102Reset\000"
 8276      30313032 
 8276      52657365 
 8276      7400
 8277              	.LASF320:
 8278 168c 626D6931 		.ascii	"bmi160_aux_cfg\000"
 8278      36305F61 
 8278      75785F63 
 8278      666700
 8279              	.LASF341:
 8280 169b 736B6970 		.ascii	"skipped_frame_count\000"
 8280      7065645F 
 8280      6672616D 
 8280      655F636F 
 8280      756E7400 
 8281              	.LASF377:
 8282 16af 62617365 		.ascii	"baseAddress\000"
 8282      41646472 
 8282      65737300 
 8283              	.LASF247:
 8284 16bb 736C6176 		.ascii	"slaveRxBufferIdx\000"
 8284      65527842 
 8284      75666665 
 8284      72496478 
 8284      00
 8285              	.LASF366:
ARM GAS  C:\Users\jlabe\AppData\Local\Temp\ccJbzXZ1.s 			page 197


 8286 16cc 43795F47 		.ascii	"Cy_GPIO_Read\000"
 8286      50494F5F 
 8286      52656164 
 8286      00
 8287              	.LASF204:
 8288 16d9 63795F73 		.ascii	"cy_stc_device_t\000"
 8288      74635F64 
 8288      65766963 
 8288      655F7400 
 8289              	.LASF41:
 8290 16e9 5644445F 		.ascii	"VDD_ACTIVE\000"
 8290      41435449 
 8290      564500
 8291              	.LASF337:
 8292 16f4 61636365 		.ascii	"accel_byte_start_idx\000"
 8292      6C5F6279 
 8292      74655F73 
 8292      74617274 
 8292      5F696478 
 8293              	.LASF135:
 8294 1709 70657269 		.ascii	"periVersion\000"
 8294      56657273 
 8294      696F6E00 
 8295              	.LASF253:
 8296 1715 63795F73 		.ascii	"cy_stc_scb_spi_context\000"
 8296      74635F73 
 8296      63625F73 
 8296      70695F63 
 8296      6F6E7465 
 8297              	.LASF209:
 8298 172c 75696E74 		.ascii	"uint8\000"
 8298      3800
 8299              	.LASF208:
 8300 1732 646F7562 		.ascii	"double\000"
 8300      6C6500
 8301              	.LASF125:
 8302 1739 70617373 		.ascii	"passBase\000"
 8302      42617365 
 8302      00
 8303              	.LASF162:
 8304 1742 666C6173 		.ascii	"flashCtlMainWs2Freq\000"
 8304      6843746C 
 8304      4D61696E 
 8304      57733246 
 8304      72657100 
 8305              	.LASF110:
 8306 1756 494E5452 		.ascii	"INTR_RX_SET\000"
 8306      5F52585F 
 8306      53455400 
 8307              	.LASF35:
 8308 1762 52455345 		.ascii	"RESERVED1\000"
 8308      52564544 
 8308      3100
 8309              	.LASF144:
 8310 176c 73727373 		.ascii	"srssNumClkpath\000"
 8310      4E756D43 
 8310      6C6B7061 
ARM GAS  C:\Users\jlabe\AppData\Local\Temp\ccJbzXZ1.s 			page 198


 8310      746800
 8311              	.LASF363:
 8312 177b 62697452 		.ascii	"bitRnW\000"
 8312      6E5700
 8313              	.LASF250:
 8314 1782 63795F73 		.ascii	"cy_stc_scb_i2c_context_t\000"
 8314      74635F73 
 8314      63625F69 
 8314      32635F63 
 8314      6F6E7465 
 8315              	.LASF32:
 8316 179b 4346475F 		.ascii	"CFG_SIO\000"
 8316      53494F00 
 8317              	.LASF164:
 8318 17a3 666C6173 		.ascii	"flashCtlMainWs4Freq\000"
 8318      6843746C 
 8318      4D61696E 
 8318      57733446 
 8318      72657100 
 8319              	.LASF76:
 8320 17b7 52455345 		.ascii	"RESERVED7\000"
 8320      52564544 
 8320      3700
 8321              	.LASF392:
 8322 17c1 626D6931 		.ascii	"bmi160Init\000"
 8322      3630496E 
 8322      697400
 8323              	.LASF411:
 8324 17cc 626D6931 		.ascii	"bmi160_init\000"
 8324      36305F69 
 8324      6E697400 
 8325              	.LASF77:
 8326 17d8 52585F46 		.ascii	"RX_FIFO_RD\000"
 8326      49464F5F 
 8326      524400
 8327              	.LASF372:
 8328 17e3 424D4931 		.ascii	"BMI160BurstRead\000"
 8328      36304275 
 8328      72737452 
 8328      65616400 
 8329              	.LASF223:
 8330 17f3 63795F65 		.ascii	"cy_en_scb_i2c_direction_t\000"
 8330      6E5F7363 
 8330      625F6932 
 8330      635F6469 
 8330      72656374 
 8331              	.LASF190:
 8332 180d 63707573 		.ascii	"cpussCm4StatusOffset\000"
 8332      73436D34 
 8332      53746174 
 8332      75734F66 
 8332      66736574 
 8333              	.LASF134:
 8334 1822 69706356 		.ascii	"ipcVersion\000"
 8334      65727369 
 8334      6F6E00
 8335              	.LASF323:
ARM GAS  C:\Users\jlabe\AppData\Local\Temp\ccJbzXZ1.s 			page 199


 8336 182d 6175785F 		.ascii	"aux_rd_burst_len\000"
 8336      72645F62 
 8336      75727374 
 8336      5F6C656E 
 8336      00
 8337              	.LASF171:
 8338 183e 70657269 		.ascii	"periTrCmdOffset\000"
 8338      5472436D 
 8338      644F6666 
 8338      73657400 
 8339              	.LASF334:
 8340 184e 6669666F 		.ascii	"fifo_time_enable\000"
 8340      5F74696D 
 8340      655F656E 
 8340      61626C65 
 8340      00
 8341              	.LASF47:
 8342 185f 4354524C 		.ascii	"CTRL\000"
 8342      00
 8343              		.ident	"GCC: (GNU Tools for ARM Embedded Processors) 5.4.1 20160609 (release) [ARM/embedded-5-bran
