ARM GAS  C:\Users\jlabe\AppData\Local\Temp\ccJbzXZ1.s 			page 1


   1              		.syntax unified
   2              		.cpu cortex-m4
   3              		.eabi_attribute 27, 1
   4              		.fpu fpv4-sp-d16
   5              		.eabi_attribute 20, 1
   6              		.eabi_attribute 21, 1
   7              		.eabi_attribute 23, 3
   8              		.eabi_attribute 24, 1
   9              		.eabi_attribute 25, 1
  10              		.eabi_attribute 26, 1
  11              		.eabi_attribute 30, 1
  12              		.eabi_attribute 34, 1
  13              		.eabi_attribute 18, 4
  14              		.thumb
  15              		.syntax unified
  16              		.file	"Communication.c"
  17              		.text
  18              	.Ltext0:
  19              		.cfi_sections	.debug_frame
  20              		.section	.text.BMI160BurstWrite,"ax",%progbits
  21              		.align	2
  22              		.global	BMI160BurstWrite
  23              		.thumb
  24              		.thumb_func
  25              		.type	BMI160BurstWrite, %function
  26              	BMI160BurstWrite:
  27              	.LFB703:
  28              		.file 1 "Communication.c"
   1:Communication.c **** /* Communication
   2:Communication.c **** 
   3:Communication.c **** Notes:
   4:Communication.c **** Baud rate de l'UART: 115200
   5:Communication.c **** Très "inspiré" de l'exemple 3.5 de PSoC 6 101.
   6:Communication.c **** 
   7:Communication.c **** Mises-à-jours: 
   8:Communication.c **** * Tâche de lecture de l'accéléromètre accomplie
   9:Communication.c **** 
  10:Communication.c **** À faire:
  11:Communication.c **** * À personaliser avec les fonctionnalités désirées.
  12:Communication.c **** * Trouver librairie de MAX
  13:Communication.c **** * Lire de MAX
  14:Communication.c **** * Connecter MAX
  15:Communication.c **** 
  16:Communication.c **** Problèmes:
  17:Communication.c **** * le main ne compile pas lol (voir ligne 116).
  18:Communication.c **** */
  19:Communication.c **** 
  20:Communication.c **** 
  21:Communication.c **** #include "project.h"
  22:Communication.c **** #include "FreeRTOS.h"
  23:Communication.c **** #include "task.h"
  24:Communication.c **** #include <stdio.h>
  25:Communication.c **** #include <stdlib.h>
  26:Communication.c **** #include "bmi160.h"
  27:Communication.c **** #include "Communication.h"
  28:Communication.c **** 
  29:Communication.c **** uint8_t MAX30102Read (uint8_t address){
ARM GAS  C:\Users\jlabe\AppData\Local\Temp\ccJbzXZ1.s 			page 2


  30:Communication.c **** 
  31:Communication.c ****     I2C_1_MasterSendStart(MAX30102_I2C_ADDR,CY_SCB_I2C_WRITE_XFER,I2C_TIMEOUT);
  32:Communication.c ****     I2C_1_MasterWriteByte(address,I2C_TIMEOUT);  
  33:Communication.c ****     I2C_1_MasterSendReStart(MAX30102_I2C_ADDR,CY_SCB_I2C_READ_XFER,I2C_TIMEOUT);
  34:Communication.c ****     
  35:Communication.c ****     uint8_t regValue=0;
  36:Communication.c ****     
  37:Communication.c ****     I2C_1_MasterReadByte(CY_SCB_I2C_MASTER_DATA_NAK,(uint8_t*)&regValue,I2C_TIMEOUT);
  38:Communication.c ****     I2C_1_MasterSendStop(I2C_TIMEOUT);  
  39:Communication.c ****     
  40:Communication.c ****     return regValue;
  41:Communication.c ****     
  42:Communication.c **** }
  43:Communication.c **** 
  44:Communication.c **** void MAX30102Write(uint8_t address, uint8_t data){ 
  45:Communication.c ****     
  46:Communication.c ****     I2C_1_MasterSendStart(MAX30102_I2C_ADDR,CY_SCB_I2C_WRITE_XFER,I2C_TIMEOUT);
  47:Communication.c ****     I2C_1_MasterWriteByte(address,I2C_TIMEOUT);        
  48:Communication.c ****     I2C_1_MasterWriteByte(data,I2C_TIMEOUT);         
  49:Communication.c ****     I2C_1_MasterSendStop(I2C_TIMEOUT);   
  50:Communication.c ****     
  51:Communication.c **** } 
  52:Communication.c **** 
  53:Communication.c **** void MAX30102ReadMultipleBytes(uint8_t baseAddress, uint8_t *buffer, uint8_t length)
  54:Communication.c **** {
  55:Communication.c ****     I2C_1_MasterSendStart(MAX30102_I2C_ADDR,CY_SCB_I2C_WRITE_XFER,I2C_TIMEOUT); 
  56:Communication.c ****     I2C_1_MasterWriteByte(baseAddress,I2C_TIMEOUT);       
  57:Communication.c ****     I2C_1_MasterSendReStart(MAX30102_I2C_ADDR,CY_SCB_I2C_READ_XFER,I2C_TIMEOUT);
  58:Communication.c ****     uint8_t idx = 0;
  59:Communication.c ****     for(idx=0 ; idx < length-1 ; idx++){ 
  60:Communication.c ****         I2C_1_MasterReadByte(CY_SCB_I2C_ACK,(uint8_t*)&buffer[idx],I2C_TIMEOUT);  
  61:Communication.c ****     }
  62:Communication.c ****     I2C_1_MasterReadByte(CY_SCB_I2C_NAK,(uint8_t*)&buffer[idx],I2C_TIMEOUT);
  63:Communication.c ****     I2C_1_MasterSendStop(I2C_TIMEOUT); 
  64:Communication.c **** }
  65:Communication.c **** 
  66:Communication.c **** void MAX30102ReadFIFO16bits(uint16_t *data_red, uint16_t *data_ir)
  67:Communication.c **** {
  68:Communication.c ****      
  69:Communication.c ****     //max30102 lit 3 bytes pour red et 3 bytes pour ir (24bit chaque)
  70:Communication.c ****     
  71:Communication.c ****     uint8_t temp_buffer[6]; //contient 3 bytes de red (0,1,2) suivis de 3 bytes de ir (3,4,5)
  72:Communication.c ****     //uint32_t temp;
  73:Communication.c ****     uint16_t temp; //on peut trash 1 byte si faible courant dans LED
  74:Communication.c ****     
  75:Communication.c ****     MAX30102Read(REG_INTR_STATUS_1);
  76:Communication.c ****         for (int i = 0 ; i < BUFFER_SIZE ; i++){
  77:Communication.c ****             data_red[i] = 0; //initialisation
  78:Communication.c ****             data_ir[i] = 0;
  79:Communication.c ****             
  80:Communication.c ****       
  81:Communication.c ****             MAX30102ReadMultipleBytes(REG_FIFO_DATA, &temp_buffer, 6);
  82:Communication.c ****             
  83:Communication.c ****             temp = temp_buffer[0]; //remplissage de 8bits
  84:Communication.c ****             temp <<= 16; //bitshift de 16bits (supprime un byte si 16bit)
  85:Communication.c ****             data_red[i] += temp; //ajout de 8 nouveau bits
  86:Communication.c ****             temp = temp_buffer[1]; //remplissage de 8bits
ARM GAS  C:\Users\jlabe\AppData\Local\Temp\ccJbzXZ1.s 			page 3


  87:Communication.c ****             temp <<= 8; //bitshift de 8bits
  88:Communication.c ****             data_red[i] += temp; //ajout de 8 nouveau bits
  89:Communication.c ****             temp = temp_buffer[2]; //remplissage de 8bits
  90:Communication.c ****             data_red[i] += temp; //ajout de 8bits pour un total de 24bits sur 32
  91:Communication.c ****             
  92:Communication.c ****             temp = temp_buffer[3]; //idem
  93:Communication.c ****             temp <<= 16;
  94:Communication.c ****             data_ir[i] += temp;
  95:Communication.c ****             temp = temp_buffer[4];
  96:Communication.c ****             temp <<= 8;
  97:Communication.c ****             data_ir[i] += temp;
  98:Communication.c ****             temp = temp_buffer[5];
  99:Communication.c ****             data_ir[i] += temp;
 100:Communication.c ****             
 101:Communication.c ****             data_ir[i] &= UN_MIN; //Masque MSB
 102:Communication.c ****             data_red[i] &= UN_MIN;
 103:Communication.c ****         }
 104:Communication.c **** }
 105:Communication.c **** 
 106:Communication.c **** 
 107:Communication.c **** void MAX30102ReadFIFO32bits(uint32_t *data_red, uint32_t *data_ir)
 108:Communication.c **** {
 109:Communication.c **** 
 110:Communication.c ****     //max30102 lit 3 bytes pour red et 3 bytes pour ir (24bit chaque)
 111:Communication.c ****     
 112:Communication.c ****     uint8_t temp_buffer[6]; //contient 3 bytes de red (0,1,2) suivis de 3 bytes de ir (3,4,5)
 113:Communication.c ****     uint32_t temp; 
 114:Communication.c ****     
 115:Communication.c ****     //while(MAX30102Read(REG_INTR_STATUS_1) == 0x40)
 116:Communication.c ****     
 117:Communication.c ****     *data_red = 0; //initialisation
 118:Communication.c ****     *data_ir = 0;
 119:Communication.c **** 
 120:Communication.c ****     MAX30102ReadMultipleBytes(REG_FIFO_DATA, temp_buffer, 6);
 121:Communication.c ****     
 122:Communication.c ****     temp = temp_buffer[0]; //remplissage de 8bits
 123:Communication.c ****     temp <<= 16; //bitshift de 16bits (supprime un byte si 16bit)
 124:Communication.c ****     *data_red += temp; //ajout de 8 nouveau bits
 125:Communication.c ****     temp = temp_buffer[1]; //remplissage de 8bits
 126:Communication.c ****     temp <<= 8; //bitshift de 8bits
 127:Communication.c ****     *data_red += temp; //ajout de 8 nouveau bits
 128:Communication.c ****     temp = temp_buffer[2]; //remplissage de 8bits
 129:Communication.c ****     *data_red += temp; //ajout de 8bits pour un total de 24bits sur 32
 130:Communication.c ****     
 131:Communication.c ****     temp = temp_buffer[3]; //idem
 132:Communication.c ****     temp <<= 16;
 133:Communication.c ****     *data_ir += temp;
 134:Communication.c ****     temp = temp_buffer[4];
 135:Communication.c ****     temp <<= 8;
 136:Communication.c ****     *data_ir += temp;
 137:Communication.c ****     temp = temp_buffer[5];
 138:Communication.c ****     *data_ir += temp;
 139:Communication.c ****     
 140:Communication.c ****     *data_ir &= UN_MIN; //Masque MSB
 141:Communication.c ****     *data_red &= UN_MIN;
 142:Communication.c ****     
 143:Communication.c **** }
ARM GAS  C:\Users\jlabe\AppData\Local\Temp\ccJbzXZ1.s 			page 4


 144:Communication.c **** 
 145:Communication.c **** void MAX30102Config()
 146:Communication.c **** {
 147:Communication.c ****     //REG_INTR_ENABLE_1
 148:Communication.c ****     //PARAMS: A_FULL, PPG_RDY, ALC_OVF    
 149:Communication.c ****     MAX30102Write(REG_INTR_ENABLE_1,
 150:Communication.c ****         (A_FULL_YES << A_FULL_RM_BIT)|(PPG_RDY_YES << PPG_RDY_RM_BIT)
 151:Communication.c ****         |(ALC_OVF_NO << ALC_OVF_RM_BIT));
 152:Communication.c ****     
 153:Communication.c ****     //REG_INTR_ENABLE_2
 154:Communication.c ****     //PARAMS: DIE_TEMP_READY
 155:Communication.c ****     MAX30102Write(REG_INTR_ENABLE_2,
 156:Communication.c ****         (DIE_TEMP_READY_NO << DIE_TEMP_READY_RM_BIT));
 157:Communication.c **** 
 158:Communication.c ****     //REG_FIFO_WR_PTR
 159:Communication.c ****     //PARAMS: Position du pointeur FIFO pour l'écriture (de 0 à 4)
 160:Communication.c ****     MAX30102Write(REG_FIFO_WR_PTR,0x00); 
 161:Communication.c **** 
 162:Communication.c ****     //REG_OVF_COUNTER
 163:Communication.c ****     //PARAMS: Nombre de samples perdus lorsqu'on lit un FIFO remplis (de 0 à 4 pour 0-31 perdus).
 164:Communication.c ****     MAX30102Write(REG_OVF_COUNTER,0x00); 
 165:Communication.c ****     
 166:Communication.c ****     //REG_FIFO_RD_PTR
 167:Communication.c ****     //PARAMS: Position du pointeur FIFO pour l'écriture (de 0 à 4)
 168:Communication.c ****     MAX30102Write(REG_FIFO_RD_PTR,0x00);  
 169:Communication.c **** 
 170:Communication.c ****     //REG_FIFO_CONFIG
 171:Communication.c ****     //PARAMS: SMP_AVE, FIFO_ROLLOVER_EN, FIFO_A_FULL
 172:Communication.c ****     MAX30102Write(REG_FIFO_CONFIG,
 173:Communication.c ****         (SMP_AVE_2 << SMP_AVE_RM_BIT) | (FIFO_ROLLOVER_EN_0 << FIFO_A_FULL_RM_BIT)
 174:Communication.c ****         | (FIFO_A_FULL_15 << FIFO_A_FULL_RM_BIT));
 175:Communication.c **** 
 176:Communication.c ****     //REG_MODE_CONFIG
 177:Communication.c ****     //PARAMS: SHDN, RESET, MODE
 178:Communication.c ****     MAX30102Write(REG_MODE_CONFIG,
 179:Communication.c ****     (SHDN_NO << SHDN_RM_BIT)|(RESET_NO << RESET_RM_BIT)|(MODE_SPO2 << MODE_RM_BIT));
 180:Communication.c **** 
 181:Communication.c ****     //REG_SPO2_CONFIG
 182:Communication.c ****     //PARAMS: SPO2_ADC_RGE, SPO2_SR, LED_PW
 183:Communication.c ****     MAX30102Write(REG_SPO2_CONFIG,
 184:Communication.c ****     (SPO2_ADC_RGE_4096 << 5)|(SPO2_SR_100 << 2)|(LED_PW_411));
 185:Communication.c **** 
 186:Communication.c ****     //REG_LED1_PA
 187:Communication.c ****     MAX30102Write(REG_LED1_PA,(uint8_t) 2/0.2);   
 188:Communication.c **** 
 189:Communication.c ****     //REG_LED2_PA
 190:Communication.c ****     MAX30102Write(REG_LED2_PA,(uint8_t) 2/0.2);   
 191:Communication.c **** 
 192:Communication.c ****     //REG_PILOT_PA
 193:Communication.c ****     MAX30102Write(REG_PILOT_PA,(uint8_t) 25/0.2); 
 194:Communication.c ****     
 195:Communication.c ****     //REG_TEMP_CONFIG
 196:Communication.c ****     MAX30102Write(REG_TEMP_CONFIG,TEMP_EN_YES << TEMP_EN_RM_BIT);
 197:Communication.c **** 
 198:Communication.c **** }
 199:Communication.c **** 
 200:Communication.c **** void MAX30102Reset(){
ARM GAS  C:\Users\jlabe\AppData\Local\Temp\ccJbzXZ1.s 			page 5


 201:Communication.c ****     MAX30102Write(REG_MODE_CONFIG, RESET_YES << RESET_RM_BIT);
 202:Communication.c **** }
 203:Communication.c **** 
 204:Communication.c **** void change_RED_LED_amp(uint8_t amp){
 205:Communication.c ****     
 206:Communication.c ****     MAX30102Write(REG_LED1_PA, amp); 
 207:Communication.c **** }
 208:Communication.c **** 
 209:Communication.c **** void MAX30102ReadTemperature(uint8_t *buffer){
 210:Communication.c ****     
 211:Communication.c ****     MAX30102ReadMultipleBytes(REG_TEMP_INTR, buffer, 8);
 212:Communication.c **** 
 213:Communication.c **** }
 214:Communication.c **** 
 215:Communication.c **** 
 216:Communication.c **** void MAX30102Task(void *arg){
 217:Communication.c ****     (void)arg;
 218:Communication.c ****     
 219:Communication.c ****     uint32_t red_LED_buffer [BUFFER_SIZE];
 220:Communication.c ****     uint32_t ir_LED_buffer [BUFFER_SIZE]; 
 221:Communication.c ****     uint16_t i = 0;
 222:Communication.c ****     //uint8_t temperature;
 223:Communication.c ****     
 224:Communication.c ****     while(1){
 225:Communication.c ****         if(i != BUFFER_SIZE){
 226:Communication.c ****             i++;
 227:Communication.c ****         }
 228:Communication.c ****         while(Cy_GPIO_Read(GPIO_PRT13,7u) == 1){};
 229:Communication.c ****         MAX30102ReadFIFO32bits(&red_LED_buffer[i], &ir_LED_buffer[i]);
 230:Communication.c ****         printf("i: %u RED : %u  IR  : %u  \r\n",i,red_LED_buffer[i],ir_LED_buffer[i]);
 231:Communication.c **** 
 232:Communication.c ****         vTaskDelay(10);
 233:Communication.c ****         
 234:Communication.c ****     }
 235:Communication.c **** }
 236:Communication.c **** 
 237:Communication.c **** struct bmi160_dev bmi160Dev;
 238:Communication.c **** 
 239:Communication.c **** int8_t BMI160BurstWrite(uint8_t dev_addr, uint8_t reg_addr,uint8_t *data, uint16_t len)
 240:Communication.c **** {  
  29              		.loc 1 240 0
  30              		.cfi_startproc
  31              		@ args = 0, pretend = 0, frame = 0
  32              		@ frame_needed = 0, uses_anonymous_args = 0
  33              	.LVL0:
  34 0000 2DE9F041 		push	{r4, r5, r6, r7, r8, lr}
  35              		.cfi_def_cfa_offset 24
  36              		.cfi_offset 4, -24
  37              		.cfi_offset 5, -20
  38              		.cfi_offset 6, -16
  39              		.cfi_offset 7, -12
  40              		.cfi_offset 8, -8
  41              		.cfi_offset 14, -4
  42 0004 82B0     		sub	sp, sp, #8
  43              		.cfi_def_cfa_offset 32
  44 0006 8846     		mov	r8, r1
  45 0008 1646     		mov	r6, r2
ARM GAS  C:\Users\jlabe\AppData\Local\Temp\ccJbzXZ1.s 			page 6


  46 000a 1D46     		mov	r5, r3
 241:Communication.c ****     Cy_SCB_I2C_MasterSendStart(I2C_2_HW,dev_addr,CY_SCB_I2C_WRITE_XFER,0,&I2C_2_context);
  47              		.loc 1 241 0
  48 000c 114C     		ldr	r4, .L5
  49 000e 124F     		ldr	r7, .L5+4
  50 0010 0097     		str	r7, [sp]
  51 0012 0023     		movs	r3, #0
  52              	.LVL1:
  53 0014 1A46     		mov	r2, r3
  54              	.LVL2:
  55 0016 0146     		mov	r1, r0
  56              	.LVL3:
  57 0018 2046     		mov	r0, r4
  58              	.LVL4:
  59 001a FFF7FEFF 		bl	Cy_SCB_I2C_MasterSendStart
  60              	.LVL5:
 242:Communication.c ****     Cy_SCB_I2C_MasterWriteByte(I2C_2_HW,reg_addr,0,&I2C_2_context);
  61              		.loc 1 242 0
  62 001e 3B46     		mov	r3, r7
  63 0020 0022     		movs	r2, #0
  64 0022 4146     		mov	r1, r8
  65 0024 2046     		mov	r0, r4
  66 0026 FFF7FEFF 		bl	Cy_SCB_I2C_MasterWriteByte
  67              	.LVL6:
  68              	.LBB34:
 243:Communication.c ****     for(int i = 0;i<len; i++)
  69              		.loc 1 243 0
  70 002a 0024     		movs	r4, #0
  71 002c 06E0     		b	.L2
  72              	.LVL7:
  73              	.L3:
 244:Communication.c ****     { 
 245:Communication.c ****         Cy_SCB_I2C_MasterWriteByte(I2C_2_HW,data[i],0,&I2C_2_context);
  74              		.loc 1 245 0 discriminator 3
  75 002e 0A4B     		ldr	r3, .L5+4
  76 0030 0022     		movs	r2, #0
  77 0032 315D     		ldrb	r1, [r6, r4]	@ zero_extendqisi2
  78 0034 0748     		ldr	r0, .L5
  79 0036 FFF7FEFF 		bl	Cy_SCB_I2C_MasterWriteByte
  80              	.LVL8:
 243:Communication.c ****     for(int i = 0;i<len; i++)
  81              		.loc 1 243 0 discriminator 3
  82 003a 0134     		adds	r4, r4, #1
  83              	.LVL9:
  84              	.L2:
 243:Communication.c ****     for(int i = 0;i<len; i++)
  85              		.loc 1 243 0 is_stmt 0 discriminator 1
  86 003c AC42     		cmp	r4, r5
  87 003e F6DB     		blt	.L3
  88              	.LBE34:
 246:Communication.c ****     }
 247:Communication.c ****     
 248:Communication.c ****     Cy_SCB_I2C_MasterSendStop(I2C_2_HW,0,&I2C_2_context);
  89              		.loc 1 248 0 is_stmt 1
  90 0040 054A     		ldr	r2, .L5+4
  91 0042 0021     		movs	r1, #0
  92 0044 0348     		ldr	r0, .L5
ARM GAS  C:\Users\jlabe\AppData\Local\Temp\ccJbzXZ1.s 			page 7


  93 0046 FFF7FEFF 		bl	Cy_SCB_I2C_MasterSendStop
  94              	.LVL10:
 249:Communication.c ****     
 250:Communication.c ****     return 0;
 251:Communication.c **** }
  95              		.loc 1 251 0
  96 004a 0020     		movs	r0, #0
  97 004c 02B0     		add	sp, sp, #8
  98              		.cfi_def_cfa_offset 24
  99              		@ sp needed
 100 004e BDE8F081 		pop	{r4, r5, r6, r7, r8, pc}
 101              	.LVL11:
 102              	.L6:
 103 0052 00BF     		.align	2
 104              	.L5:
 105 0054 00006340 		.word	1080229888
 106 0058 00000000 		.word	I2C_2_context
 107              		.cfi_endproc
 108              	.LFE703:
 109              		.size	BMI160BurstWrite, .-BMI160BurstWrite
 110              		.section	.text.BMI160BurstRead,"ax",%progbits
 111              		.align	2
 112              		.global	BMI160BurstRead
 113              		.thumb
 114              		.thumb_func
 115              		.type	BMI160BurstRead, %function
 116              	BMI160BurstRead:
 117              	.LFB704:
 252:Communication.c **** 
 253:Communication.c **** // This function supports the BMP180 library and read I2C Registers
 254:Communication.c **** int8_t BMI160BurstRead(uint8_t dev_addr, uint8_t reg_addr,uint8_t *data, uint16_t len)
 255:Communication.c **** {   
 118              		.loc 1 255 0
 119              		.cfi_startproc
 120              		@ args = 0, pretend = 0, frame = 0
 121              		@ frame_needed = 0, uses_anonymous_args = 0
 122              	.LVL12:
 123 0000 2DE9F043 		push	{r4, r5, r6, r7, r8, r9, lr}
 124              		.cfi_def_cfa_offset 28
 125              		.cfi_offset 4, -28
 126              		.cfi_offset 5, -24
 127              		.cfi_offset 6, -20
 128              		.cfi_offset 7, -16
 129              		.cfi_offset 8, -12
 130              		.cfi_offset 9, -8
 131              		.cfi_offset 14, -4
 132 0004 83B0     		sub	sp, sp, #12
 133              		.cfi_def_cfa_offset 40
 134 0006 8046     		mov	r8, r0
 135 0008 8946     		mov	r9, r1
 136 000a 1646     		mov	r6, r2
 137 000c 1D46     		mov	r5, r3
 256:Communication.c ****     Cy_SCB_I2C_MasterSendStart(I2C_2_HW,dev_addr,CY_SCB_I2C_WRITE_XFER,0,&I2C_2_context);
 138              		.loc 1 256 0
 139 000e 1B4C     		ldr	r4, .L11
 140 0010 1B4F     		ldr	r7, .L11+4
 141 0012 0097     		str	r7, [sp]
ARM GAS  C:\Users\jlabe\AppData\Local\Temp\ccJbzXZ1.s 			page 8


 142 0014 0023     		movs	r3, #0
 143              	.LVL13:
 144 0016 1A46     		mov	r2, r3
 145              	.LVL14:
 146 0018 0146     		mov	r1, r0
 147              	.LVL15:
 148 001a 2046     		mov	r0, r4
 149              	.LVL16:
 150 001c FFF7FEFF 		bl	Cy_SCB_I2C_MasterSendStart
 151              	.LVL17:
 257:Communication.c ****     Cy_SCB_I2C_MasterWriteByte(I2C_2_HW,reg_addr,0,&I2C_2_context);
 152              		.loc 1 257 0
 153 0020 3B46     		mov	r3, r7
 154 0022 0022     		movs	r2, #0
 155 0024 4946     		mov	r1, r9
 156 0026 2046     		mov	r0, r4
 157 0028 FFF7FEFF 		bl	Cy_SCB_I2C_MasterWriteByte
 158              	.LVL18:
 258:Communication.c ****     Cy_SCB_I2C_MasterSendReStart(I2C_2_HW,dev_addr,CY_SCB_I2C_READ_XFER,0,&I2C_2_context);
 159              		.loc 1 258 0
 160 002c 0097     		str	r7, [sp]
 161 002e 0023     		movs	r3, #0
 162 0030 0122     		movs	r2, #1
 163 0032 4146     		mov	r1, r8
 164 0034 2046     		mov	r0, r4
 165 0036 FFF7FEFF 		bl	Cy_SCB_I2C_MasterSendReStart
 166              	.LVL19:
 167              	.LBB35:
 259:Communication.c ****     for(int i = 0;i<len-1; i++)
 168              		.loc 1 259 0
 169 003a 0024     		movs	r4, #0
 170 003c 08E0     		b	.L8
 171              	.LVL20:
 172              	.L9:
 260:Communication.c ****     {
 261:Communication.c ****         Cy_SCB_I2C_MasterReadByte(I2C_2_HW,CY_SCB_I2C_ACK,&data[i],0,&I2C_2_context);
 173              		.loc 1 261 0 discriminator 3
 174 003e 104B     		ldr	r3, .L11+4
 175 0040 0093     		str	r3, [sp]
 176 0042 0023     		movs	r3, #0
 177 0044 3219     		adds	r2, r6, r4
 178 0046 1946     		mov	r1, r3
 179 0048 0C48     		ldr	r0, .L11
 180 004a FFF7FEFF 		bl	Cy_SCB_I2C_MasterReadByte
 181              	.LVL21:
 259:Communication.c ****     for(int i = 0;i<len-1; i++)
 182              		.loc 1 259 0 discriminator 3
 183 004e 0134     		adds	r4, r4, #1
 184              	.LVL22:
 185              	.L8:
 259:Communication.c ****     for(int i = 0;i<len-1; i++)
 186              		.loc 1 259 0 is_stmt 0 discriminator 1
 187 0050 6B1E     		subs	r3, r5, #1
 188 0052 9C42     		cmp	r4, r3
 189 0054 F3DB     		blt	.L9
 190              	.LBE35:
 262:Communication.c ****     }
ARM GAS  C:\Users\jlabe\AppData\Local\Temp\ccJbzXZ1.s 			page 9


 263:Communication.c ****     Cy_SCB_I2C_MasterReadByte(I2C_2_HW,CY_SCB_I2C_NAK,&data[len-1],0,&I2C_2_context);
 191              		.loc 1 263 0 is_stmt 1
 192 0056 1A46     		mov	r2, r3
 193 0058 084C     		ldr	r4, .L11
 194              	.LVL23:
 195 005a 094D     		ldr	r5, .L11+4
 196 005c 0095     		str	r5, [sp]
 197 005e 0023     		movs	r3, #0
 198 0060 3244     		add	r2, r2, r6
 199 0062 0121     		movs	r1, #1
 200 0064 2046     		mov	r0, r4
 201 0066 FFF7FEFF 		bl	Cy_SCB_I2C_MasterReadByte
 202              	.LVL24:
 264:Communication.c ****     
 265:Communication.c ****     Cy_SCB_I2C_MasterSendStop(I2C_2_HW,0,&I2C_2_context);
 203              		.loc 1 265 0
 204 006a 2A46     		mov	r2, r5
 205 006c 0021     		movs	r1, #0
 206 006e 2046     		mov	r0, r4
 207 0070 FFF7FEFF 		bl	Cy_SCB_I2C_MasterSendStop
 208              	.LVL25:
 266:Communication.c **** 
 267:Communication.c ****     return 0;
 268:Communication.c **** }
 209              		.loc 1 268 0
 210 0074 0020     		movs	r0, #0
 211 0076 03B0     		add	sp, sp, #12
 212              		.cfi_def_cfa_offset 28
 213              		@ sp needed
 214 0078 BDE8F083 		pop	{r4, r5, r6, r7, r8, r9, pc}
 215              	.LVL26:
 216              	.L12:
 217              		.align	2
 218              	.L11:
 219 007c 00006340 		.word	1080229888
 220 0080 00000000 		.word	I2C_2_context
 221              		.cfi_endproc
 222              	.LFE704:
 223              		.size	BMI160BurstRead, .-BMI160BurstRead
 224              		.section	.text.MAX30102Read,"ax",%progbits
 225              		.align	2
 226              		.global	MAX30102Read
 227              		.thumb
 228              		.thumb_func
 229              		.type	MAX30102Read, %function
 230              	MAX30102Read:
 231              	.LFB693:
  29:Communication.c **** 
 232              		.loc 1 29 0
 233              		.cfi_startproc
 234              		@ args = 0, pretend = 0, frame = 8
 235              		@ frame_needed = 0, uses_anonymous_args = 0
 236              	.LVL27:
 237 0000 70B5     		push	{r4, r5, r6, lr}
 238              		.cfi_def_cfa_offset 16
 239              		.cfi_offset 4, -16
 240              		.cfi_offset 5, -12
ARM GAS  C:\Users\jlabe\AppData\Local\Temp\ccJbzXZ1.s 			page 10


 241              		.cfi_offset 6, -8
 242              		.cfi_offset 14, -4
 243 0002 84B0     		sub	sp, sp, #16
 244              		.cfi_def_cfa_offset 32
 245 0004 0646     		mov	r6, r0
 246              	.LVL28:
 247              	.LBB36:
 248              	.LBB37:
 249              		.file 2 "Generated_Source\\PSoC6/I2C_1.h"
   1:Generated_Source\PSoC6/I2C_1.h **** /***************************************************************************//**
   2:Generated_Source\PSoC6/I2C_1.h **** * \file I2C_1.c
   3:Generated_Source\PSoC6/I2C_1.h **** * \version 2.0
   4:Generated_Source\PSoC6/I2C_1.h **** *
   5:Generated_Source\PSoC6/I2C_1.h **** *  This file provides constants and parameter values for the I2C component.
   6:Generated_Source\PSoC6/I2C_1.h **** *
   7:Generated_Source\PSoC6/I2C_1.h **** ********************************************************************************
   8:Generated_Source\PSoC6/I2C_1.h **** * \copyright
   9:Generated_Source\PSoC6/I2C_1.h **** * Copyright 2016-2017, Cypress Semiconductor Corporation. All rights reserved.
  10:Generated_Source\PSoC6/I2C_1.h **** * You may use this file only in accordance with the license, terms, conditions,
  11:Generated_Source\PSoC6/I2C_1.h **** * disclaimers, and limitations in the end user license agreement accompanying
  12:Generated_Source\PSoC6/I2C_1.h **** * the software package with which this file was provided.
  13:Generated_Source\PSoC6/I2C_1.h **** *******************************************************************************/
  14:Generated_Source\PSoC6/I2C_1.h **** 
  15:Generated_Source\PSoC6/I2C_1.h **** #if !defined(I2C_1_CY_SCB_I2C_PDL_H)
  16:Generated_Source\PSoC6/I2C_1.h **** #define I2C_1_CY_SCB_I2C_PDL_H
  17:Generated_Source\PSoC6/I2C_1.h **** 
  18:Generated_Source\PSoC6/I2C_1.h **** #include "cyfitter.h"
  19:Generated_Source\PSoC6/I2C_1.h **** #include "scb/cy_scb_i2c.h"
  20:Generated_Source\PSoC6/I2C_1.h **** 
  21:Generated_Source\PSoC6/I2C_1.h **** #if defined(__cplusplus)
  22:Generated_Source\PSoC6/I2C_1.h **** extern "C" {
  23:Generated_Source\PSoC6/I2C_1.h **** #endif
  24:Generated_Source\PSoC6/I2C_1.h **** 
  25:Generated_Source\PSoC6/I2C_1.h **** /***************************************
  26:Generated_Source\PSoC6/I2C_1.h **** *   Initial Parameter Constants
  27:Generated_Source\PSoC6/I2C_1.h **** ****************************************/
  28:Generated_Source\PSoC6/I2C_1.h **** 
  29:Generated_Source\PSoC6/I2C_1.h **** #define I2C_1_MODE               (0x2U)
  30:Generated_Source\PSoC6/I2C_1.h **** #define I2C_1_MODE_SLAVE_MASK    (0x1U)
  31:Generated_Source\PSoC6/I2C_1.h **** #define I2C_1_MODE_MASTER_MASK   (0x2U)
  32:Generated_Source\PSoC6/I2C_1.h **** 
  33:Generated_Source\PSoC6/I2C_1.h **** #define I2C_1_ENABLE_SLAVE       (0UL != (I2C_1_MODE & I2C_1_MODE_SLAVE_MASK))
  34:Generated_Source\PSoC6/I2C_1.h **** #define I2C_1_ENABLE_MASTER      (0UL != (I2C_1_MODE & I2C_1_MODE_MASTER_MASK))
  35:Generated_Source\PSoC6/I2C_1.h **** #define I2C_1_MANUAL_SCL_CONTROL (0U)
  36:Generated_Source\PSoC6/I2C_1.h **** 
  37:Generated_Source\PSoC6/I2C_1.h **** 
  38:Generated_Source\PSoC6/I2C_1.h **** /***************************************
  39:Generated_Source\PSoC6/I2C_1.h **** *        Function Prototypes
  40:Generated_Source\PSoC6/I2C_1.h **** ***************************************/
  41:Generated_Source\PSoC6/I2C_1.h **** /**
  42:Generated_Source\PSoC6/I2C_1.h **** * \addtogroup group_general
  43:Generated_Source\PSoC6/I2C_1.h **** * @{
  44:Generated_Source\PSoC6/I2C_1.h **** */
  45:Generated_Source\PSoC6/I2C_1.h **** /* Component only APIs. */
  46:Generated_Source\PSoC6/I2C_1.h **** void I2C_1_Start(void);
  47:Generated_Source\PSoC6/I2C_1.h **** 
  48:Generated_Source\PSoC6/I2C_1.h **** /* Basic functions. */
ARM GAS  C:\Users\jlabe\AppData\Local\Temp\ccJbzXZ1.s 			page 11


  49:Generated_Source\PSoC6/I2C_1.h **** __STATIC_INLINE cy_en_scb_i2c_status_t I2C_1_Init(cy_stc_scb_i2c_config_t const *config);
  50:Generated_Source\PSoC6/I2C_1.h **** __STATIC_INLINE void I2C_1_DeInit (void);
  51:Generated_Source\PSoC6/I2C_1.h **** __STATIC_INLINE void I2C_1_Enable (void);
  52:Generated_Source\PSoC6/I2C_1.h **** __STATIC_INLINE void I2C_1_Disable(void);
  53:Generated_Source\PSoC6/I2C_1.h **** 
  54:Generated_Source\PSoC6/I2C_1.h **** /* Data rate configuration functions. */
  55:Generated_Source\PSoC6/I2C_1.h **** __STATIC_INLINE uint32_t I2C_1_SetDataRate(uint32_t dataRateHz, uint32_t scbClockHz);
  56:Generated_Source\PSoC6/I2C_1.h **** __STATIC_INLINE uint32_t I2C_1_GetDataRate(uint32_t scbClockHz);
  57:Generated_Source\PSoC6/I2C_1.h **** 
  58:Generated_Source\PSoC6/I2C_1.h **** /* Register callbacks. */
  59:Generated_Source\PSoC6/I2C_1.h **** __STATIC_INLINE void I2C_1_RegisterEventCallback(cy_cb_scb_i2c_handle_events_t callback);
  60:Generated_Source\PSoC6/I2C_1.h **** #if (I2C_1_ENABLE_SLAVE)
  61:Generated_Source\PSoC6/I2C_1.h **** __STATIC_INLINE void I2C_1_RegisterAddrCallback (cy_cb_scb_i2c_handle_addr_t callback);
  62:Generated_Source\PSoC6/I2C_1.h **** #endif /* (I2C_1_ENABLE_SLAVE) */
  63:Generated_Source\PSoC6/I2C_1.h **** 
  64:Generated_Source\PSoC6/I2C_1.h **** /* Configuration functions. */
  65:Generated_Source\PSoC6/I2C_1.h **** #if (I2C_1_ENABLE_SLAVE)
  66:Generated_Source\PSoC6/I2C_1.h **** __STATIC_INLINE void     I2C_1_SlaveSetAddress(uint8_t addr);
  67:Generated_Source\PSoC6/I2C_1.h **** __STATIC_INLINE uint32_t I2C_1_SlaveGetAddress(void);
  68:Generated_Source\PSoC6/I2C_1.h **** __STATIC_INLINE void     I2C_1_SlaveSetAddressMask(uint8_t addrMask);
  69:Generated_Source\PSoC6/I2C_1.h **** __STATIC_INLINE uint32_t I2C_1_SlaveGetAddressMask(void);
  70:Generated_Source\PSoC6/I2C_1.h **** #endif /* (I2C_1_ENABLE_SLAVE) */
  71:Generated_Source\PSoC6/I2C_1.h **** 
  72:Generated_Source\PSoC6/I2C_1.h **** #if (I2C_1_ENABLE_MASTER)
  73:Generated_Source\PSoC6/I2C_1.h **** __STATIC_INLINE void I2C_1_MasterSetLowPhaseDutyCycle (uint32_t clockCycles);
  74:Generated_Source\PSoC6/I2C_1.h **** __STATIC_INLINE void I2C_1_MasterSetHighPhaseDutyCycle(uint32_t clockCycles);
  75:Generated_Source\PSoC6/I2C_1.h **** #endif /* (I2C_1_ENABLE_MASTER) */
  76:Generated_Source\PSoC6/I2C_1.h **** 
  77:Generated_Source\PSoC6/I2C_1.h **** /* Bus status. */
  78:Generated_Source\PSoC6/I2C_1.h **** __STATIC_INLINE bool     I2C_1_IsBusBusy(void);
  79:Generated_Source\PSoC6/I2C_1.h **** 
  80:Generated_Source\PSoC6/I2C_1.h **** /* Slave functions. */
  81:Generated_Source\PSoC6/I2C_1.h **** #if (I2C_1_ENABLE_SLAVE)
  82:Generated_Source\PSoC6/I2C_1.h **** __STATIC_INLINE uint32_t I2C_1_SlaveGetStatus(void);
  83:Generated_Source\PSoC6/I2C_1.h **** 
  84:Generated_Source\PSoC6/I2C_1.h **** __STATIC_INLINE void     I2C_1_SlaveConfigReadBuf(uint8_t *buffer, uint32_t size);
  85:Generated_Source\PSoC6/I2C_1.h **** __STATIC_INLINE void     I2C_1_SlaveAbortRead(void);
  86:Generated_Source\PSoC6/I2C_1.h **** __STATIC_INLINE uint32_t I2C_1_SlaveGetReadTransferCount(void);
  87:Generated_Source\PSoC6/I2C_1.h **** __STATIC_INLINE uint32_t I2C_1_SlaveClearReadStatus(void);
  88:Generated_Source\PSoC6/I2C_1.h **** 
  89:Generated_Source\PSoC6/I2C_1.h **** __STATIC_INLINE void     I2C_1_SlaveConfigWriteBuf(uint8_t *buffer, uint32_t size);
  90:Generated_Source\PSoC6/I2C_1.h **** __STATIC_INLINE void     I2C_1_SlaveAbortWrite(void);
  91:Generated_Source\PSoC6/I2C_1.h **** __STATIC_INLINE uint32_t I2C_1_SlaveGetWriteTransferCount(void);
  92:Generated_Source\PSoC6/I2C_1.h **** __STATIC_INLINE uint32_t I2C_1_SlaveClearWriteStatus(void);
  93:Generated_Source\PSoC6/I2C_1.h **** #endif /* (I2C_1_ENABLE_SLAVE) */
  94:Generated_Source\PSoC6/I2C_1.h **** 
  95:Generated_Source\PSoC6/I2C_1.h **** /* Master interrupt processing functions. */
  96:Generated_Source\PSoC6/I2C_1.h **** #if (I2C_1_ENABLE_MASTER)
  97:Generated_Source\PSoC6/I2C_1.h **** __STATIC_INLINE uint32_t I2C_1_MasterGetStatus(void);
  98:Generated_Source\PSoC6/I2C_1.h **** 
  99:Generated_Source\PSoC6/I2C_1.h **** __STATIC_INLINE cy_en_scb_i2c_status_t I2C_1_MasterRead(cy_stc_scb_i2c_master_xfer_config_t *xferCo
 100:Generated_Source\PSoC6/I2C_1.h **** __STATIC_INLINE void I2C_1_MasterAbortRead(void);
 101:Generated_Source\PSoC6/I2C_1.h **** __STATIC_INLINE cy_en_scb_i2c_status_t I2C_1_MasterWrite(cy_stc_scb_i2c_master_xfer_config_t *xferC
 102:Generated_Source\PSoC6/I2C_1.h **** __STATIC_INLINE void I2C_1_MasterAbortWrite(void);
 103:Generated_Source\PSoC6/I2C_1.h **** __STATIC_INLINE uint32_t I2C_1_MasterGetTransferCount(void);
 104:Generated_Source\PSoC6/I2C_1.h **** 
 105:Generated_Source\PSoC6/I2C_1.h **** /* Master manual processing functions. */
ARM GAS  C:\Users\jlabe\AppData\Local\Temp\ccJbzXZ1.s 			page 12


 106:Generated_Source\PSoC6/I2C_1.h **** __STATIC_INLINE cy_en_scb_i2c_status_t I2C_1_MasterSendStart(uint32_t address, cy_en_scb_i2c_direct
 107:Generated_Source\PSoC6/I2C_1.h **** __STATIC_INLINE cy_en_scb_i2c_status_t I2C_1_MasterSendReStart(uint32_t address, cy_en_scb_i2c_dire
 108:Generated_Source\PSoC6/I2C_1.h **** __STATIC_INLINE cy_en_scb_i2c_status_t I2C_1_MasterSendStop(uint32_t timeoutMs);
 109:Generated_Source\PSoC6/I2C_1.h **** __STATIC_INLINE cy_en_scb_i2c_status_t I2C_1_MasterReadByte(cy_en_scb_i2c_command_t ackNack, uint8_
 110:Generated_Source\PSoC6/I2C_1.h **** __STATIC_INLINE cy_en_scb_i2c_status_t I2C_1_MasterWriteByte(uint8_t byte, uint32_t timeoutMs);
 111:Generated_Source\PSoC6/I2C_1.h **** #endif /* (I2C_1_ENABLE_MASTER) */
 112:Generated_Source\PSoC6/I2C_1.h **** 
 113:Generated_Source\PSoC6/I2C_1.h **** /* Interrupt handler. */
 114:Generated_Source\PSoC6/I2C_1.h **** __STATIC_INLINE void I2C_1_Interrupt(void);
 115:Generated_Source\PSoC6/I2C_1.h **** /** @} group_general */
 116:Generated_Source\PSoC6/I2C_1.h **** 
 117:Generated_Source\PSoC6/I2C_1.h **** 
 118:Generated_Source\PSoC6/I2C_1.h **** /***************************************
 119:Generated_Source\PSoC6/I2C_1.h **** *    Variables with External Linkage
 120:Generated_Source\PSoC6/I2C_1.h **** ***************************************/
 121:Generated_Source\PSoC6/I2C_1.h **** /**
 122:Generated_Source\PSoC6/I2C_1.h **** * \addtogroup group_globals
 123:Generated_Source\PSoC6/I2C_1.h **** * @{
 124:Generated_Source\PSoC6/I2C_1.h **** */
 125:Generated_Source\PSoC6/I2C_1.h **** extern uint8_t I2C_1_initVar;
 126:Generated_Source\PSoC6/I2C_1.h **** extern cy_stc_scb_i2c_config_t const I2C_1_config;
 127:Generated_Source\PSoC6/I2C_1.h **** extern cy_stc_scb_i2c_context_t I2C_1_context;
 128:Generated_Source\PSoC6/I2C_1.h **** /** @} group_globals */
 129:Generated_Source\PSoC6/I2C_1.h **** 
 130:Generated_Source\PSoC6/I2C_1.h **** 
 131:Generated_Source\PSoC6/I2C_1.h **** /***************************************
 132:Generated_Source\PSoC6/I2C_1.h **** *         Preprocessor Macros
 133:Generated_Source\PSoC6/I2C_1.h **** ***************************************/
 134:Generated_Source\PSoC6/I2C_1.h **** /**
 135:Generated_Source\PSoC6/I2C_1.h **** * \addtogroup group_macros
 136:Generated_Source\PSoC6/I2C_1.h **** * @{
 137:Generated_Source\PSoC6/I2C_1.h **** */
 138:Generated_Source\PSoC6/I2C_1.h **** /** The pointer to the base address of the SCB instance */
 139:Generated_Source\PSoC6/I2C_1.h **** #define I2C_1_HW     ((CySCB_Type *) I2C_1_SCB__HW)
 140:Generated_Source\PSoC6/I2C_1.h **** 
 141:Generated_Source\PSoC6/I2C_1.h **** /** The desired data rate in Hz */
 142:Generated_Source\PSoC6/I2C_1.h **** #define I2C_1_DATA_RATE_HZ      (100000U)
 143:Generated_Source\PSoC6/I2C_1.h **** 
 144:Generated_Source\PSoC6/I2C_1.h **** /** The frequency of the clock used by the Component in Hz */
 145:Generated_Source\PSoC6/I2C_1.h **** #define I2C_1_CLK_FREQ_HZ       (1538461U)
 146:Generated_Source\PSoC6/I2C_1.h **** 
 147:Generated_Source\PSoC6/I2C_1.h **** /** The number of Component clocks used by the master to generate the SCL
 148:Generated_Source\PSoC6/I2C_1.h **** * low phase. This number is calculated by GUI based on the selected data rate.
 149:Generated_Source\PSoC6/I2C_1.h **** */
 150:Generated_Source\PSoC6/I2C_1.h **** #define I2C_1_LOW_PHASE_DUTY_CYCLE   (8U)
 151:Generated_Source\PSoC6/I2C_1.h **** 
 152:Generated_Source\PSoC6/I2C_1.h **** /** The number of Component clocks used by the master to generate the SCL
 153:Generated_Source\PSoC6/I2C_1.h **** * high phase. This number is calculated by GUI based on the selected data rate.
 154:Generated_Source\PSoC6/I2C_1.h **** */
 155:Generated_Source\PSoC6/I2C_1.h **** #define I2C_1_HIGH_PHASE_DUTY_CYCLE  (8U)
 156:Generated_Source\PSoC6/I2C_1.h **** /** @} group_macros */
 157:Generated_Source\PSoC6/I2C_1.h **** 
 158:Generated_Source\PSoC6/I2C_1.h **** 
 159:Generated_Source\PSoC6/I2C_1.h **** /***************************************
 160:Generated_Source\PSoC6/I2C_1.h **** *    In-line Function Implementation
 161:Generated_Source\PSoC6/I2C_1.h **** ***************************************/
 162:Generated_Source\PSoC6/I2C_1.h **** 
ARM GAS  C:\Users\jlabe\AppData\Local\Temp\ccJbzXZ1.s 			page 13


 163:Generated_Source\PSoC6/I2C_1.h **** /*******************************************************************************
 164:Generated_Source\PSoC6/I2C_1.h **** * Function Name: I2C_1_Init
 165:Generated_Source\PSoC6/I2C_1.h **** ****************************************************************************//**
 166:Generated_Source\PSoC6/I2C_1.h **** *
 167:Generated_Source\PSoC6/I2C_1.h **** * Invokes the Cy_SCB_I2C_Init() PDL driver function.
 168:Generated_Source\PSoC6/I2C_1.h **** *
 169:Generated_Source\PSoC6/I2C_1.h **** *******************************************************************************/
 170:Generated_Source\PSoC6/I2C_1.h **** __STATIC_INLINE cy_en_scb_i2c_status_t I2C_1_Init(cy_stc_scb_i2c_config_t const *config)
 171:Generated_Source\PSoC6/I2C_1.h **** {
 172:Generated_Source\PSoC6/I2C_1.h ****     return Cy_SCB_I2C_Init(I2C_1_HW, config, &I2C_1_context);
 173:Generated_Source\PSoC6/I2C_1.h **** }
 174:Generated_Source\PSoC6/I2C_1.h **** 
 175:Generated_Source\PSoC6/I2C_1.h **** 
 176:Generated_Source\PSoC6/I2C_1.h **** /*******************************************************************************
 177:Generated_Source\PSoC6/I2C_1.h **** *  Function Name: I2C_1_DeInit
 178:Generated_Source\PSoC6/I2C_1.h **** ****************************************************************************//**
 179:Generated_Source\PSoC6/I2C_1.h **** *
 180:Generated_Source\PSoC6/I2C_1.h **** * Invokes the Cy_SCB_I2C_DeInit() PDL driver function.
 181:Generated_Source\PSoC6/I2C_1.h **** *
 182:Generated_Source\PSoC6/I2C_1.h **** *******************************************************************************/
 183:Generated_Source\PSoC6/I2C_1.h **** __STATIC_INLINE void I2C_1_DeInit(void)
 184:Generated_Source\PSoC6/I2C_1.h **** {
 185:Generated_Source\PSoC6/I2C_1.h ****     Cy_SCB_I2C_DeInit(I2C_1_HW);
 186:Generated_Source\PSoC6/I2C_1.h **** }
 187:Generated_Source\PSoC6/I2C_1.h **** 
 188:Generated_Source\PSoC6/I2C_1.h **** 
 189:Generated_Source\PSoC6/I2C_1.h **** /*******************************************************************************
 190:Generated_Source\PSoC6/I2C_1.h **** * Function Name: I2C_1_Enable
 191:Generated_Source\PSoC6/I2C_1.h **** ****************************************************************************//**
 192:Generated_Source\PSoC6/I2C_1.h **** *
 193:Generated_Source\PSoC6/I2C_1.h **** * Invokes the Cy_SCB_I2C_Enable() PDL driver function.
 194:Generated_Source\PSoC6/I2C_1.h **** *
 195:Generated_Source\PSoC6/I2C_1.h **** *******************************************************************************/
 196:Generated_Source\PSoC6/I2C_1.h **** __STATIC_INLINE void I2C_1_Enable(void)
 197:Generated_Source\PSoC6/I2C_1.h **** {
 198:Generated_Source\PSoC6/I2C_1.h ****     Cy_SCB_I2C_Enable(I2C_1_HW);
 199:Generated_Source\PSoC6/I2C_1.h **** }
 200:Generated_Source\PSoC6/I2C_1.h **** 
 201:Generated_Source\PSoC6/I2C_1.h **** 
 202:Generated_Source\PSoC6/I2C_1.h **** /*******************************************************************************
 203:Generated_Source\PSoC6/I2C_1.h **** * Function Name: I2C_1_Disable
 204:Generated_Source\PSoC6/I2C_1.h **** ****************************************************************************//**
 205:Generated_Source\PSoC6/I2C_1.h **** *
 206:Generated_Source\PSoC6/I2C_1.h **** * Invokes the Cy_SCB_I2C_Disable() PDL driver function.
 207:Generated_Source\PSoC6/I2C_1.h **** *
 208:Generated_Source\PSoC6/I2C_1.h **** *******************************************************************************/
 209:Generated_Source\PSoC6/I2C_1.h **** __STATIC_INLINE void I2C_1_Disable(void)
 210:Generated_Source\PSoC6/I2C_1.h **** {
 211:Generated_Source\PSoC6/I2C_1.h ****     Cy_SCB_I2C_Disable(I2C_1_HW, &I2C_1_context);
 212:Generated_Source\PSoC6/I2C_1.h **** }
 213:Generated_Source\PSoC6/I2C_1.h **** 
 214:Generated_Source\PSoC6/I2C_1.h **** 
 215:Generated_Source\PSoC6/I2C_1.h **** /*******************************************************************************
 216:Generated_Source\PSoC6/I2C_1.h **** * Function Name: I2C_1_SetDataRate
 217:Generated_Source\PSoC6/I2C_1.h **** ****************************************************************************//**
 218:Generated_Source\PSoC6/I2C_1.h **** *
 219:Generated_Source\PSoC6/I2C_1.h **** * Invokes the Cy_SCB_I2C_SetDataRate() PDL driver function.
ARM GAS  C:\Users\jlabe\AppData\Local\Temp\ccJbzXZ1.s 			page 14


 220:Generated_Source\PSoC6/I2C_1.h **** *
 221:Generated_Source\PSoC6/I2C_1.h **** *******************************************************************************/
 222:Generated_Source\PSoC6/I2C_1.h **** __STATIC_INLINE uint32_t I2C_1_SetDataRate(uint32_t dataRateHz, uint32_t scbClockHz)
 223:Generated_Source\PSoC6/I2C_1.h **** {
 224:Generated_Source\PSoC6/I2C_1.h ****     return Cy_SCB_I2C_SetDataRate(I2C_1_HW, dataRateHz, scbClockHz);
 225:Generated_Source\PSoC6/I2C_1.h **** }
 226:Generated_Source\PSoC6/I2C_1.h **** 
 227:Generated_Source\PSoC6/I2C_1.h **** 
 228:Generated_Source\PSoC6/I2C_1.h **** /*******************************************************************************
 229:Generated_Source\PSoC6/I2C_1.h **** * Function Name: I2C_1_GetDataRate
 230:Generated_Source\PSoC6/I2C_1.h **** ****************************************************************************//**
 231:Generated_Source\PSoC6/I2C_1.h **** *
 232:Generated_Source\PSoC6/I2C_1.h **** * Invokes the Cy_SCB_I2C_GetDataRate() PDL driver function.
 233:Generated_Source\PSoC6/I2C_1.h **** *
 234:Generated_Source\PSoC6/I2C_1.h **** *******************************************************************************/
 235:Generated_Source\PSoC6/I2C_1.h **** __STATIC_INLINE uint32_t I2C_1_GetDataRate(uint32_t scbClockHz)
 236:Generated_Source\PSoC6/I2C_1.h **** {
 237:Generated_Source\PSoC6/I2C_1.h ****     return Cy_SCB_I2C_GetDataRate(I2C_1_HW, scbClockHz);
 238:Generated_Source\PSoC6/I2C_1.h **** }
 239:Generated_Source\PSoC6/I2C_1.h **** 
 240:Generated_Source\PSoC6/I2C_1.h **** 
 241:Generated_Source\PSoC6/I2C_1.h **** /*******************************************************************************
 242:Generated_Source\PSoC6/I2C_1.h **** * Function Name: I2C_1_RegisterEventCallback
 243:Generated_Source\PSoC6/I2C_1.h **** ****************************************************************************//**
 244:Generated_Source\PSoC6/I2C_1.h **** *
 245:Generated_Source\PSoC6/I2C_1.h **** * Invokes the Cy_SCB_I2C_RegisterEventCallback() PDL driver function.
 246:Generated_Source\PSoC6/I2C_1.h **** *
 247:Generated_Source\PSoC6/I2C_1.h **** *******************************************************************************/
 248:Generated_Source\PSoC6/I2C_1.h **** __STATIC_INLINE void I2C_1_RegisterEventCallback(cy_cb_scb_i2c_handle_events_t callback)
 249:Generated_Source\PSoC6/I2C_1.h **** {
 250:Generated_Source\PSoC6/I2C_1.h ****     Cy_SCB_I2C_RegisterEventCallback(I2C_1_HW, callback, &I2C_1_context);
 251:Generated_Source\PSoC6/I2C_1.h **** }
 252:Generated_Source\PSoC6/I2C_1.h **** 
 253:Generated_Source\PSoC6/I2C_1.h **** 
 254:Generated_Source\PSoC6/I2C_1.h **** #if (I2C_1_ENABLE_SLAVE)
 255:Generated_Source\PSoC6/I2C_1.h **** /*******************************************************************************
 256:Generated_Source\PSoC6/I2C_1.h **** * Function Name: I2C_1_RegisterAddrCallback
 257:Generated_Source\PSoC6/I2C_1.h **** ****************************************************************************//**
 258:Generated_Source\PSoC6/I2C_1.h **** *
 259:Generated_Source\PSoC6/I2C_1.h **** * Invokes the Cy_SCB_I2C_RegisterAddrCallback() PDL driver function.
 260:Generated_Source\PSoC6/I2C_1.h **** *
 261:Generated_Source\PSoC6/I2C_1.h **** *******************************************************************************/
 262:Generated_Source\PSoC6/I2C_1.h **** __STATIC_INLINE void I2C_1_RegisterAddrCallback(cy_cb_scb_i2c_handle_addr_t callback)
 263:Generated_Source\PSoC6/I2C_1.h **** {
 264:Generated_Source\PSoC6/I2C_1.h ****     Cy_SCB_I2C_RegisterAddrCallback(I2C_1_HW, callback, &I2C_1_context);
 265:Generated_Source\PSoC6/I2C_1.h **** }
 266:Generated_Source\PSoC6/I2C_1.h **** #endif /* (I2C_1_ENABLE_SLAVE) */
 267:Generated_Source\PSoC6/I2C_1.h **** 
 268:Generated_Source\PSoC6/I2C_1.h **** 
 269:Generated_Source\PSoC6/I2C_1.h **** /*******************************************************************************
 270:Generated_Source\PSoC6/I2C_1.h **** * Function Name: I2C_1_IsBusBusy
 271:Generated_Source\PSoC6/I2C_1.h **** ****************************************************************************//**
 272:Generated_Source\PSoC6/I2C_1.h **** *
 273:Generated_Source\PSoC6/I2C_1.h **** * Invokes the Cy_SCB_I2C_IsBusBusy() PDL driver function.
 274:Generated_Source\PSoC6/I2C_1.h **** *
 275:Generated_Source\PSoC6/I2C_1.h **** *******************************************************************************/
 276:Generated_Source\PSoC6/I2C_1.h **** __STATIC_INLINE bool I2C_1_IsBusBusy(void)
ARM GAS  C:\Users\jlabe\AppData\Local\Temp\ccJbzXZ1.s 			page 15


 277:Generated_Source\PSoC6/I2C_1.h **** {
 278:Generated_Source\PSoC6/I2C_1.h ****     return Cy_SCB_I2C_IsBusBusy(I2C_1_HW);
 279:Generated_Source\PSoC6/I2C_1.h **** }
 280:Generated_Source\PSoC6/I2C_1.h **** 
 281:Generated_Source\PSoC6/I2C_1.h **** 
 282:Generated_Source\PSoC6/I2C_1.h **** #if (I2C_1_ENABLE_SLAVE)
 283:Generated_Source\PSoC6/I2C_1.h **** /*******************************************************************************
 284:Generated_Source\PSoC6/I2C_1.h **** * Function Name: I2C_1_SlaveSetAddress
 285:Generated_Source\PSoC6/I2C_1.h **** ****************************************************************************//**
 286:Generated_Source\PSoC6/I2C_1.h **** *
 287:Generated_Source\PSoC6/I2C_1.h **** * Invokes the Cy_SCB_I2C_SlaveGetAddress() PDL driver function.
 288:Generated_Source\PSoC6/I2C_1.h **** *
 289:Generated_Source\PSoC6/I2C_1.h **** *******************************************************************************/
 290:Generated_Source\PSoC6/I2C_1.h **** __STATIC_INLINE void I2C_1_SlaveSetAddress(uint8_t addr)
 291:Generated_Source\PSoC6/I2C_1.h **** {
 292:Generated_Source\PSoC6/I2C_1.h ****     Cy_SCB_I2C_SlaveSetAddress(I2C_1_HW, addr);
 293:Generated_Source\PSoC6/I2C_1.h **** }
 294:Generated_Source\PSoC6/I2C_1.h **** 
 295:Generated_Source\PSoC6/I2C_1.h **** 
 296:Generated_Source\PSoC6/I2C_1.h **** /*******************************************************************************
 297:Generated_Source\PSoC6/I2C_1.h **** * Function Name: I2C_1_SlaveGetAddress
 298:Generated_Source\PSoC6/I2C_1.h **** ****************************************************************************//**
 299:Generated_Source\PSoC6/I2C_1.h **** *
 300:Generated_Source\PSoC6/I2C_1.h **** * Invokes the Cy_SCB_I2C_SlaveGetAddress() PDL driver function.
 301:Generated_Source\PSoC6/I2C_1.h **** *
 302:Generated_Source\PSoC6/I2C_1.h **** *******************************************************************************/
 303:Generated_Source\PSoC6/I2C_1.h **** __STATIC_INLINE uint32_t I2C_1_SlaveGetAddress(void)
 304:Generated_Source\PSoC6/I2C_1.h **** {
 305:Generated_Source\PSoC6/I2C_1.h ****     return Cy_SCB_I2C_SlaveGetAddress(I2C_1_HW);
 306:Generated_Source\PSoC6/I2C_1.h **** }
 307:Generated_Source\PSoC6/I2C_1.h **** 
 308:Generated_Source\PSoC6/I2C_1.h **** 
 309:Generated_Source\PSoC6/I2C_1.h **** /*******************************************************************************
 310:Generated_Source\PSoC6/I2C_1.h **** * Function Name: I2C_1_SlaveSetAddressMask
 311:Generated_Source\PSoC6/I2C_1.h **** ****************************************************************************//**
 312:Generated_Source\PSoC6/I2C_1.h **** *
 313:Generated_Source\PSoC6/I2C_1.h **** * Invokes the Cy_SCB_I2C_SlaveSetAddressMask() PDL driver function.
 314:Generated_Source\PSoC6/I2C_1.h **** *
 315:Generated_Source\PSoC6/I2C_1.h **** *******************************************************************************/
 316:Generated_Source\PSoC6/I2C_1.h **** __STATIC_INLINE void I2C_1_SlaveSetAddressMask(uint8_t addrMask)
 317:Generated_Source\PSoC6/I2C_1.h **** {
 318:Generated_Source\PSoC6/I2C_1.h ****     Cy_SCB_I2C_SlaveSetAddressMask(I2C_1_HW, addrMask);
 319:Generated_Source\PSoC6/I2C_1.h **** }
 320:Generated_Source\PSoC6/I2C_1.h **** 
 321:Generated_Source\PSoC6/I2C_1.h **** 
 322:Generated_Source\PSoC6/I2C_1.h **** /*******************************************************************************
 323:Generated_Source\PSoC6/I2C_1.h **** * Function Name: I2C_1_SlaveGetAddressMask
 324:Generated_Source\PSoC6/I2C_1.h **** ****************************************************************************//**
 325:Generated_Source\PSoC6/I2C_1.h **** *
 326:Generated_Source\PSoC6/I2C_1.h **** * Invokes the Cy_SCB_I2C_SlaveGetAddressMask() PDL driver function.
 327:Generated_Source\PSoC6/I2C_1.h **** *
 328:Generated_Source\PSoC6/I2C_1.h **** *******************************************************************************/
 329:Generated_Source\PSoC6/I2C_1.h **** __STATIC_INLINE uint32_t I2C_1_SlaveGetAddressMask(void)
 330:Generated_Source\PSoC6/I2C_1.h **** {
 331:Generated_Source\PSoC6/I2C_1.h ****     return Cy_SCB_I2C_SlaveGetAddressMask(I2C_1_HW);
 332:Generated_Source\PSoC6/I2C_1.h **** }
 333:Generated_Source\PSoC6/I2C_1.h **** #endif /* (I2C_1_ENABLE_SLAVE) */
ARM GAS  C:\Users\jlabe\AppData\Local\Temp\ccJbzXZ1.s 			page 16


 334:Generated_Source\PSoC6/I2C_1.h **** 
 335:Generated_Source\PSoC6/I2C_1.h **** #if (I2C_1_ENABLE_MASTER)
 336:Generated_Source\PSoC6/I2C_1.h **** /*******************************************************************************
 337:Generated_Source\PSoC6/I2C_1.h **** * Function Name: I2C_1_MasterSetLowPhaseDutyCycle
 338:Generated_Source\PSoC6/I2C_1.h **** ****************************************************************************//**
 339:Generated_Source\PSoC6/I2C_1.h **** *
 340:Generated_Source\PSoC6/I2C_1.h **** * Invokes the Cy_SCB_I2C_MasterSetLowPhaseDutyCycle() PDL driver function.
 341:Generated_Source\PSoC6/I2C_1.h **** *
 342:Generated_Source\PSoC6/I2C_1.h **** *******************************************************************************/
 343:Generated_Source\PSoC6/I2C_1.h **** __STATIC_INLINE void I2C_1_MasterSetLowPhaseDutyCycle(uint32_t clockCycles)
 344:Generated_Source\PSoC6/I2C_1.h **** {
 345:Generated_Source\PSoC6/I2C_1.h ****     Cy_SCB_I2C_MasterSetLowPhaseDutyCycle(I2C_1_HW, clockCycles);
 346:Generated_Source\PSoC6/I2C_1.h **** }
 347:Generated_Source\PSoC6/I2C_1.h **** 
 348:Generated_Source\PSoC6/I2C_1.h **** 
 349:Generated_Source\PSoC6/I2C_1.h **** /*******************************************************************************
 350:Generated_Source\PSoC6/I2C_1.h **** * Function Name: I2C_1_MasterSetHighPhaseDutyCycle
 351:Generated_Source\PSoC6/I2C_1.h **** ****************************************************************************//**
 352:Generated_Source\PSoC6/I2C_1.h **** *
 353:Generated_Source\PSoC6/I2C_1.h **** * Invokes the Cy_SCB_I2C_MasterSetHighPhaseDutyCycle() PDL driver function.
 354:Generated_Source\PSoC6/I2C_1.h **** *
 355:Generated_Source\PSoC6/I2C_1.h **** *******************************************************************************/
 356:Generated_Source\PSoC6/I2C_1.h **** __STATIC_INLINE void I2C_1_MasterSetHighPhaseDutyCycle(uint32_t clockCycles)
 357:Generated_Source\PSoC6/I2C_1.h **** {
 358:Generated_Source\PSoC6/I2C_1.h ****     Cy_SCB_I2C_MasterSetHighPhaseDutyCycle(I2C_1_HW, clockCycles);
 359:Generated_Source\PSoC6/I2C_1.h **** }
 360:Generated_Source\PSoC6/I2C_1.h **** #endif /* (I2C_1_ENABLE_MASTER) */
 361:Generated_Source\PSoC6/I2C_1.h **** 
 362:Generated_Source\PSoC6/I2C_1.h **** 
 363:Generated_Source\PSoC6/I2C_1.h **** #if (I2C_1_ENABLE_SLAVE)
 364:Generated_Source\PSoC6/I2C_1.h **** /*******************************************************************************
 365:Generated_Source\PSoC6/I2C_1.h **** * Function Name: I2C_1_SlaveGetStatus
 366:Generated_Source\PSoC6/I2C_1.h **** ****************************************************************************//**
 367:Generated_Source\PSoC6/I2C_1.h **** *
 368:Generated_Source\PSoC6/I2C_1.h **** * Invokes the Cy_SCB_I2C_SlaveGetStatus() PDL driver function.
 369:Generated_Source\PSoC6/I2C_1.h **** *
 370:Generated_Source\PSoC6/I2C_1.h **** *******************************************************************************/
 371:Generated_Source\PSoC6/I2C_1.h **** __STATIC_INLINE uint32_t I2C_1_SlaveGetStatus(void)
 372:Generated_Source\PSoC6/I2C_1.h **** {
 373:Generated_Source\PSoC6/I2C_1.h ****     return Cy_SCB_I2C_SlaveGetStatus(I2C_1_HW, &I2C_1_context);
 374:Generated_Source\PSoC6/I2C_1.h **** }
 375:Generated_Source\PSoC6/I2C_1.h **** 
 376:Generated_Source\PSoC6/I2C_1.h **** 
 377:Generated_Source\PSoC6/I2C_1.h **** /*******************************************************************************
 378:Generated_Source\PSoC6/I2C_1.h **** * Function Name: I2C_1_SlaveConfigReadBuf
 379:Generated_Source\PSoC6/I2C_1.h **** ****************************************************************************//**
 380:Generated_Source\PSoC6/I2C_1.h **** *
 381:Generated_Source\PSoC6/I2C_1.h **** * Invokes the Cy_SCB_I2C_SlaveConfigReadBuf() PDL driver function.
 382:Generated_Source\PSoC6/I2C_1.h **** *
 383:Generated_Source\PSoC6/I2C_1.h **** *******************************************************************************/
 384:Generated_Source\PSoC6/I2C_1.h **** __STATIC_INLINE void I2C_1_SlaveConfigReadBuf(uint8_t *buffer, uint32_t size)
 385:Generated_Source\PSoC6/I2C_1.h **** {
 386:Generated_Source\PSoC6/I2C_1.h ****     Cy_SCB_I2C_SlaveConfigReadBuf(I2C_1_HW, buffer, size, &I2C_1_context);
 387:Generated_Source\PSoC6/I2C_1.h **** }
 388:Generated_Source\PSoC6/I2C_1.h **** 
 389:Generated_Source\PSoC6/I2C_1.h **** 
 390:Generated_Source\PSoC6/I2C_1.h **** /*******************************************************************************
ARM GAS  C:\Users\jlabe\AppData\Local\Temp\ccJbzXZ1.s 			page 17


 391:Generated_Source\PSoC6/I2C_1.h **** * Function Name: I2C_1_SlaveAbortRead
 392:Generated_Source\PSoC6/I2C_1.h **** ****************************************************************************//**
 393:Generated_Source\PSoC6/I2C_1.h **** *
 394:Generated_Source\PSoC6/I2C_1.h **** * Invokes the Cy_SCB_I2C_SlaveAbortRead() PDL driver function.
 395:Generated_Source\PSoC6/I2C_1.h **** *
 396:Generated_Source\PSoC6/I2C_1.h **** *******************************************************************************/
 397:Generated_Source\PSoC6/I2C_1.h **** __STATIC_INLINE void I2C_1_SlaveAbortRead(void)
 398:Generated_Source\PSoC6/I2C_1.h **** {
 399:Generated_Source\PSoC6/I2C_1.h ****     Cy_SCB_I2C_SlaveAbortRead(I2C_1_HW, &I2C_1_context);
 400:Generated_Source\PSoC6/I2C_1.h **** }
 401:Generated_Source\PSoC6/I2C_1.h **** 
 402:Generated_Source\PSoC6/I2C_1.h **** 
 403:Generated_Source\PSoC6/I2C_1.h **** /*******************************************************************************
 404:Generated_Source\PSoC6/I2C_1.h **** * Function Name: I2C_1_SlaveGetReadTransferCount
 405:Generated_Source\PSoC6/I2C_1.h **** ****************************************************************************//**
 406:Generated_Source\PSoC6/I2C_1.h **** *
 407:Generated_Source\PSoC6/I2C_1.h **** * Invokes the Cy_SCB_I2C_SlaveGetReadTransferCount() PDL driver function.
 408:Generated_Source\PSoC6/I2C_1.h **** *
 409:Generated_Source\PSoC6/I2C_1.h **** *******************************************************************************/
 410:Generated_Source\PSoC6/I2C_1.h **** __STATIC_INLINE uint32_t I2C_1_SlaveGetReadTransferCount(void)
 411:Generated_Source\PSoC6/I2C_1.h **** {
 412:Generated_Source\PSoC6/I2C_1.h ****     return Cy_SCB_I2C_SlaveGetReadTransferCount(I2C_1_HW, &I2C_1_context);
 413:Generated_Source\PSoC6/I2C_1.h **** }
 414:Generated_Source\PSoC6/I2C_1.h **** 
 415:Generated_Source\PSoC6/I2C_1.h **** 
 416:Generated_Source\PSoC6/I2C_1.h **** /*******************************************************************************
 417:Generated_Source\PSoC6/I2C_1.h **** * Function Name: I2C_1_SlaveClearReadStatus
 418:Generated_Source\PSoC6/I2C_1.h **** ****************************************************************************//**
 419:Generated_Source\PSoC6/I2C_1.h **** *
 420:Generated_Source\PSoC6/I2C_1.h **** * Invokes the Cy_SCB_I2C_SlaveClearReadStatus() PDL driver function.
 421:Generated_Source\PSoC6/I2C_1.h **** *
 422:Generated_Source\PSoC6/I2C_1.h **** *******************************************************************************/
 423:Generated_Source\PSoC6/I2C_1.h **** __STATIC_INLINE uint32_t I2C_1_SlaveClearReadStatus(void)
 424:Generated_Source\PSoC6/I2C_1.h **** {
 425:Generated_Source\PSoC6/I2C_1.h ****     return Cy_SCB_I2C_SlaveClearReadStatus(I2C_1_HW, &I2C_1_context);
 426:Generated_Source\PSoC6/I2C_1.h **** }
 427:Generated_Source\PSoC6/I2C_1.h **** 
 428:Generated_Source\PSoC6/I2C_1.h **** 
 429:Generated_Source\PSoC6/I2C_1.h **** /*******************************************************************************
 430:Generated_Source\PSoC6/I2C_1.h **** * Function Name: I2C_1_SlaveConfigWriteBuf
 431:Generated_Source\PSoC6/I2C_1.h **** ****************************************************************************//**
 432:Generated_Source\PSoC6/I2C_1.h **** *
 433:Generated_Source\PSoC6/I2C_1.h **** * Invokes the Cy_SCB_I2C_SlaveConfigWriteBuf() PDL driver function.
 434:Generated_Source\PSoC6/I2C_1.h **** *
 435:Generated_Source\PSoC6/I2C_1.h **** *******************************************************************************/
 436:Generated_Source\PSoC6/I2C_1.h **** __STATIC_INLINE void I2C_1_SlaveConfigWriteBuf(uint8_t *buffer, uint32_t size)
 437:Generated_Source\PSoC6/I2C_1.h **** {
 438:Generated_Source\PSoC6/I2C_1.h ****     Cy_SCB_I2C_SlaveConfigWriteBuf(I2C_1_HW, buffer, size, &I2C_1_context);
 439:Generated_Source\PSoC6/I2C_1.h **** }
 440:Generated_Source\PSoC6/I2C_1.h **** 
 441:Generated_Source\PSoC6/I2C_1.h **** 
 442:Generated_Source\PSoC6/I2C_1.h **** /*******************************************************************************
 443:Generated_Source\PSoC6/I2C_1.h **** * Function Name: I2C_1_SlaveAbortWrite
 444:Generated_Source\PSoC6/I2C_1.h **** ****************************************************************************//**
 445:Generated_Source\PSoC6/I2C_1.h **** *
 446:Generated_Source\PSoC6/I2C_1.h **** * Invokes the Cy_SCB_I2C_SlaveAbortWrite() PDL driver function.
 447:Generated_Source\PSoC6/I2C_1.h **** *
ARM GAS  C:\Users\jlabe\AppData\Local\Temp\ccJbzXZ1.s 			page 18


 448:Generated_Source\PSoC6/I2C_1.h **** *******************************************************************************/
 449:Generated_Source\PSoC6/I2C_1.h **** __STATIC_INLINE void I2C_1_SlaveAbortWrite(void)
 450:Generated_Source\PSoC6/I2C_1.h **** {
 451:Generated_Source\PSoC6/I2C_1.h ****     Cy_SCB_I2C_SlaveAbortWrite(I2C_1_HW, &I2C_1_context);
 452:Generated_Source\PSoC6/I2C_1.h **** }
 453:Generated_Source\PSoC6/I2C_1.h **** 
 454:Generated_Source\PSoC6/I2C_1.h **** 
 455:Generated_Source\PSoC6/I2C_1.h **** /*******************************************************************************
 456:Generated_Source\PSoC6/I2C_1.h **** * Function Name: I2C_1_SlaveGetWriteTransferCount
 457:Generated_Source\PSoC6/I2C_1.h **** ****************************************************************************//**
 458:Generated_Source\PSoC6/I2C_1.h **** *
 459:Generated_Source\PSoC6/I2C_1.h **** * Invokes the Cy_SCB_I2C_SlaveGetWriteTransferCount() PDL driver function.
 460:Generated_Source\PSoC6/I2C_1.h **** *
 461:Generated_Source\PSoC6/I2C_1.h **** *******************************************************************************/
 462:Generated_Source\PSoC6/I2C_1.h **** __STATIC_INLINE uint32_t I2C_1_SlaveGetWriteTransferCount(void)
 463:Generated_Source\PSoC6/I2C_1.h **** {
 464:Generated_Source\PSoC6/I2C_1.h ****     return Cy_SCB_I2C_SlaveGetWriteTransferCount(I2C_1_HW, &I2C_1_context);
 465:Generated_Source\PSoC6/I2C_1.h **** }
 466:Generated_Source\PSoC6/I2C_1.h **** 
 467:Generated_Source\PSoC6/I2C_1.h **** 
 468:Generated_Source\PSoC6/I2C_1.h **** /*******************************************************************************
 469:Generated_Source\PSoC6/I2C_1.h **** * Function Name: I2C_1_SlaveClearWriteStatus
 470:Generated_Source\PSoC6/I2C_1.h **** ****************************************************************************//**
 471:Generated_Source\PSoC6/I2C_1.h **** *
 472:Generated_Source\PSoC6/I2C_1.h **** * Invokes the Cy_SCB_I2C_SlaveClearWriteStatus() PDL driver function.
 473:Generated_Source\PSoC6/I2C_1.h **** *
 474:Generated_Source\PSoC6/I2C_1.h **** *******************************************************************************/
 475:Generated_Source\PSoC6/I2C_1.h **** __STATIC_INLINE uint32_t I2C_1_SlaveClearWriteStatus(void)
 476:Generated_Source\PSoC6/I2C_1.h **** {
 477:Generated_Source\PSoC6/I2C_1.h ****     return Cy_SCB_I2C_SlaveClearWriteStatus(I2C_1_HW, &I2C_1_context);
 478:Generated_Source\PSoC6/I2C_1.h **** }
 479:Generated_Source\PSoC6/I2C_1.h **** #endif /* (I2C_1_ENABLE_SLAVE) */
 480:Generated_Source\PSoC6/I2C_1.h **** 
 481:Generated_Source\PSoC6/I2C_1.h **** 
 482:Generated_Source\PSoC6/I2C_1.h **** #if (I2C_1_ENABLE_MASTER)
 483:Generated_Source\PSoC6/I2C_1.h **** /*******************************************************************************
 484:Generated_Source\PSoC6/I2C_1.h **** * Function Name: I2C_1_MasterGetStatus
 485:Generated_Source\PSoC6/I2C_1.h **** ****************************************************************************//**
 486:Generated_Source\PSoC6/I2C_1.h **** *
 487:Generated_Source\PSoC6/I2C_1.h **** * Invokes the Cy_SCB_I2C_MasterGetStatus() PDL driver function.
 488:Generated_Source\PSoC6/I2C_1.h **** *
 489:Generated_Source\PSoC6/I2C_1.h **** *******************************************************************************/
 490:Generated_Source\PSoC6/I2C_1.h **** __STATIC_INLINE uint32_t I2C_1_MasterGetStatus(void)
 491:Generated_Source\PSoC6/I2C_1.h **** {
 492:Generated_Source\PSoC6/I2C_1.h ****     return Cy_SCB_I2C_MasterGetStatus(I2C_1_HW, &I2C_1_context);
 493:Generated_Source\PSoC6/I2C_1.h **** }
 494:Generated_Source\PSoC6/I2C_1.h **** 
 495:Generated_Source\PSoC6/I2C_1.h **** 
 496:Generated_Source\PSoC6/I2C_1.h **** /*******************************************************************************
 497:Generated_Source\PSoC6/I2C_1.h **** * Function Name: I2C_1_MasterRead
 498:Generated_Source\PSoC6/I2C_1.h **** ****************************************************************************//**
 499:Generated_Source\PSoC6/I2C_1.h **** *
 500:Generated_Source\PSoC6/I2C_1.h **** * Invokes the Cy_SCB_I2C_MasterRead() PDL driver function.
 501:Generated_Source\PSoC6/I2C_1.h **** *
 502:Generated_Source\PSoC6/I2C_1.h **** *******************************************************************************/
 503:Generated_Source\PSoC6/I2C_1.h **** __STATIC_INLINE cy_en_scb_i2c_status_t I2C_1_MasterRead(cy_stc_scb_i2c_master_xfer_config_t *xferCo
 504:Generated_Source\PSoC6/I2C_1.h **** {
ARM GAS  C:\Users\jlabe\AppData\Local\Temp\ccJbzXZ1.s 			page 19


 505:Generated_Source\PSoC6/I2C_1.h ****     return Cy_SCB_I2C_MasterRead(I2C_1_HW, xferConfig, &I2C_1_context);
 506:Generated_Source\PSoC6/I2C_1.h **** }
 507:Generated_Source\PSoC6/I2C_1.h **** 
 508:Generated_Source\PSoC6/I2C_1.h **** 
 509:Generated_Source\PSoC6/I2C_1.h **** /*******************************************************************************
 510:Generated_Source\PSoC6/I2C_1.h **** * Function Name: I2C_1_MasterAbortRead
 511:Generated_Source\PSoC6/I2C_1.h **** ****************************************************************************//**
 512:Generated_Source\PSoC6/I2C_1.h **** *
 513:Generated_Source\PSoC6/I2C_1.h **** * Invokes the Cy_SCB_I2C_MasterAbortRead() PDL driver function.
 514:Generated_Source\PSoC6/I2C_1.h **** *
 515:Generated_Source\PSoC6/I2C_1.h **** ******************************************************************************/
 516:Generated_Source\PSoC6/I2C_1.h **** __STATIC_INLINE void I2C_1_MasterAbortRead(void)
 517:Generated_Source\PSoC6/I2C_1.h **** {
 518:Generated_Source\PSoC6/I2C_1.h ****     Cy_SCB_I2C_MasterAbortRead(I2C_1_HW, &I2C_1_context);
 519:Generated_Source\PSoC6/I2C_1.h **** }
 520:Generated_Source\PSoC6/I2C_1.h **** 
 521:Generated_Source\PSoC6/I2C_1.h **** 
 522:Generated_Source\PSoC6/I2C_1.h **** /*******************************************************************************
 523:Generated_Source\PSoC6/I2C_1.h **** * Function Name: I2C_1_MasterWrite
 524:Generated_Source\PSoC6/I2C_1.h **** ****************************************************************************//**
 525:Generated_Source\PSoC6/I2C_1.h **** *
 526:Generated_Source\PSoC6/I2C_1.h **** * Invokes the Cy_SCB_I2C_MasterWrite() PDL driver function.
 527:Generated_Source\PSoC6/I2C_1.h **** *
 528:Generated_Source\PSoC6/I2C_1.h **** *******************************************************************************/
 529:Generated_Source\PSoC6/I2C_1.h **** __STATIC_INLINE cy_en_scb_i2c_status_t I2C_1_MasterWrite(cy_stc_scb_i2c_master_xfer_config_t *xferC
 530:Generated_Source\PSoC6/I2C_1.h **** {
 531:Generated_Source\PSoC6/I2C_1.h ****     return Cy_SCB_I2C_MasterWrite(I2C_1_HW, xferConfig, &I2C_1_context);
 532:Generated_Source\PSoC6/I2C_1.h **** }
 533:Generated_Source\PSoC6/I2C_1.h **** 
 534:Generated_Source\PSoC6/I2C_1.h **** 
 535:Generated_Source\PSoC6/I2C_1.h **** /*******************************************************************************
 536:Generated_Source\PSoC6/I2C_1.h **** * Function Name: I2C_1_MasterAbortWrite
 537:Generated_Source\PSoC6/I2C_1.h **** ****************************************************************************//**
 538:Generated_Source\PSoC6/I2C_1.h **** *
 539:Generated_Source\PSoC6/I2C_1.h **** * Invokes the Cy_SCB_I2C_MasterAbortWrite() PDL driver function.
 540:Generated_Source\PSoC6/I2C_1.h **** *
 541:Generated_Source\PSoC6/I2C_1.h **** *******************************************************************************/
 542:Generated_Source\PSoC6/I2C_1.h **** __STATIC_INLINE void I2C_1_MasterAbortWrite(void)
 543:Generated_Source\PSoC6/I2C_1.h **** {
 544:Generated_Source\PSoC6/I2C_1.h ****     Cy_SCB_I2C_MasterAbortWrite(I2C_1_HW, &I2C_1_context);
 545:Generated_Source\PSoC6/I2C_1.h **** }
 546:Generated_Source\PSoC6/I2C_1.h **** 
 547:Generated_Source\PSoC6/I2C_1.h **** 
 548:Generated_Source\PSoC6/I2C_1.h **** /*******************************************************************************
 549:Generated_Source\PSoC6/I2C_1.h **** * Function Name: I2C_1_MasterGetTransferCount
 550:Generated_Source\PSoC6/I2C_1.h **** ****************************************************************************//**
 551:Generated_Source\PSoC6/I2C_1.h **** *
 552:Generated_Source\PSoC6/I2C_1.h **** * Invokes the Cy_SCB_I2C_MasterGetTransferCount() PDL driver function.
 553:Generated_Source\PSoC6/I2C_1.h **** *
 554:Generated_Source\PSoC6/I2C_1.h **** *******************************************************************************/
 555:Generated_Source\PSoC6/I2C_1.h **** __STATIC_INLINE uint32_t I2C_1_MasterGetTransferCount(void)
 556:Generated_Source\PSoC6/I2C_1.h **** {
 557:Generated_Source\PSoC6/I2C_1.h ****     return Cy_SCB_I2C_MasterGetTransferCount(I2C_1_HW, &I2C_1_context);
 558:Generated_Source\PSoC6/I2C_1.h **** }
 559:Generated_Source\PSoC6/I2C_1.h **** 
 560:Generated_Source\PSoC6/I2C_1.h **** 
 561:Generated_Source\PSoC6/I2C_1.h **** /*******************************************************************************
ARM GAS  C:\Users\jlabe\AppData\Local\Temp\ccJbzXZ1.s 			page 20


 562:Generated_Source\PSoC6/I2C_1.h **** * Function Name: I2C_1_MasterSendStart
 563:Generated_Source\PSoC6/I2C_1.h **** ****************************************************************************//**
 564:Generated_Source\PSoC6/I2C_1.h **** *
 565:Generated_Source\PSoC6/I2C_1.h **** * Invokes the Cy_SCB_I2C_MasterSendStart() PDL driver function.
 566:Generated_Source\PSoC6/I2C_1.h **** *
 567:Generated_Source\PSoC6/I2C_1.h **** *******************************************************************************/
 568:Generated_Source\PSoC6/I2C_1.h **** __STATIC_INLINE cy_en_scb_i2c_status_t I2C_1_MasterSendStart(uint32_t address, cy_en_scb_i2c_direct
 569:Generated_Source\PSoC6/I2C_1.h **** {
 570:Generated_Source\PSoC6/I2C_1.h ****     return Cy_SCB_I2C_MasterSendStart(I2C_1_HW, address, bitRnW, timeoutMs, &I2C_1_context);
 250              		.loc 2 570 0
 251 0006 144C     		ldr	r4, .L15
 252 0008 144D     		ldr	r5, .L15+4
 253 000a 0095     		str	r5, [sp]
 254 000c 6423     		movs	r3, #100
 255 000e 0022     		movs	r2, #0
 256 0010 5721     		movs	r1, #87
 257 0012 2046     		mov	r0, r4
 258              	.LVL29:
 259 0014 FFF7FEFF 		bl	Cy_SCB_I2C_MasterSendStart
 260              	.LVL30:
 261              	.LBE37:
 262              	.LBE36:
 263              	.LBB38:
 264              	.LBB39:
 571:Generated_Source\PSoC6/I2C_1.h **** }
 572:Generated_Source\PSoC6/I2C_1.h **** 
 573:Generated_Source\PSoC6/I2C_1.h **** 
 574:Generated_Source\PSoC6/I2C_1.h **** /*******************************************************************************
 575:Generated_Source\PSoC6/I2C_1.h **** * Function Name: I2C_1_MasterSendReStart
 576:Generated_Source\PSoC6/I2C_1.h **** ****************************************************************************//**
 577:Generated_Source\PSoC6/I2C_1.h **** *
 578:Generated_Source\PSoC6/I2C_1.h **** * Invokes the Cy_SCB_I2C_MasterSendReStart() PDL driver function.
 579:Generated_Source\PSoC6/I2C_1.h **** *
 580:Generated_Source\PSoC6/I2C_1.h **** *******************************************************************************/
 581:Generated_Source\PSoC6/I2C_1.h **** __STATIC_INLINE cy_en_scb_i2c_status_t I2C_1_MasterSendReStart(uint32_t address, cy_en_scb_i2c_dire
 582:Generated_Source\PSoC6/I2C_1.h **** {
 583:Generated_Source\PSoC6/I2C_1.h ****     return Cy_SCB_I2C_MasterSendReStart(I2C_1_HW, address, bitRnW, timeoutMs, &I2C_1_context);
 584:Generated_Source\PSoC6/I2C_1.h **** }
 585:Generated_Source\PSoC6/I2C_1.h **** 
 586:Generated_Source\PSoC6/I2C_1.h **** 
 587:Generated_Source\PSoC6/I2C_1.h **** /*******************************************************************************
 588:Generated_Source\PSoC6/I2C_1.h **** * Function Name: I2C_1_MasterSendStop
 589:Generated_Source\PSoC6/I2C_1.h **** ****************************************************************************//**
 590:Generated_Source\PSoC6/I2C_1.h **** *
 591:Generated_Source\PSoC6/I2C_1.h **** * Invokes the Cy_SCB_I2C_MasterSendStop() PDL driver function.
 592:Generated_Source\PSoC6/I2C_1.h **** *
 593:Generated_Source\PSoC6/I2C_1.h **** *******************************************************************************/
 594:Generated_Source\PSoC6/I2C_1.h **** __STATIC_INLINE cy_en_scb_i2c_status_t I2C_1_MasterSendStop(uint32_t timeoutMs)
 595:Generated_Source\PSoC6/I2C_1.h **** {
 596:Generated_Source\PSoC6/I2C_1.h ****     return Cy_SCB_I2C_MasterSendStop(I2C_1_HW, timeoutMs, &I2C_1_context);
 597:Generated_Source\PSoC6/I2C_1.h **** }
 598:Generated_Source\PSoC6/I2C_1.h **** 
 599:Generated_Source\PSoC6/I2C_1.h **** 
 600:Generated_Source\PSoC6/I2C_1.h **** /*******************************************************************************
 601:Generated_Source\PSoC6/I2C_1.h **** * Function Name: I2C_1_MasterReadByte
 602:Generated_Source\PSoC6/I2C_1.h **** ****************************************************************************//**
 603:Generated_Source\PSoC6/I2C_1.h **** *
ARM GAS  C:\Users\jlabe\AppData\Local\Temp\ccJbzXZ1.s 			page 21


 604:Generated_Source\PSoC6/I2C_1.h **** * Invokes the Cy_SCB_I2C_MasterReadByte() PDL driver function.
 605:Generated_Source\PSoC6/I2C_1.h **** *
 606:Generated_Source\PSoC6/I2C_1.h **** *******************************************************************************/
 607:Generated_Source\PSoC6/I2C_1.h **** __STATIC_INLINE cy_en_scb_i2c_status_t I2C_1_MasterReadByte(cy_en_scb_i2c_command_t ackNack, uint8_
 608:Generated_Source\PSoC6/I2C_1.h **** {
 609:Generated_Source\PSoC6/I2C_1.h ****     return Cy_SCB_I2C_MasterReadByte(I2C_1_HW, ackNack, byte, timeoutMs, &I2C_1_context);
 610:Generated_Source\PSoC6/I2C_1.h **** }
 611:Generated_Source\PSoC6/I2C_1.h **** 
 612:Generated_Source\PSoC6/I2C_1.h **** 
 613:Generated_Source\PSoC6/I2C_1.h **** /*******************************************************************************
 614:Generated_Source\PSoC6/I2C_1.h **** * Function Name: I2C_1_MasterWriteByte
 615:Generated_Source\PSoC6/I2C_1.h **** ****************************************************************************//**
 616:Generated_Source\PSoC6/I2C_1.h **** *
 617:Generated_Source\PSoC6/I2C_1.h **** * Invokes the Cy_SCB_I2C_MasterWriteByte() PDL driver function.
 618:Generated_Source\PSoC6/I2C_1.h **** *
 619:Generated_Source\PSoC6/I2C_1.h **** *******************************************************************************/
 620:Generated_Source\PSoC6/I2C_1.h **** __STATIC_INLINE cy_en_scb_i2c_status_t I2C_1_MasterWriteByte(uint8_t byte, uint32_t timeoutMs)
 621:Generated_Source\PSoC6/I2C_1.h **** {
 622:Generated_Source\PSoC6/I2C_1.h ****     return Cy_SCB_I2C_MasterWriteByte(I2C_1_HW, byte, timeoutMs, &I2C_1_context);
 265              		.loc 2 622 0
 266 0018 2B46     		mov	r3, r5
 267 001a 6422     		movs	r2, #100
 268 001c 3146     		mov	r1, r6
 269 001e 2046     		mov	r0, r4
 270 0020 FFF7FEFF 		bl	Cy_SCB_I2C_MasterWriteByte
 271              	.LVL31:
 272              	.LBE39:
 273              	.LBE38:
 274              	.LBB40:
 275              	.LBB41:
 583:Generated_Source\PSoC6/I2C_1.h **** }
 276              		.loc 2 583 0
 277 0024 0095     		str	r5, [sp]
 278 0026 6423     		movs	r3, #100
 279 0028 0122     		movs	r2, #1
 280 002a 5721     		movs	r1, #87
 281 002c 2046     		mov	r0, r4
 282 002e FFF7FEFF 		bl	Cy_SCB_I2C_MasterSendReStart
 283              	.LVL32:
 284              	.LBE41:
 285              	.LBE40:
  35:Communication.c ****     
 286              		.loc 1 35 0
 287 0032 0021     		movs	r1, #0
 288 0034 04AA     		add	r2, sp, #16
 289 0036 02F8011D 		strb	r1, [r2, #-1]!
 290              	.LVL33:
 291              	.LBB42:
 292              	.LBB43:
 609:Generated_Source\PSoC6/I2C_1.h **** }
 293              		.loc 2 609 0
 294 003a 0095     		str	r5, [sp]
 295 003c 6423     		movs	r3, #100
 296 003e 2046     		mov	r0, r4
 297 0040 FFF7FEFF 		bl	Cy_SCB_I2C_MasterReadByte
 298              	.LVL34:
 299              	.LBE43:
ARM GAS  C:\Users\jlabe\AppData\Local\Temp\ccJbzXZ1.s 			page 22


 300              	.LBE42:
 301              	.LBB44:
 302              	.LBB45:
 596:Generated_Source\PSoC6/I2C_1.h **** }
 303              		.loc 2 596 0
 304 0044 2A46     		mov	r2, r5
 305 0046 6421     		movs	r1, #100
 306 0048 2046     		mov	r0, r4
 307 004a FFF7FEFF 		bl	Cy_SCB_I2C_MasterSendStop
 308              	.LVL35:
 309              	.LBE45:
 310              	.LBE44:
  42:Communication.c **** 
 311              		.loc 1 42 0
 312 004e 9DF80F00 		ldrb	r0, [sp, #15]	@ zero_extendqisi2
 313 0052 04B0     		add	sp, sp, #16
 314              		.cfi_def_cfa_offset 16
 315              		@ sp needed
 316 0054 70BD     		pop	{r4, r5, r6, pc}
 317              	.L16:
 318 0056 00BF     		.align	2
 319              	.L15:
 320 0058 00006440 		.word	1080295424
 321 005c 00000000 		.word	I2C_1_context
 322              		.cfi_endproc
 323              	.LFE693:
 324              		.size	MAX30102Read, .-MAX30102Read
 325              		.section	.text.MAX30102Write,"ax",%progbits
 326              		.align	2
 327              		.global	MAX30102Write
 328              		.thumb
 329              		.thumb_func
 330              		.type	MAX30102Write, %function
 331              	MAX30102Write:
 332              	.LFB694:
  44:Communication.c ****     
 333              		.loc 1 44 0
 334              		.cfi_startproc
 335              		@ args = 0, pretend = 0, frame = 0
 336              		@ frame_needed = 0, uses_anonymous_args = 0
 337              	.LVL36:
 338 0000 F0B5     		push	{r4, r5, r6, r7, lr}
 339              		.cfi_def_cfa_offset 20
 340              		.cfi_offset 4, -20
 341              		.cfi_offset 5, -16
 342              		.cfi_offset 6, -12
 343              		.cfi_offset 7, -8
 344              		.cfi_offset 14, -4
 345 0002 83B0     		sub	sp, sp, #12
 346              		.cfi_def_cfa_offset 32
 347 0004 0746     		mov	r7, r0
 348 0006 0E46     		mov	r6, r1
 349              	.LVL37:
 350              	.LBB46:
 351              	.LBB47:
 570:Generated_Source\PSoC6/I2C_1.h **** }
 352              		.loc 2 570 0
ARM GAS  C:\Users\jlabe\AppData\Local\Temp\ccJbzXZ1.s 			page 23


 353 0008 0D4C     		ldr	r4, .L19
 354 000a 0E4D     		ldr	r5, .L19+4
 355 000c 0095     		str	r5, [sp]
 356 000e 6423     		movs	r3, #100
 357 0010 0022     		movs	r2, #0
 358 0012 5721     		movs	r1, #87
 359              	.LVL38:
 360 0014 2046     		mov	r0, r4
 361              	.LVL39:
 362 0016 FFF7FEFF 		bl	Cy_SCB_I2C_MasterSendStart
 363              	.LVL40:
 364              	.LBE47:
 365              	.LBE46:
 366              	.LBB48:
 367              	.LBB49:
 368              		.loc 2 622 0
 369 001a 2B46     		mov	r3, r5
 370 001c 6422     		movs	r2, #100
 371 001e 3946     		mov	r1, r7
 372 0020 2046     		mov	r0, r4
 373 0022 FFF7FEFF 		bl	Cy_SCB_I2C_MasterWriteByte
 374              	.LVL41:
 375              	.LBE49:
 376              	.LBE48:
 377              	.LBB50:
 378              	.LBB51:
 379 0026 2B46     		mov	r3, r5
 380 0028 6422     		movs	r2, #100
 381 002a 3146     		mov	r1, r6
 382 002c 2046     		mov	r0, r4
 383 002e FFF7FEFF 		bl	Cy_SCB_I2C_MasterWriteByte
 384              	.LVL42:
 385              	.LBE51:
 386              	.LBE50:
 387              	.LBB52:
 388              	.LBB53:
 596:Generated_Source\PSoC6/I2C_1.h **** }
 389              		.loc 2 596 0
 390 0032 2A46     		mov	r2, r5
 391 0034 6421     		movs	r1, #100
 392 0036 2046     		mov	r0, r4
 393 0038 FFF7FEFF 		bl	Cy_SCB_I2C_MasterSendStop
 394              	.LVL43:
 395              	.LBE53:
 396              	.LBE52:
  51:Communication.c **** 
 397              		.loc 1 51 0
 398 003c 03B0     		add	sp, sp, #12
 399              		.cfi_def_cfa_offset 20
 400              		@ sp needed
 401 003e F0BD     		pop	{r4, r5, r6, r7, pc}
 402              	.L20:
 403              		.align	2
 404              	.L19:
 405 0040 00006440 		.word	1080295424
 406 0044 00000000 		.word	I2C_1_context
 407              		.cfi_endproc
ARM GAS  C:\Users\jlabe\AppData\Local\Temp\ccJbzXZ1.s 			page 24


 408              	.LFE694:
 409              		.size	MAX30102Write, .-MAX30102Write
 410              		.section	.text.MAX30102ReadMultipleBytes,"ax",%progbits
 411              		.align	2
 412              		.global	MAX30102ReadMultipleBytes
 413              		.thumb
 414              		.thumb_func
 415              		.type	MAX30102ReadMultipleBytes, %function
 416              	MAX30102ReadMultipleBytes:
 417              	.LFB695:
  54:Communication.c ****     I2C_1_MasterSendStart(MAX30102_I2C_ADDR,CY_SCB_I2C_WRITE_XFER,I2C_TIMEOUT); 
 418              		.loc 1 54 0
 419              		.cfi_startproc
 420              		@ args = 0, pretend = 0, frame = 0
 421              		@ frame_needed = 0, uses_anonymous_args = 0
 422              	.LVL44:
 423 0000 2DE9F041 		push	{r4, r5, r6, r7, r8, lr}
 424              		.cfi_def_cfa_offset 24
 425              		.cfi_offset 4, -24
 426              		.cfi_offset 5, -20
 427              		.cfi_offset 6, -16
 428              		.cfi_offset 7, -12
 429              		.cfi_offset 8, -8
 430              		.cfi_offset 14, -4
 431 0004 82B0     		sub	sp, sp, #8
 432              		.cfi_def_cfa_offset 32
 433 0006 8046     		mov	r8, r0
 434 0008 0D46     		mov	r5, r1
 435 000a 1646     		mov	r6, r2
 436              	.LVL45:
 437              	.LBB54:
 438              	.LBB55:
 570:Generated_Source\PSoC6/I2C_1.h **** }
 439              		.loc 2 570 0
 440 000c 1A4C     		ldr	r4, .L25
 441 000e 1B4F     		ldr	r7, .L25+4
 442 0010 0097     		str	r7, [sp]
 443 0012 6423     		movs	r3, #100
 444 0014 0022     		movs	r2, #0
 445              	.LVL46:
 446 0016 5721     		movs	r1, #87
 447              	.LVL47:
 448 0018 2046     		mov	r0, r4
 449              	.LVL48:
 450 001a FFF7FEFF 		bl	Cy_SCB_I2C_MasterSendStart
 451              	.LVL49:
 452              	.LBE55:
 453              	.LBE54:
 454              	.LBB56:
 455              	.LBB57:
 456              		.loc 2 622 0
 457 001e 3B46     		mov	r3, r7
 458 0020 6422     		movs	r2, #100
 459 0022 4146     		mov	r1, r8
 460 0024 2046     		mov	r0, r4
 461 0026 FFF7FEFF 		bl	Cy_SCB_I2C_MasterWriteByte
 462              	.LVL50:
ARM GAS  C:\Users\jlabe\AppData\Local\Temp\ccJbzXZ1.s 			page 25


 463              	.LBE57:
 464              	.LBE56:
 465              	.LBB58:
 466              	.LBB59:
 583:Generated_Source\PSoC6/I2C_1.h **** }
 467              		.loc 2 583 0
 468 002a 0097     		str	r7, [sp]
 469 002c 6423     		movs	r3, #100
 470 002e 0122     		movs	r2, #1
 471 0030 5721     		movs	r1, #87
 472 0032 2046     		mov	r0, r4
 473 0034 FFF7FEFF 		bl	Cy_SCB_I2C_MasterSendReStart
 474              	.LVL51:
 475              	.LBE59:
 476              	.LBE58:
  59:Communication.c ****         I2C_1_MasterReadByte(CY_SCB_I2C_ACK,(uint8_t*)&buffer[idx],I2C_TIMEOUT);  
 477              		.loc 1 59 0
 478 0038 0024     		movs	r4, #0
 479 003a 09E0     		b	.L22
 480              	.LVL52:
 481              	.L23:
 482              	.LBB60:
 483              	.LBB61:
 609:Generated_Source\PSoC6/I2C_1.h **** }
 484              		.loc 2 609 0 discriminator 3
 485 003c 0F4B     		ldr	r3, .L25+4
 486 003e 0093     		str	r3, [sp]
 487 0040 6423     		movs	r3, #100
 488 0042 2A19     		adds	r2, r5, r4
 489              	.LVL53:
 490 0044 0021     		movs	r1, #0
 491 0046 0C48     		ldr	r0, .L25
 492 0048 FFF7FEFF 		bl	Cy_SCB_I2C_MasterReadByte
 493              	.LVL54:
 494              	.LBE61:
 495              	.LBE60:
  59:Communication.c ****         I2C_1_MasterReadByte(CY_SCB_I2C_ACK,(uint8_t*)&buffer[idx],I2C_TIMEOUT);  
 496              		.loc 1 59 0 discriminator 3
 497 004c 0134     		adds	r4, r4, #1
 498              	.LVL55:
 499 004e E4B2     		uxtb	r4, r4
 500              	.LVL56:
 501              	.L22:
  59:Communication.c ****         I2C_1_MasterReadByte(CY_SCB_I2C_ACK,(uint8_t*)&buffer[idx],I2C_TIMEOUT);  
 502              		.loc 1 59 0 is_stmt 0 discriminator 1
 503 0050 731E     		subs	r3, r6, #1
 504 0052 9C42     		cmp	r4, r3
 505 0054 F2DB     		blt	.L23
 506              	.LVL57:
 507              	.LBB62:
 508              	.LBB63:
 609:Generated_Source\PSoC6/I2C_1.h **** }
 509              		.loc 2 609 0 is_stmt 1
 510 0056 084E     		ldr	r6, .L25
 511 0058 084F     		ldr	r7, .L25+4
 512 005a 0097     		str	r7, [sp]
 513 005c 6423     		movs	r3, #100
ARM GAS  C:\Users\jlabe\AppData\Local\Temp\ccJbzXZ1.s 			page 26


 514 005e 2A19     		adds	r2, r5, r4
 515              	.LVL58:
 516 0060 0121     		movs	r1, #1
 517 0062 3046     		mov	r0, r6
 518 0064 FFF7FEFF 		bl	Cy_SCB_I2C_MasterReadByte
 519              	.LVL59:
 520              	.LBE63:
 521              	.LBE62:
 522              	.LBB64:
 523              	.LBB65:
 596:Generated_Source\PSoC6/I2C_1.h **** }
 524              		.loc 2 596 0
 525 0068 3A46     		mov	r2, r7
 526 006a 6421     		movs	r1, #100
 527 006c 3046     		mov	r0, r6
 528 006e FFF7FEFF 		bl	Cy_SCB_I2C_MasterSendStop
 529              	.LVL60:
 530              	.LBE65:
 531              	.LBE64:
  64:Communication.c **** 
 532              		.loc 1 64 0
 533 0072 02B0     		add	sp, sp, #8
 534              		.cfi_def_cfa_offset 24
 535              		@ sp needed
 536 0074 BDE8F081 		pop	{r4, r5, r6, r7, r8, pc}
 537              	.LVL61:
 538              	.L26:
 539              		.align	2
 540              	.L25:
 541 0078 00006440 		.word	1080295424
 542 007c 00000000 		.word	I2C_1_context
 543              		.cfi_endproc
 544              	.LFE695:
 545              		.size	MAX30102ReadMultipleBytes, .-MAX30102ReadMultipleBytes
 546              		.section	.text.MAX30102ReadFIFO16bits,"ax",%progbits
 547              		.align	2
 548              		.global	MAX30102ReadFIFO16bits
 549              		.thumb
 550              		.thumb_func
 551              		.type	MAX30102ReadFIFO16bits, %function
 552              	MAX30102ReadFIFO16bits:
 553              	.LFB696:
  67:Communication.c ****      
 554              		.loc 1 67 0
 555              		.cfi_startproc
 556              		@ args = 0, pretend = 0, frame = 8
 557              		@ frame_needed = 0, uses_anonymous_args = 0
 558              	.LVL62:
 559 0000 70B5     		push	{r4, r5, r6, lr}
 560              		.cfi_def_cfa_offset 16
 561              		.cfi_offset 4, -16
 562              		.cfi_offset 5, -12
 563              		.cfi_offset 6, -8
 564              		.cfi_offset 14, -4
 565 0002 82B0     		sub	sp, sp, #8
 566              		.cfi_def_cfa_offset 24
 567 0004 0646     		mov	r6, r0
ARM GAS  C:\Users\jlabe\AppData\Local\Temp\ccJbzXZ1.s 			page 27


 568 0006 0D46     		mov	r5, r1
  75:Communication.c ****         for (int i = 0 ; i < BUFFER_SIZE ; i++){
 569              		.loc 1 75 0
 570 0008 0020     		movs	r0, #0
 571              	.LVL63:
 572 000a FFF7FEFF 		bl	MAX30102Read
 573              	.LVL64:
 574              	.LBB66:
  76:Communication.c ****             data_red[i] = 0; //initialisation
 575              		.loc 1 76 0
 576 000e 0024     		movs	r4, #0
 577 0010 26E0     		b	.L28
 578              	.LVL65:
 579              	.L29:
  77:Communication.c ****             data_ir[i] = 0;
 580              		.loc 1 77 0 discriminator 3
 581 0012 0023     		movs	r3, #0
 582 0014 26F81430 		strh	r3, [r6, r4, lsl #1]	@ movhi
  78:Communication.c ****             
 583              		.loc 1 78 0 discriminator 3
 584 0018 25F81430 		strh	r3, [r5, r4, lsl #1]	@ movhi
  81:Communication.c ****             
 585              		.loc 1 81 0 discriminator 3
 586 001c 0622     		movs	r2, #6
 587 001e 6946     		mov	r1, sp
 588 0020 0720     		movs	r0, #7
 589 0022 FFF7FEFF 		bl	MAX30102ReadMultipleBytes
 590              	.LVL66:
  85:Communication.c ****             temp = temp_buffer[1]; //remplissage de 8bits
 591              		.loc 1 85 0 discriminator 3
 592 0026 36F81430 		ldrh	r3, [r6, r4, lsl #1]
  86:Communication.c ****             temp <<= 8; //bitshift de 8bits
 593              		.loc 1 86 0 discriminator 3
 594 002a 9DF80120 		ldrb	r2, [sp, #1]	@ zero_extendqisi2
 595              	.LVL67:
  88:Communication.c ****             temp = temp_buffer[2]; //remplissage de 8bits
 596              		.loc 1 88 0 discriminator 3
 597 002e 03EB0223 		add	r3, r3, r2, lsl #8
 598 0032 9BB2     		uxth	r3, r3
 599 0034 26F81430 		strh	r3, [r6, r4, lsl #1]	@ movhi
  89:Communication.c ****             data_red[i] += temp; //ajout de 8bits pour un total de 24bits sur 32
 600              		.loc 1 89 0 discriminator 3
 601 0038 9DF80220 		ldrb	r2, [sp, #2]	@ zero_extendqisi2
 602              	.LVL68:
  90:Communication.c ****             
 603              		.loc 1 90 0 discriminator 3
 604 003c 1344     		add	r3, r3, r2
 605 003e 26F81430 		strh	r3, [r6, r4, lsl #1]	@ movhi
 606              	.LVL69:
  94:Communication.c ****             temp = temp_buffer[4];
 607              		.loc 1 94 0 discriminator 3
 608 0042 35F81430 		ldrh	r3, [r5, r4, lsl #1]
  95:Communication.c ****             temp <<= 8;
 609              		.loc 1 95 0 discriminator 3
 610 0046 9DF80420 		ldrb	r2, [sp, #4]	@ zero_extendqisi2
 611              	.LVL70:
  97:Communication.c ****             temp = temp_buffer[5];
ARM GAS  C:\Users\jlabe\AppData\Local\Temp\ccJbzXZ1.s 			page 28


 612              		.loc 1 97 0 discriminator 3
 613 004a 03EB0223 		add	r3, r3, r2, lsl #8
 614 004e 9BB2     		uxth	r3, r3
 615 0050 25F81430 		strh	r3, [r5, r4, lsl #1]	@ movhi
  98:Communication.c ****             data_ir[i] += temp;
 616              		.loc 1 98 0 discriminator 3
 617 0054 9DF80520 		ldrb	r2, [sp, #5]	@ zero_extendqisi2
 618              	.LVL71:
  99:Communication.c ****             
 619              		.loc 1 99 0 discriminator 3
 620 0058 1344     		add	r3, r3, r2
 621 005a 25F81430 		strh	r3, [r5, r4, lsl #1]	@ movhi
  76:Communication.c ****             data_red[i] = 0; //initialisation
 622              		.loc 1 76 0 discriminator 3
 623 005e 0134     		adds	r4, r4, #1
 624              	.LVL72:
 625              	.L28:
  76:Communication.c ****             data_red[i] = 0; //initialisation
 626              		.loc 1 76 0 is_stmt 0 discriminator 1
 627 0060 B4F57A7F 		cmp	r4, #1000
 628 0064 D5DB     		blt	.L29
 629              	.LBE66:
 104:Communication.c **** 
 630              		.loc 1 104 0 is_stmt 1
 631 0066 02B0     		add	sp, sp, #8
 632              		.cfi_def_cfa_offset 16
 633              		@ sp needed
 634 0068 70BD     		pop	{r4, r5, r6, pc}
 635              		.cfi_endproc
 636              	.LFE696:
 637              		.size	MAX30102ReadFIFO16bits, .-MAX30102ReadFIFO16bits
 638 006a 00BF     		.section	.text.MAX30102ReadFIFO32bits,"ax",%progbits
 639              		.align	2
 640              		.global	MAX30102ReadFIFO32bits
 641              		.thumb
 642              		.thumb_func
 643              		.type	MAX30102ReadFIFO32bits, %function
 644              	MAX30102ReadFIFO32bits:
 645              	.LFB697:
 108:Communication.c **** 
 646              		.loc 1 108 0
 647              		.cfi_startproc
 648              		@ args = 0, pretend = 0, frame = 8
 649              		@ frame_needed = 0, uses_anonymous_args = 0
 650              	.LVL73:
 651 0000 30B5     		push	{r4, r5, lr}
 652              		.cfi_def_cfa_offset 12
 653              		.cfi_offset 4, -12
 654              		.cfi_offset 5, -8
 655              		.cfi_offset 14, -4
 656 0002 83B0     		sub	sp, sp, #12
 657              		.cfi_def_cfa_offset 24
 658 0004 0446     		mov	r4, r0
 659 0006 0D46     		mov	r5, r1
 117:Communication.c ****     *data_ir = 0;
 660              		.loc 1 117 0
 661 0008 0023     		movs	r3, #0
ARM GAS  C:\Users\jlabe\AppData\Local\Temp\ccJbzXZ1.s 			page 29


 662 000a 0360     		str	r3, [r0]
 118:Communication.c **** 
 663              		.loc 1 118 0
 664 000c 0B60     		str	r3, [r1]
 120:Communication.c ****     
 665              		.loc 1 120 0
 666 000e 0622     		movs	r2, #6
 667 0010 6946     		mov	r1, sp
 668              	.LVL74:
 669 0012 0720     		movs	r0, #7
 670              	.LVL75:
 671 0014 FFF7FEFF 		bl	MAX30102ReadMultipleBytes
 672              	.LVL76:
 122:Communication.c ****     temp <<= 16; //bitshift de 16bits (supprime un byte si 16bit)
 673              		.loc 1 122 0
 674 0018 9DF80020 		ldrb	r2, [sp]	@ zero_extendqisi2
 675              	.LVL77:
 124:Communication.c ****     temp = temp_buffer[1]; //remplissage de 8bits
 676              		.loc 1 124 0
 677 001c 2368     		ldr	r3, [r4]
 678 001e 03EB0243 		add	r3, r3, r2, lsl #16
 125:Communication.c ****     temp <<= 8; //bitshift de 8bits
 679              		.loc 1 125 0
 680 0022 9DF80120 		ldrb	r2, [sp, #1]	@ zero_extendqisi2
 681              	.LVL78:
 127:Communication.c ****     temp = temp_buffer[2]; //remplissage de 8bits
 682              		.loc 1 127 0
 683 0026 03EB0223 		add	r3, r3, r2, lsl #8
 128:Communication.c ****     *data_red += temp; //ajout de 8bits pour un total de 24bits sur 32
 684              		.loc 1 128 0
 685 002a 9DF80220 		ldrb	r2, [sp, #2]	@ zero_extendqisi2
 686              	.LVL79:
 129:Communication.c ****     
 687              		.loc 1 129 0
 688 002e 1344     		add	r3, r3, r2
 689 0030 2360     		str	r3, [r4]
 131:Communication.c ****     temp <<= 16;
 690              		.loc 1 131 0
 691 0032 9DF80320 		ldrb	r2, [sp, #3]	@ zero_extendqisi2
 692              	.LVL80:
 133:Communication.c ****     temp = temp_buffer[4];
 693              		.loc 1 133 0
 694 0036 2B68     		ldr	r3, [r5]
 695 0038 03EB0243 		add	r3, r3, r2, lsl #16
 134:Communication.c ****     temp <<= 8;
 696              		.loc 1 134 0
 697 003c 9DF80420 		ldrb	r2, [sp, #4]	@ zero_extendqisi2
 698              	.LVL81:
 136:Communication.c ****     temp = temp_buffer[5];
 699              		.loc 1 136 0
 700 0040 03EB0223 		add	r3, r3, r2, lsl #8
 137:Communication.c ****     *data_ir += temp;
 701              		.loc 1 137 0
 702 0044 9DF80520 		ldrb	r2, [sp, #5]	@ zero_extendqisi2
 703              	.LVL82:
 138:Communication.c ****     
 704              		.loc 1 138 0
ARM GAS  C:\Users\jlabe\AppData\Local\Temp\ccJbzXZ1.s 			page 30


 705 0048 1344     		add	r3, r3, r2
 140:Communication.c ****     *data_red &= UN_MIN;
 706              		.loc 1 140 0
 707 004a C3F31103 		ubfx	r3, r3, #0, #18
 708 004e 2B60     		str	r3, [r5]
 141:Communication.c ****     
 709              		.loc 1 141 0
 710 0050 2368     		ldr	r3, [r4]
 711 0052 C3F31103 		ubfx	r3, r3, #0, #18
 712 0056 2360     		str	r3, [r4]
 143:Communication.c **** 
 713              		.loc 1 143 0
 714 0058 03B0     		add	sp, sp, #12
 715              		.cfi_def_cfa_offset 12
 716              		@ sp needed
 717 005a 30BD     		pop	{r4, r5, pc}
 718              		.cfi_endproc
 719              	.LFE697:
 720              		.size	MAX30102ReadFIFO32bits, .-MAX30102ReadFIFO32bits
 721              		.section	.text.MAX30102Config,"ax",%progbits
 722              		.align	2
 723              		.global	MAX30102Config
 724              		.thumb
 725              		.thumb_func
 726              		.type	MAX30102Config, %function
 727              	MAX30102Config:
 728              	.LFB698:
 146:Communication.c ****     //REG_INTR_ENABLE_1
 729              		.loc 1 146 0
 730              		.cfi_startproc
 731              		@ args = 0, pretend = 0, frame = 0
 732              		@ frame_needed = 0, uses_anonymous_args = 0
 733 0000 08B5     		push	{r3, lr}
 734              		.cfi_def_cfa_offset 8
 735              		.cfi_offset 3, -8
 736              		.cfi_offset 14, -4
 149:Communication.c ****         (A_FULL_YES << A_FULL_RM_BIT)|(PPG_RDY_YES << PPG_RDY_RM_BIT)
 737              		.loc 1 149 0
 738 0002 C021     		movs	r1, #192
 739 0004 0220     		movs	r0, #2
 740 0006 FFF7FEFF 		bl	MAX30102Write
 741              	.LVL83:
 155:Communication.c ****         (DIE_TEMP_READY_NO << DIE_TEMP_READY_RM_BIT));
 742              		.loc 1 155 0
 743 000a 0021     		movs	r1, #0
 744 000c 0320     		movs	r0, #3
 745 000e FFF7FEFF 		bl	MAX30102Write
 746              	.LVL84:
 160:Communication.c **** 
 747              		.loc 1 160 0
 748 0012 0021     		movs	r1, #0
 749 0014 0420     		movs	r0, #4
 750 0016 FFF7FEFF 		bl	MAX30102Write
 751              	.LVL85:
 164:Communication.c ****     
 752              		.loc 1 164 0
 753 001a 0021     		movs	r1, #0
ARM GAS  C:\Users\jlabe\AppData\Local\Temp\ccJbzXZ1.s 			page 31


 754 001c 0520     		movs	r0, #5
 755 001e FFF7FEFF 		bl	MAX30102Write
 756              	.LVL86:
 168:Communication.c **** 
 757              		.loc 1 168 0
 758 0022 0021     		movs	r1, #0
 759 0024 0620     		movs	r0, #6
 760 0026 FFF7FEFF 		bl	MAX30102Write
 761              	.LVL87:
 172:Communication.c ****         (SMP_AVE_2 << SMP_AVE_RM_BIT) | (FIFO_ROLLOVER_EN_0 << FIFO_A_FULL_RM_BIT)
 762              		.loc 1 172 0
 763 002a 2F21     		movs	r1, #47
 764 002c 0820     		movs	r0, #8
 765 002e FFF7FEFF 		bl	MAX30102Write
 766              	.LVL88:
 178:Communication.c ****     (SHDN_NO << SHDN_RM_BIT)|(RESET_NO << RESET_RM_BIT)|(MODE_SPO2 << MODE_RM_BIT));
 767              		.loc 1 178 0
 768 0032 0321     		movs	r1, #3
 769 0034 0920     		movs	r0, #9
 770 0036 FFF7FEFF 		bl	MAX30102Write
 771              	.LVL89:
 183:Communication.c ****     (SPO2_ADC_RGE_4096 << 5)|(SPO2_SR_100 << 2)|(LED_PW_411));
 772              		.loc 1 183 0
 773 003a 2721     		movs	r1, #39
 774 003c 0A20     		movs	r0, #10
 775 003e FFF7FEFF 		bl	MAX30102Write
 776              	.LVL90:
 187:Communication.c **** 
 777              		.loc 1 187 0
 778 0042 0A21     		movs	r1, #10
 779 0044 0C20     		movs	r0, #12
 780 0046 FFF7FEFF 		bl	MAX30102Write
 781              	.LVL91:
 190:Communication.c **** 
 782              		.loc 1 190 0
 783 004a 0A21     		movs	r1, #10
 784 004c 0D20     		movs	r0, #13
 785 004e FFF7FEFF 		bl	MAX30102Write
 786              	.LVL92:
 193:Communication.c ****     
 787              		.loc 1 193 0
 788 0052 7D21     		movs	r1, #125
 789 0054 1020     		movs	r0, #16
 790 0056 FFF7FEFF 		bl	MAX30102Write
 791              	.LVL93:
 196:Communication.c **** 
 792              		.loc 1 196 0
 793 005a 0121     		movs	r1, #1
 794 005c 2120     		movs	r0, #33
 795 005e FFF7FEFF 		bl	MAX30102Write
 796              	.LVL94:
 797 0062 08BD     		pop	{r3, pc}
 798              		.cfi_endproc
 799              	.LFE698:
 800              		.size	MAX30102Config, .-MAX30102Config
 801              		.section	.text.MAX30102Reset,"ax",%progbits
 802              		.align	2
ARM GAS  C:\Users\jlabe\AppData\Local\Temp\ccJbzXZ1.s 			page 32


 803              		.global	MAX30102Reset
 804              		.thumb
 805              		.thumb_func
 806              		.type	MAX30102Reset, %function
 807              	MAX30102Reset:
 808              	.LFB699:
 200:Communication.c ****     MAX30102Write(REG_MODE_CONFIG, RESET_YES << RESET_RM_BIT);
 809              		.loc 1 200 0
 810              		.cfi_startproc
 811              		@ args = 0, pretend = 0, frame = 0
 812              		@ frame_needed = 0, uses_anonymous_args = 0
 813 0000 08B5     		push	{r3, lr}
 814              		.cfi_def_cfa_offset 8
 815              		.cfi_offset 3, -8
 816              		.cfi_offset 14, -4
 201:Communication.c **** }
 817              		.loc 1 201 0
 818 0002 4021     		movs	r1, #64
 819 0004 0920     		movs	r0, #9
 820 0006 FFF7FEFF 		bl	MAX30102Write
 821              	.LVL95:
 822 000a 08BD     		pop	{r3, pc}
 823              		.cfi_endproc
 824              	.LFE699:
 825              		.size	MAX30102Reset, .-MAX30102Reset
 826              		.section	.text.change_RED_LED_amp,"ax",%progbits
 827              		.align	2
 828              		.global	change_RED_LED_amp
 829              		.thumb
 830              		.thumb_func
 831              		.type	change_RED_LED_amp, %function
 832              	change_RED_LED_amp:
 833              	.LFB700:
 204:Communication.c ****     
 834              		.loc 1 204 0
 835              		.cfi_startproc
 836              		@ args = 0, pretend = 0, frame = 0
 837              		@ frame_needed = 0, uses_anonymous_args = 0
 838              	.LVL96:
 839 0000 08B5     		push	{r3, lr}
 840              		.cfi_def_cfa_offset 8
 841              		.cfi_offset 3, -8
 842              		.cfi_offset 14, -4
 206:Communication.c **** }
 843              		.loc 1 206 0
 844 0002 0146     		mov	r1, r0
 845 0004 0C20     		movs	r0, #12
 846              	.LVL97:
 847 0006 FFF7FEFF 		bl	MAX30102Write
 848              	.LVL98:
 849 000a 08BD     		pop	{r3, pc}
 850              		.cfi_endproc
 851              	.LFE700:
 852              		.size	change_RED_LED_amp, .-change_RED_LED_amp
 853              		.section	.text.MAX30102ReadTemperature,"ax",%progbits
 854              		.align	2
 855              		.global	MAX30102ReadTemperature
ARM GAS  C:\Users\jlabe\AppData\Local\Temp\ccJbzXZ1.s 			page 33


 856              		.thumb
 857              		.thumb_func
 858              		.type	MAX30102ReadTemperature, %function
 859              	MAX30102ReadTemperature:
 860              	.LFB701:
 209:Communication.c ****     
 861              		.loc 1 209 0
 862              		.cfi_startproc
 863              		@ args = 0, pretend = 0, frame = 0
 864              		@ frame_needed = 0, uses_anonymous_args = 0
 865              	.LVL99:
 866 0000 08B5     		push	{r3, lr}
 867              		.cfi_def_cfa_offset 8
 868              		.cfi_offset 3, -8
 869              		.cfi_offset 14, -4
 211:Communication.c **** 
 870              		.loc 1 211 0
 871 0002 0822     		movs	r2, #8
 872 0004 0146     		mov	r1, r0
 873 0006 1F20     		movs	r0, #31
 874              	.LVL100:
 875 0008 FFF7FEFF 		bl	MAX30102ReadMultipleBytes
 876              	.LVL101:
 877 000c 08BD     		pop	{r3, pc}
 878              		.cfi_endproc
 879              	.LFE701:
 880              		.size	MAX30102ReadTemperature, .-MAX30102ReadTemperature
 881 000e 00BF     		.section	.text.MAX30102Task,"ax",%progbits
 882              		.align	2
 883              		.global	MAX30102Task
 884              		.thumb
 885              		.thumb_func
 886              		.type	MAX30102Task, %function
 887              	MAX30102Task:
 888              	.LFB702:
 216:Communication.c ****     (void)arg;
 889              		.loc 1 216 0
 890              		.cfi_startproc
 891              		@ args = 0, pretend = 0, frame = 8000
 892              		@ frame_needed = 0, uses_anonymous_args = 0
 893              	.LVL102:
 894 0000 30B5     		push	{r4, r5, lr}
 895              		.cfi_def_cfa_offset 12
 896              		.cfi_offset 4, -12
 897              		.cfi_offset 5, -8
 898              		.cfi_offset 14, -4
 899 0002 ADF5FA5D 		sub	sp, sp, #8000
 900              		.cfi_def_cfa_offset 8012
 901 0006 81B0     		sub	sp, sp, #4
 902              		.cfi_def_cfa_offset 8016
 903              	.LVL103:
 221:Communication.c ****     //uint8_t temperature;
 904              		.loc 1 221 0
 905 0008 0024     		movs	r4, #0
 906              	.LVL104:
 907              	.L44:
 225:Communication.c ****             i++;
ARM GAS  C:\Users\jlabe\AppData\Local\Temp\ccJbzXZ1.s 			page 34


 908              		.loc 1 225 0
 909 000a B4F57A7F 		cmp	r4, #1000
 910 000e 01D0     		beq	.L43
 226:Communication.c ****         }
 911              		.loc 1 226 0
 912 0010 0134     		adds	r4, r4, #1
 913              	.LVL105:
 914 0012 A4B2     		uxth	r4, r4
 915              	.LVL106:
 916              	.L43:
 917              	.LBB67:
 918              	.LBB68:
 919              		.file 3 "Generated_Source\\PSoC6\\pdl\\drivers/peripheral/gpio/cy_gpio.h"
   1:Generated_Source\PSoC6\pdl\drivers/peripheral/gpio/cy_gpio.h **** /***************************************************************************//**
   2:Generated_Source\PSoC6\pdl\drivers/peripheral/gpio/cy_gpio.h **** * \file cy_gpio.h
   3:Generated_Source\PSoC6\pdl\drivers/peripheral/gpio/cy_gpio.h **** * \version 1.20
   4:Generated_Source\PSoC6\pdl\drivers/peripheral/gpio/cy_gpio.h **** *
   5:Generated_Source\PSoC6\pdl\drivers/peripheral/gpio/cy_gpio.h **** * Provides an API declaration of the GPIO driver
   6:Generated_Source\PSoC6\pdl\drivers/peripheral/gpio/cy_gpio.h **** *
   7:Generated_Source\PSoC6\pdl\drivers/peripheral/gpio/cy_gpio.h **** ********************************************************************************
   8:Generated_Source\PSoC6\pdl\drivers/peripheral/gpio/cy_gpio.h **** * \copyright
   9:Generated_Source\PSoC6\pdl\drivers/peripheral/gpio/cy_gpio.h **** * Copyright 2016-2018, Cypress Semiconductor Corporation. All rights reserved.
  10:Generated_Source\PSoC6\pdl\drivers/peripheral/gpio/cy_gpio.h **** * You may use this file only in accordance with the license, terms, conditions,
  11:Generated_Source\PSoC6\pdl\drivers/peripheral/gpio/cy_gpio.h **** * disclaimers, and limitations in the end user license agreement accompanying
  12:Generated_Source\PSoC6\pdl\drivers/peripheral/gpio/cy_gpio.h **** * the software package with which this file was provided.
  13:Generated_Source\PSoC6\pdl\drivers/peripheral/gpio/cy_gpio.h **** *******************************************************************************/
  14:Generated_Source\PSoC6\pdl\drivers/peripheral/gpio/cy_gpio.h **** 
  15:Generated_Source\PSoC6\pdl\drivers/peripheral/gpio/cy_gpio.h **** /**
  16:Generated_Source\PSoC6\pdl\drivers/peripheral/gpio/cy_gpio.h **** * \addtogroup group_gpio
  17:Generated_Source\PSoC6\pdl\drivers/peripheral/gpio/cy_gpio.h **** * \{
  18:Generated_Source\PSoC6\pdl\drivers/peripheral/gpio/cy_gpio.h **** * The GPIO driver provides an API to configure and access device Input/Output pins.
  19:Generated_Source\PSoC6\pdl\drivers/peripheral/gpio/cy_gpio.h **** *
  20:Generated_Source\PSoC6\pdl\drivers/peripheral/gpio/cy_gpio.h **** * The functions and other declarations used in this driver are in cy_gpio.h. 
  21:Generated_Source\PSoC6\pdl\drivers/peripheral/gpio/cy_gpio.h **** * You can include cy_pdl.h (ModusToolbox only) to get access to all functions 
  22:Generated_Source\PSoC6\pdl\drivers/peripheral/gpio/cy_gpio.h **** * and declarations in the PDL.
  23:Generated_Source\PSoC6\pdl\drivers/peripheral/gpio/cy_gpio.h **** *
  24:Generated_Source\PSoC6\pdl\drivers/peripheral/gpio/cy_gpio.h **** * IO pins include all general purpose types such as GPIO, SIO, HSIO, AUXIO, and
  25:Generated_Source\PSoC6\pdl\drivers/peripheral/gpio/cy_gpio.h **** * their variants.
  26:Generated_Source\PSoC6\pdl\drivers/peripheral/gpio/cy_gpio.h **** *
  27:Generated_Source\PSoC6\pdl\drivers/peripheral/gpio/cy_gpio.h **** * Initialization can be performed either at the port level or by configuring the
  28:Generated_Source\PSoC6\pdl\drivers/peripheral/gpio/cy_gpio.h **** * individual pins. For efficient use of code space, port
  29:Generated_Source\PSoC6\pdl\drivers/peripheral/gpio/cy_gpio.h **** * configuration should be used in the field. Refer to the product device header files 
  30:Generated_Source\PSoC6\pdl\drivers/peripheral/gpio/cy_gpio.h **** * for the list of supported ports and pins.
  31:Generated_Source\PSoC6\pdl\drivers/peripheral/gpio/cy_gpio.h **** * 
  32:Generated_Source\PSoC6\pdl\drivers/peripheral/gpio/cy_gpio.h **** * - Single pin configuration is performed by using \ref Cy_GPIO_Pin_FastInit 
  33:Generated_Source\PSoC6\pdl\drivers/peripheral/gpio/cy_gpio.h **** *   (provide specific values) or \ref Cy_GPIO_Pin_Init (provide a filled
  34:Generated_Source\PSoC6\pdl\drivers/peripheral/gpio/cy_gpio.h **** *   cy_stc_gpio_pin_config_t structure).
  35:Generated_Source\PSoC6\pdl\drivers/peripheral/gpio/cy_gpio.h **** * - An entire port can be configured using \ref Cy_GPIO_Port_Init. Provide a filled 
  36:Generated_Source\PSoC6\pdl\drivers/peripheral/gpio/cy_gpio.h **** *   cy_stc_gpio_prt_config_t structure. The values in the structure are 
  37:Generated_Source\PSoC6\pdl\drivers/peripheral/gpio/cy_gpio.h **** *   bitfields representing the desired value for each pin in the port.
  38:Generated_Source\PSoC6\pdl\drivers/peripheral/gpio/cy_gpio.h **** * - Pin configuration and management is based on the port address and pin number.
  39:Generated_Source\PSoC6\pdl\drivers/peripheral/gpio/cy_gpio.h **** *   \ref Cy_GPIO_PortToAddr function can optionally be used to calculate the port
  40:Generated_Source\PSoC6\pdl\drivers/peripheral/gpio/cy_gpio.h **** *   address from the port number at run-time.
  41:Generated_Source\PSoC6\pdl\drivers/peripheral/gpio/cy_gpio.h **** *
  42:Generated_Source\PSoC6\pdl\drivers/peripheral/gpio/cy_gpio.h **** * Once the pin/port initialization is complete, each pin can be accessed by 
  43:Generated_Source\PSoC6\pdl\drivers/peripheral/gpio/cy_gpio.h **** * specifying the port (GPIO_PRT_Type) and the pin (0-7) in the provided API 
  44:Generated_Source\PSoC6\pdl\drivers/peripheral/gpio/cy_gpio.h **** * functions.
ARM GAS  C:\Users\jlabe\AppData\Local\Temp\ccJbzXZ1.s 			page 35


  45:Generated_Source\PSoC6\pdl\drivers/peripheral/gpio/cy_gpio.h **** *
  46:Generated_Source\PSoC6\pdl\drivers/peripheral/gpio/cy_gpio.h **** * \section group_gpio_configuration Configuration Considerations
  47:Generated_Source\PSoC6\pdl\drivers/peripheral/gpio/cy_gpio.h **** *
  48:Generated_Source\PSoC6\pdl\drivers/peripheral/gpio/cy_gpio.h **** * 1. Pin multiplexing is controlled through the High-Speed IO Matrix (HSIOM) selection.
  49:Generated_Source\PSoC6\pdl\drivers/peripheral/gpio/cy_gpio.h **** *    This allows the pin to connect to signal sources/sinks throughout the device,
  50:Generated_Source\PSoC6\pdl\drivers/peripheral/gpio/cy_gpio.h **** *    as defined by the pin HSIOM selection options (en_hsiom_sel_t).
  51:Generated_Source\PSoC6\pdl\drivers/peripheral/gpio/cy_gpio.h **** * 2. All pins are initialized to High-Z drive mode with HSIOM connected to CPU (SW
  52:Generated_Source\PSoC6\pdl\drivers/peripheral/gpio/cy_gpio.h **** *    control digital pin only) at Power-On-Reset(POR).
  53:Generated_Source\PSoC6\pdl\drivers/peripheral/gpio/cy_gpio.h **** * 3. Some API functions perform read-modify-write operations on shared port
  54:Generated_Source\PSoC6\pdl\drivers/peripheral/gpio/cy_gpio.h **** *    registers. These functions are not thread safe and care must be taken when
  55:Generated_Source\PSoC6\pdl\drivers/peripheral/gpio/cy_gpio.h **** *    called by the application.
  56:Generated_Source\PSoC6\pdl\drivers/peripheral/gpio/cy_gpio.h **** * 4. Digital input buffer provides a high-impedance buffer for the external 
  57:Generated_Source\PSoC6\pdl\drivers/peripheral/gpio/cy_gpio.h **** *    digital input. The input buffer is connected to the HSIOM for routing to 
  58:Generated_Source\PSoC6\pdl\drivers/peripheral/gpio/cy_gpio.h **** *    the CPU port registers and selected peripheral. Enabling the input 
  59:Generated_Source\PSoC6\pdl\drivers/peripheral/gpio/cy_gpio.h **** *    buffer provides possibility to read the pin state via the CPU.
  60:Generated_Source\PSoC6\pdl\drivers/peripheral/gpio/cy_gpio.h **** *    If pin is connected to an analog signal, the input buffer should be 
  61:Generated_Source\PSoC6\pdl\drivers/peripheral/gpio/cy_gpio.h **** *    disabled to avoid crowbar currents. For more information refer to device 
  62:Generated_Source\PSoC6\pdl\drivers/peripheral/gpio/cy_gpio.h **** *    TRM and the device datasheet.
  63:Generated_Source\PSoC6\pdl\drivers/peripheral/gpio/cy_gpio.h **** *
  64:Generated_Source\PSoC6\pdl\drivers/peripheral/gpio/cy_gpio.h **** * Multiple pins on a port can be updated using direct port register writes with an
  65:Generated_Source\PSoC6\pdl\drivers/peripheral/gpio/cy_gpio.h **** * appropriate port mask. An example is shown below, highlighting the different ways of 
  66:Generated_Source\PSoC6\pdl\drivers/peripheral/gpio/cy_gpio.h **** * configuring Port 1 pins using:
  67:Generated_Source\PSoC6\pdl\drivers/peripheral/gpio/cy_gpio.h **** * 
  68:Generated_Source\PSoC6\pdl\drivers/peripheral/gpio/cy_gpio.h **** * - Port output data register
  69:Generated_Source\PSoC6\pdl\drivers/peripheral/gpio/cy_gpio.h **** * - Port output data set register
  70:Generated_Source\PSoC6\pdl\drivers/peripheral/gpio/cy_gpio.h **** * - Port output data clear register
  71:Generated_Source\PSoC6\pdl\drivers/peripheral/gpio/cy_gpio.h **** *
  72:Generated_Source\PSoC6\pdl\drivers/peripheral/gpio/cy_gpio.h **** * \snippet gpio/gpio_v1_10_sut_01.cydsn/main_cm4.c Cy_GPIO_Snippet
  73:Generated_Source\PSoC6\pdl\drivers/peripheral/gpio/cy_gpio.h **** *
  74:Generated_Source\PSoC6\pdl\drivers/peripheral/gpio/cy_gpio.h **** * \section group_gpio_more_information More Information
  75:Generated_Source\PSoC6\pdl\drivers/peripheral/gpio/cy_gpio.h **** *
  76:Generated_Source\PSoC6\pdl\drivers/peripheral/gpio/cy_gpio.h **** * Refer to the technical reference manual (TRM) and the device datasheet.
  77:Generated_Source\PSoC6\pdl\drivers/peripheral/gpio/cy_gpio.h **** *
  78:Generated_Source\PSoC6\pdl\drivers/peripheral/gpio/cy_gpio.h **** * \section group_gpio_MISRA MISRA-C Compliance
  79:Generated_Source\PSoC6\pdl\drivers/peripheral/gpio/cy_gpio.h **** * The GPIO driver has the following specific deviations:
  80:Generated_Source\PSoC6\pdl\drivers/peripheral/gpio/cy_gpio.h **** *
  81:Generated_Source\PSoC6\pdl\drivers/peripheral/gpio/cy_gpio.h **** * <table class="doxtable">
  82:Generated_Source\PSoC6\pdl\drivers/peripheral/gpio/cy_gpio.h **** *   <tr>
  83:Generated_Source\PSoC6\pdl\drivers/peripheral/gpio/cy_gpio.h **** *     <th>MISRA Rule</th>
  84:Generated_Source\PSoC6\pdl\drivers/peripheral/gpio/cy_gpio.h **** *     <th>Rule Class (Required/Advisory)</th>
  85:Generated_Source\PSoC6\pdl\drivers/peripheral/gpio/cy_gpio.h **** *     <th>Rule Description</th>
  86:Generated_Source\PSoC6\pdl\drivers/peripheral/gpio/cy_gpio.h **** *     <th>Description of Deviation(s)</th>
  87:Generated_Source\PSoC6\pdl\drivers/peripheral/gpio/cy_gpio.h **** *   </tr>
  88:Generated_Source\PSoC6\pdl\drivers/peripheral/gpio/cy_gpio.h **** *   <tr>
  89:Generated_Source\PSoC6\pdl\drivers/peripheral/gpio/cy_gpio.h **** *     <td>11.4</td>
  90:Generated_Source\PSoC6\pdl\drivers/peripheral/gpio/cy_gpio.h **** *     <td>A</td>
  91:Generated_Source\PSoC6\pdl\drivers/peripheral/gpio/cy_gpio.h **** *     <td>A cast should not be performed between a pointer to object type and
  92:Generated_Source\PSoC6\pdl\drivers/peripheral/gpio/cy_gpio.h **** *         a different pointer to object type.</td>
  93:Generated_Source\PSoC6\pdl\drivers/peripheral/gpio/cy_gpio.h **** *     <td> This code is safe because the elements of both GPIO_PRT_V1_Type and GPIO_PRT_V2_Type 
  94:Generated_Source\PSoC6\pdl\drivers/peripheral/gpio/cy_gpio.h **** *          types have identical alignment.</td>
  95:Generated_Source\PSoC6\pdl\drivers/peripheral/gpio/cy_gpio.h **** *   </tr>
  96:Generated_Source\PSoC6\pdl\drivers/peripheral/gpio/cy_gpio.h **** *   <tr>
  97:Generated_Source\PSoC6\pdl\drivers/peripheral/gpio/cy_gpio.h **** *     <td>16.7</td>
  98:Generated_Source\PSoC6\pdl\drivers/peripheral/gpio/cy_gpio.h **** *     <td>A</td>
  99:Generated_Source\PSoC6\pdl\drivers/peripheral/gpio/cy_gpio.h **** *     <td>A pointer parameter in a function prototype should be declared as pointer 
 100:Generated_Source\PSoC6\pdl\drivers/peripheral/gpio/cy_gpio.h **** *         to const if the pointer is not used to modify the addressed object.</td>
 101:Generated_Source\PSoC6\pdl\drivers/peripheral/gpio/cy_gpio.h **** *     <td>The objects pointed to by the base addresses of the GPIO port are not always modified.
ARM GAS  C:\Users\jlabe\AppData\Local\Temp\ccJbzXZ1.s 			page 36


 102:Generated_Source\PSoC6\pdl\drivers/peripheral/gpio/cy_gpio.h **** *         While a const qualifier can be used in select scenarios, it brings little benefit
 103:Generated_Source\PSoC6\pdl\drivers/peripheral/gpio/cy_gpio.h **** *         in adding this to the affected functions. </td>
 104:Generated_Source\PSoC6\pdl\drivers/peripheral/gpio/cy_gpio.h **** *   </tr>
 105:Generated_Source\PSoC6\pdl\drivers/peripheral/gpio/cy_gpio.h **** * </table>
 106:Generated_Source\PSoC6\pdl\drivers/peripheral/gpio/cy_gpio.h **** *
 107:Generated_Source\PSoC6\pdl\drivers/peripheral/gpio/cy_gpio.h **** * \section group_gpio_changelog Changelog
 108:Generated_Source\PSoC6\pdl\drivers/peripheral/gpio/cy_gpio.h **** * <table class="doxtable">
 109:Generated_Source\PSoC6\pdl\drivers/peripheral/gpio/cy_gpio.h **** *   <tr><th>Version</th><th>Changes</th><th>Reason for Change</th></tr>
 110:Generated_Source\PSoC6\pdl\drivers/peripheral/gpio/cy_gpio.h **** *   <tr>
 111:Generated_Source\PSoC6\pdl\drivers/peripheral/gpio/cy_gpio.h **** *     <td rowspan="3">1.20</td>
 112:Generated_Source\PSoC6\pdl\drivers/peripheral/gpio/cy_gpio.h **** *     <td>Flattened the organization of the driver source code into the single source directory and
 113:Generated_Source\PSoC6\pdl\drivers/peripheral/gpio/cy_gpio.h **** *     <td>Driver library directory-structure simplification.</td>
 114:Generated_Source\PSoC6\pdl\drivers/peripheral/gpio/cy_gpio.h **** *   </tr>
 115:Generated_Source\PSoC6\pdl\drivers/peripheral/gpio/cy_gpio.h **** *   <tr>
 116:Generated_Source\PSoC6\pdl\drivers/peripheral/gpio/cy_gpio.h **** *     <td>Added the functions for configuring the AMux bus splitter switch cells:
 117:Generated_Source\PSoC6\pdl\drivers/peripheral/gpio/cy_gpio.h **** *     - \ref Cy_GPIO_SetAmuxSplit
 118:Generated_Source\PSoC6\pdl\drivers/peripheral/gpio/cy_gpio.h **** *     - \ref Cy_GPIO_GetAmuxSplit
 119:Generated_Source\PSoC6\pdl\drivers/peripheral/gpio/cy_gpio.h **** *     </td>
 120:Generated_Source\PSoC6\pdl\drivers/peripheral/gpio/cy_gpio.h **** *     <td>Added a new functionality related to AMux bus.</td>
 121:Generated_Source\PSoC6\pdl\drivers/peripheral/gpio/cy_gpio.h **** *   </tr>
 122:Generated_Source\PSoC6\pdl\drivers/peripheral/gpio/cy_gpio.h **** *   <tr>
 123:Generated_Source\PSoC6\pdl\drivers/peripheral/gpio/cy_gpio.h **** *     <td>Added register access layer. Use register access macros instead
 124:Generated_Source\PSoC6\pdl\drivers/peripheral/gpio/cy_gpio.h **** *         of direct register access using dereferenced pointers.</td>
 125:Generated_Source\PSoC6\pdl\drivers/peripheral/gpio/cy_gpio.h **** *     <td>Makes register access device-independent, so that the PDL does 
 126:Generated_Source\PSoC6\pdl\drivers/peripheral/gpio/cy_gpio.h **** *         not need to be recompiled for each supported part number.</td>
 127:Generated_Source\PSoC6\pdl\drivers/peripheral/gpio/cy_gpio.h **** *   </tr>
 128:Generated_Source\PSoC6\pdl\drivers/peripheral/gpio/cy_gpio.h **** *   <tr>
 129:Generated_Source\PSoC6\pdl\drivers/peripheral/gpio/cy_gpio.h **** *     <td>1.10.1</td>
 130:Generated_Source\PSoC6\pdl\drivers/peripheral/gpio/cy_gpio.h **** *     <td>Updated description for the functions: \ref Cy_GPIO_GetInterruptStatus, 
 131:Generated_Source\PSoC6\pdl\drivers/peripheral/gpio/cy_gpio.h **** *         \ref Cy_GPIO_GetInterruptMask, \ref Cy_GPIO_GetInterruptStatusMasked.
 132:Generated_Source\PSoC6\pdl\drivers/peripheral/gpio/cy_gpio.h **** *
 133:Generated_Source\PSoC6\pdl\drivers/peripheral/gpio/cy_gpio.h **** *         Minor documentation edits.
 134:Generated_Source\PSoC6\pdl\drivers/peripheral/gpio/cy_gpio.h **** *     </td>
 135:Generated_Source\PSoC6\pdl\drivers/peripheral/gpio/cy_gpio.h **** *     <td>Documentation update and clarification</td>
 136:Generated_Source\PSoC6\pdl\drivers/peripheral/gpio/cy_gpio.h **** *   </tr>
 137:Generated_Source\PSoC6\pdl\drivers/peripheral/gpio/cy_gpio.h **** *   <tr>
 138:Generated_Source\PSoC6\pdl\drivers/peripheral/gpio/cy_gpio.h **** *     <td>1.10</td>
 139:Generated_Source\PSoC6\pdl\drivers/peripheral/gpio/cy_gpio.h **** *     <td>Added input parameter validation to the API functions</td>
 140:Generated_Source\PSoC6\pdl\drivers/peripheral/gpio/cy_gpio.h **** *     <td></td>
 141:Generated_Source\PSoC6\pdl\drivers/peripheral/gpio/cy_gpio.h **** *   </tr>
 142:Generated_Source\PSoC6\pdl\drivers/peripheral/gpio/cy_gpio.h **** *   <tr>
 143:Generated_Source\PSoC6\pdl\drivers/peripheral/gpio/cy_gpio.h **** *     <td>1.0</td>
 144:Generated_Source\PSoC6\pdl\drivers/peripheral/gpio/cy_gpio.h **** *     <td>Initial version</td>
 145:Generated_Source\PSoC6\pdl\drivers/peripheral/gpio/cy_gpio.h **** *     <td></td>
 146:Generated_Source\PSoC6\pdl\drivers/peripheral/gpio/cy_gpio.h **** *   </tr>
 147:Generated_Source\PSoC6\pdl\drivers/peripheral/gpio/cy_gpio.h **** * </table>
 148:Generated_Source\PSoC6\pdl\drivers/peripheral/gpio/cy_gpio.h **** *
 149:Generated_Source\PSoC6\pdl\drivers/peripheral/gpio/cy_gpio.h **** * \defgroup group_gpio_macros Macros
 150:Generated_Source\PSoC6\pdl\drivers/peripheral/gpio/cy_gpio.h **** * \defgroup group_gpio_functions Functions
 151:Generated_Source\PSoC6\pdl\drivers/peripheral/gpio/cy_gpio.h **** * \{
 152:Generated_Source\PSoC6\pdl\drivers/peripheral/gpio/cy_gpio.h **** *   \defgroup group_gpio_functions_init       Initialization Functions
 153:Generated_Source\PSoC6\pdl\drivers/peripheral/gpio/cy_gpio.h **** *   \defgroup group_gpio_functions_gpio       GPIO Functions
 154:Generated_Source\PSoC6\pdl\drivers/peripheral/gpio/cy_gpio.h **** *   \defgroup group_gpio_functions_sio        SIO Functions
 155:Generated_Source\PSoC6\pdl\drivers/peripheral/gpio/cy_gpio.h **** *   \defgroup group_gpio_functions_interrupt  Port Interrupt Functions
 156:Generated_Source\PSoC6\pdl\drivers/peripheral/gpio/cy_gpio.h **** * \}
 157:Generated_Source\PSoC6\pdl\drivers/peripheral/gpio/cy_gpio.h **** * \defgroup group_gpio_data_structures Data Structures
 158:Generated_Source\PSoC6\pdl\drivers/peripheral/gpio/cy_gpio.h **** * \defgroup group_gpio_enums Enumerated Types
ARM GAS  C:\Users\jlabe\AppData\Local\Temp\ccJbzXZ1.s 			page 37


 159:Generated_Source\PSoC6\pdl\drivers/peripheral/gpio/cy_gpio.h **** */
 160:Generated_Source\PSoC6\pdl\drivers/peripheral/gpio/cy_gpio.h **** 
 161:Generated_Source\PSoC6\pdl\drivers/peripheral/gpio/cy_gpio.h **** #if !defined(CY_GPIO_H)
 162:Generated_Source\PSoC6\pdl\drivers/peripheral/gpio/cy_gpio.h **** #define CY_GPIO_H
 163:Generated_Source\PSoC6\pdl\drivers/peripheral/gpio/cy_gpio.h **** 
 164:Generated_Source\PSoC6\pdl\drivers/peripheral/gpio/cy_gpio.h **** #include <stddef.h>
 165:Generated_Source\PSoC6\pdl\drivers/peripheral/gpio/cy_gpio.h **** #include "cy_device.h"
 166:Generated_Source\PSoC6\pdl\drivers/peripheral/gpio/cy_gpio.h **** #include "cy_device_headers.h"
 167:Generated_Source\PSoC6\pdl\drivers/peripheral/gpio/cy_gpio.h **** #include "cy_syslib.h"
 168:Generated_Source\PSoC6\pdl\drivers/peripheral/gpio/cy_gpio.h **** 
 169:Generated_Source\PSoC6\pdl\drivers/peripheral/gpio/cy_gpio.h **** #if defined(__cplusplus)
 170:Generated_Source\PSoC6\pdl\drivers/peripheral/gpio/cy_gpio.h **** extern "C" {
 171:Generated_Source\PSoC6\pdl\drivers/peripheral/gpio/cy_gpio.h **** #endif
 172:Generated_Source\PSoC6\pdl\drivers/peripheral/gpio/cy_gpio.h **** 
 173:Generated_Source\PSoC6\pdl\drivers/peripheral/gpio/cy_gpio.h **** /** \addtogroup group_gpio_macros
 174:Generated_Source\PSoC6\pdl\drivers/peripheral/gpio/cy_gpio.h **** * \{
 175:Generated_Source\PSoC6\pdl\drivers/peripheral/gpio/cy_gpio.h **** */
 176:Generated_Source\PSoC6\pdl\drivers/peripheral/gpio/cy_gpio.h **** 
 177:Generated_Source\PSoC6\pdl\drivers/peripheral/gpio/cy_gpio.h **** /** Driver major version */
 178:Generated_Source\PSoC6\pdl\drivers/peripheral/gpio/cy_gpio.h **** #define CY_GPIO_DRV_VERSION_MAJOR       1
 179:Generated_Source\PSoC6\pdl\drivers/peripheral/gpio/cy_gpio.h **** 
 180:Generated_Source\PSoC6\pdl\drivers/peripheral/gpio/cy_gpio.h **** /** Driver minor version */
 181:Generated_Source\PSoC6\pdl\drivers/peripheral/gpio/cy_gpio.h **** #define CY_GPIO_DRV_VERSION_MINOR       20
 182:Generated_Source\PSoC6\pdl\drivers/peripheral/gpio/cy_gpio.h **** 
 183:Generated_Source\PSoC6\pdl\drivers/peripheral/gpio/cy_gpio.h **** /** GPIO driver ID */
 184:Generated_Source\PSoC6\pdl\drivers/peripheral/gpio/cy_gpio.h **** #define CY_GPIO_ID CY_PDL_DRV_ID(0x16U)
 185:Generated_Source\PSoC6\pdl\drivers/peripheral/gpio/cy_gpio.h **** 
 186:Generated_Source\PSoC6\pdl\drivers/peripheral/gpio/cy_gpio.h **** /** \} group_gpio_macros */
 187:Generated_Source\PSoC6\pdl\drivers/peripheral/gpio/cy_gpio.h **** 
 188:Generated_Source\PSoC6\pdl\drivers/peripheral/gpio/cy_gpio.h **** 
 189:Generated_Source\PSoC6\pdl\drivers/peripheral/gpio/cy_gpio.h **** /***************************************
 190:Generated_Source\PSoC6\pdl\drivers/peripheral/gpio/cy_gpio.h **** *       Enumerations
 191:Generated_Source\PSoC6\pdl\drivers/peripheral/gpio/cy_gpio.h **** ***************************************/
 192:Generated_Source\PSoC6\pdl\drivers/peripheral/gpio/cy_gpio.h **** /**
 193:Generated_Source\PSoC6\pdl\drivers/peripheral/gpio/cy_gpio.h **** * \addtogroup group_gpio_enums
 194:Generated_Source\PSoC6\pdl\drivers/peripheral/gpio/cy_gpio.h **** * \{
 195:Generated_Source\PSoC6\pdl\drivers/peripheral/gpio/cy_gpio.h **** */
 196:Generated_Source\PSoC6\pdl\drivers/peripheral/gpio/cy_gpio.h **** 
 197:Generated_Source\PSoC6\pdl\drivers/peripheral/gpio/cy_gpio.h **** /** GPIO Driver error codes */
 198:Generated_Source\PSoC6\pdl\drivers/peripheral/gpio/cy_gpio.h **** typedef enum 
 199:Generated_Source\PSoC6\pdl\drivers/peripheral/gpio/cy_gpio.h **** {
 200:Generated_Source\PSoC6\pdl\drivers/peripheral/gpio/cy_gpio.h ****     CY_GPIO_SUCCESS   = 0x00U,                                    /**< Returned successful */
 201:Generated_Source\PSoC6\pdl\drivers/peripheral/gpio/cy_gpio.h ****     CY_GPIO_BAD_PARAM = CY_GPIO_ID | CY_PDL_STATUS_ERROR | 0x01U, /**< Bad parameter was passed */
 202:Generated_Source\PSoC6\pdl\drivers/peripheral/gpio/cy_gpio.h **** } cy_en_gpio_status_t;
 203:Generated_Source\PSoC6\pdl\drivers/peripheral/gpio/cy_gpio.h **** 
 204:Generated_Source\PSoC6\pdl\drivers/peripheral/gpio/cy_gpio.h **** /** AMux switch open/close config */
 205:Generated_Source\PSoC6\pdl\drivers/peripheral/gpio/cy_gpio.h **** typedef enum
 206:Generated_Source\PSoC6\pdl\drivers/peripheral/gpio/cy_gpio.h **** {
 207:Generated_Source\PSoC6\pdl\drivers/peripheral/gpio/cy_gpio.h ****     CY_GPIO_AMUX_OPENALL,   /**< Open ground switch. Open right switch. Open left switch */
 208:Generated_Source\PSoC6\pdl\drivers/peripheral/gpio/cy_gpio.h ****     CY_GPIO_AMUX_L,         /**< Open ground switch. Open right switch. Close left switch */
 209:Generated_Source\PSoC6\pdl\drivers/peripheral/gpio/cy_gpio.h ****     CY_GPIO_AMUX_R,         /**< Open ground switch. Close right switch. Open left switch */
 210:Generated_Source\PSoC6\pdl\drivers/peripheral/gpio/cy_gpio.h ****     CY_GPIO_AMUX_LR,        /**< Open ground switch. Close right switch. Close left switch */
 211:Generated_Source\PSoC6\pdl\drivers/peripheral/gpio/cy_gpio.h ****     CY_GPIO_AMUX_G,         /**< Close ground switch. Open right switch. Open left switch */
 212:Generated_Source\PSoC6\pdl\drivers/peripheral/gpio/cy_gpio.h ****     CY_GPIO_AMUX_GL,        /**< Close ground switch. Open right switch. Close left switch */
 213:Generated_Source\PSoC6\pdl\drivers/peripheral/gpio/cy_gpio.h ****     CY_GPIO_AMUX_GR,        /**< Close ground switch. Close right switch. Open left switch */
 214:Generated_Source\PSoC6\pdl\drivers/peripheral/gpio/cy_gpio.h ****     CY_GPIO_AMUX_GLR,       /**< Close ground switch. Close right switch. Close left switch */
 215:Generated_Source\PSoC6\pdl\drivers/peripheral/gpio/cy_gpio.h **** }cy_en_gpio_amuxconnect_t;
ARM GAS  C:\Users\jlabe\AppData\Local\Temp\ccJbzXZ1.s 			page 38


 216:Generated_Source\PSoC6\pdl\drivers/peripheral/gpio/cy_gpio.h **** 
 217:Generated_Source\PSoC6\pdl\drivers/peripheral/gpio/cy_gpio.h **** /**
 218:Generated_Source\PSoC6\pdl\drivers/peripheral/gpio/cy_gpio.h **** * AMux Bus selection
 219:Generated_Source\PSoC6\pdl\drivers/peripheral/gpio/cy_gpio.h **** */
 220:Generated_Source\PSoC6\pdl\drivers/peripheral/gpio/cy_gpio.h **** typedef enum
 221:Generated_Source\PSoC6\pdl\drivers/peripheral/gpio/cy_gpio.h **** {
 222:Generated_Source\PSoC6\pdl\drivers/peripheral/gpio/cy_gpio.h ****     CY_GPIO_AMUXBUSA,       /**< AMuxBus A */
 223:Generated_Source\PSoC6\pdl\drivers/peripheral/gpio/cy_gpio.h ****     CY_GPIO_AMUXBUSB        /**< AMuxBus B */
 224:Generated_Source\PSoC6\pdl\drivers/peripheral/gpio/cy_gpio.h **** }cy_en_gpio_amuxselect_t;
 225:Generated_Source\PSoC6\pdl\drivers/peripheral/gpio/cy_gpio.h **** 
 226:Generated_Source\PSoC6\pdl\drivers/peripheral/gpio/cy_gpio.h **** /** \} group_gpio_enums */
 227:Generated_Source\PSoC6\pdl\drivers/peripheral/gpio/cy_gpio.h **** 
 228:Generated_Source\PSoC6\pdl\drivers/peripheral/gpio/cy_gpio.h **** 
 229:Generated_Source\PSoC6\pdl\drivers/peripheral/gpio/cy_gpio.h **** /***************************************
 230:Generated_Source\PSoC6\pdl\drivers/peripheral/gpio/cy_gpio.h **** *       Configuration Structures
 231:Generated_Source\PSoC6\pdl\drivers/peripheral/gpio/cy_gpio.h **** ***************************************/
 232:Generated_Source\PSoC6\pdl\drivers/peripheral/gpio/cy_gpio.h **** 
 233:Generated_Source\PSoC6\pdl\drivers/peripheral/gpio/cy_gpio.h **** /**
 234:Generated_Source\PSoC6\pdl\drivers/peripheral/gpio/cy_gpio.h **** * \addtogroup group_gpio_data_structures
 235:Generated_Source\PSoC6\pdl\drivers/peripheral/gpio/cy_gpio.h **** * \{
 236:Generated_Source\PSoC6\pdl\drivers/peripheral/gpio/cy_gpio.h **** */
 237:Generated_Source\PSoC6\pdl\drivers/peripheral/gpio/cy_gpio.h **** 
 238:Generated_Source\PSoC6\pdl\drivers/peripheral/gpio/cy_gpio.h **** /** This structure is used to initialize a port of GPIO pins */
 239:Generated_Source\PSoC6\pdl\drivers/peripheral/gpio/cy_gpio.h **** typedef struct 
 240:Generated_Source\PSoC6\pdl\drivers/peripheral/gpio/cy_gpio.h **** {
 241:Generated_Source\PSoC6\pdl\drivers/peripheral/gpio/cy_gpio.h ****     uint32_t out;           /**< Initial output data for the IO pins in the port */
 242:Generated_Source\PSoC6\pdl\drivers/peripheral/gpio/cy_gpio.h ****     uint32_t intrMask;      /**< Interrupt enable mask for the port interrupt */
 243:Generated_Source\PSoC6\pdl\drivers/peripheral/gpio/cy_gpio.h ****     uint32_t intrCfg;       /**< Port pin interrupt edge detection configuration */
 244:Generated_Source\PSoC6\pdl\drivers/peripheral/gpio/cy_gpio.h ****     uint32_t cfg;           /**< Port pin drive modes and input buffer enable configuration */
 245:Generated_Source\PSoC6\pdl\drivers/peripheral/gpio/cy_gpio.h ****     uint32_t cfgIn;         /**< Port pin input buffer configuration */
 246:Generated_Source\PSoC6\pdl\drivers/peripheral/gpio/cy_gpio.h ****     uint32_t cfgOut;        /**< Port pin output buffer configuration */
 247:Generated_Source\PSoC6\pdl\drivers/peripheral/gpio/cy_gpio.h ****     uint32_t cfgSIO;        /**< Port SIO pins configuration */
 248:Generated_Source\PSoC6\pdl\drivers/peripheral/gpio/cy_gpio.h ****     uint32_t sel0Active;    /**< HSIOM selection for port pins 0,1,2,3 */
 249:Generated_Source\PSoC6\pdl\drivers/peripheral/gpio/cy_gpio.h ****     uint32_t sel1Active;    /**< HSIOM selection for port pins 4,5,6,7 */
 250:Generated_Source\PSoC6\pdl\drivers/peripheral/gpio/cy_gpio.h **** } cy_stc_gpio_prt_config_t;
 251:Generated_Source\PSoC6\pdl\drivers/peripheral/gpio/cy_gpio.h **** 
 252:Generated_Source\PSoC6\pdl\drivers/peripheral/gpio/cy_gpio.h **** /** This structure is used to initialize a single GPIO pin */
 253:Generated_Source\PSoC6\pdl\drivers/peripheral/gpio/cy_gpio.h **** typedef struct
 254:Generated_Source\PSoC6\pdl\drivers/peripheral/gpio/cy_gpio.h **** {
 255:Generated_Source\PSoC6\pdl\drivers/peripheral/gpio/cy_gpio.h ****     uint32_t outVal;         /**< Pin output state */
 256:Generated_Source\PSoC6\pdl\drivers/peripheral/gpio/cy_gpio.h ****     uint32_t driveMode;      /**< Drive mode */
 257:Generated_Source\PSoC6\pdl\drivers/peripheral/gpio/cy_gpio.h ****     en_hsiom_sel_t hsiom;    /**< HSIOM selection */
 258:Generated_Source\PSoC6\pdl\drivers/peripheral/gpio/cy_gpio.h ****     uint32_t intEdge;        /**< Interrupt Edge type */
 259:Generated_Source\PSoC6\pdl\drivers/peripheral/gpio/cy_gpio.h ****     uint32_t intMask;        /**< Interrupt enable mask */
 260:Generated_Source\PSoC6\pdl\drivers/peripheral/gpio/cy_gpio.h ****     uint32_t vtrip;          /**< Input buffer voltage trip type */
 261:Generated_Source\PSoC6\pdl\drivers/peripheral/gpio/cy_gpio.h ****     uint32_t slewRate;       /**< Output buffer slew rate */
 262:Generated_Source\PSoC6\pdl\drivers/peripheral/gpio/cy_gpio.h ****     uint32_t driveSel;       /**< Drive strength */
 263:Generated_Source\PSoC6\pdl\drivers/peripheral/gpio/cy_gpio.h ****     uint32_t vregEn;         /**< SIO pair output buffer mode */
 264:Generated_Source\PSoC6\pdl\drivers/peripheral/gpio/cy_gpio.h ****     uint32_t ibufMode;       /**< SIO pair input buffer mode */
 265:Generated_Source\PSoC6\pdl\drivers/peripheral/gpio/cy_gpio.h ****     uint32_t vtripSel;       /**< SIO pair input buffer trip point */
 266:Generated_Source\PSoC6\pdl\drivers/peripheral/gpio/cy_gpio.h ****     uint32_t vrefSel;        /**< SIO pair reference voltage for input buffer trip point */
 267:Generated_Source\PSoC6\pdl\drivers/peripheral/gpio/cy_gpio.h ****     uint32_t vohSel;         /**< SIO pair regulated voltage output level */
 268:Generated_Source\PSoC6\pdl\drivers/peripheral/gpio/cy_gpio.h **** } cy_stc_gpio_pin_config_t;
 269:Generated_Source\PSoC6\pdl\drivers/peripheral/gpio/cy_gpio.h **** 
 270:Generated_Source\PSoC6\pdl\drivers/peripheral/gpio/cy_gpio.h **** /** \} group_gpio_data_structures */
 271:Generated_Source\PSoC6\pdl\drivers/peripheral/gpio/cy_gpio.h **** 
 272:Generated_Source\PSoC6\pdl\drivers/peripheral/gpio/cy_gpio.h **** /***************************************
ARM GAS  C:\Users\jlabe\AppData\Local\Temp\ccJbzXZ1.s 			page 39


 273:Generated_Source\PSoC6\pdl\drivers/peripheral/gpio/cy_gpio.h **** *        Constants
 274:Generated_Source\PSoC6\pdl\drivers/peripheral/gpio/cy_gpio.h **** ***************************************/
 275:Generated_Source\PSoC6\pdl\drivers/peripheral/gpio/cy_gpio.h **** 
 276:Generated_Source\PSoC6\pdl\drivers/peripheral/gpio/cy_gpio.h **** /** \cond INTERNAL */
 277:Generated_Source\PSoC6\pdl\drivers/peripheral/gpio/cy_gpio.h **** 
 278:Generated_Source\PSoC6\pdl\drivers/peripheral/gpio/cy_gpio.h **** /* General Constants */
 279:Generated_Source\PSoC6\pdl\drivers/peripheral/gpio/cy_gpio.h **** #define CY_GPIO_PRT_HALF                       (4UL)      /**< Half-way point of a GPIO port */
 280:Generated_Source\PSoC6\pdl\drivers/peripheral/gpio/cy_gpio.h **** #define CY_GPIO_PRT_DEINIT                     (0UL)      /**< De-init value for port registers */
 281:Generated_Source\PSoC6\pdl\drivers/peripheral/gpio/cy_gpio.h **** 
 282:Generated_Source\PSoC6\pdl\drivers/peripheral/gpio/cy_gpio.h **** /* GPIO Masks */
 283:Generated_Source\PSoC6\pdl\drivers/peripheral/gpio/cy_gpio.h **** #define CY_GPIO_HSIOM_MASK                     (0x1FUL)   /**< HSIOM selection mask */
 284:Generated_Source\PSoC6\pdl\drivers/peripheral/gpio/cy_gpio.h **** #define CY_GPIO_OUT_MASK                       (0x01UL)   /**< Single pin mask for OUT register */
 285:Generated_Source\PSoC6\pdl\drivers/peripheral/gpio/cy_gpio.h **** #define CY_GPIO_IN_MASK                        (0x01UL)   /**< Single pin mask for IN register */
 286:Generated_Source\PSoC6\pdl\drivers/peripheral/gpio/cy_gpio.h **** #define CY_GPIO_CFG_DM_MASK                    (0x0FUL)   /**< Single pin mask for drive mode in CF
 287:Generated_Source\PSoC6\pdl\drivers/peripheral/gpio/cy_gpio.h **** #define CY_GPIO_CFG_IN_VTRIP_SEL_MASK          (0x01UL)   /**< Single pin mask for VTRIP selection 
 288:Generated_Source\PSoC6\pdl\drivers/peripheral/gpio/cy_gpio.h **** #define CY_GPIO_CFG_OUT_SLOW_MASK              (0x01UL)   /**< Single pin mask for slew rate in CFG
 289:Generated_Source\PSoC6\pdl\drivers/peripheral/gpio/cy_gpio.h **** #define CY_GPIO_CFG_OUT_DRIVE_SEL_MASK         (0x03UL)   /**< Single pin mask for drive strength i
 290:Generated_Source\PSoC6\pdl\drivers/peripheral/gpio/cy_gpio.h **** #define CY_GPIO_INTR_STATUS_MASK               (0x01UL)   /**< Single pin mask for interrupt status
 291:Generated_Source\PSoC6\pdl\drivers/peripheral/gpio/cy_gpio.h **** #define CY_GPIO_INTR_EN_MASK                   (0x01UL)   /**< Single pin mask for interrupt status
 292:Generated_Source\PSoC6\pdl\drivers/peripheral/gpio/cy_gpio.h **** #define CY_GPIO_INTR_MASKED_MASK               (0x01UL)   /**< Single pin mask for masked interrupt
 293:Generated_Source\PSoC6\pdl\drivers/peripheral/gpio/cy_gpio.h **** #define CY_GPIO_INTR_SET_MASK                  (0x01UL)   /**< Single pin mask for setting the inte
 294:Generated_Source\PSoC6\pdl\drivers/peripheral/gpio/cy_gpio.h **** #define CY_GPIO_INTR_EDGE_MASK                 (0x03UL)   /**< Single pin mask for interrupt edge t
 295:Generated_Source\PSoC6\pdl\drivers/peripheral/gpio/cy_gpio.h **** #define CY_GPIO_INTR_FLT_EDGE_MASK             (0x07UL)   /**< Single pin mask for setting filtered
 296:Generated_Source\PSoC6\pdl\drivers/peripheral/gpio/cy_gpio.h **** 
 297:Generated_Source\PSoC6\pdl\drivers/peripheral/gpio/cy_gpio.h **** /* SIO Masks */
 298:Generated_Source\PSoC6\pdl\drivers/peripheral/gpio/cy_gpio.h **** #define CY_GPIO_VREG_EN_MASK                   (0x01UL)   /**< Single SIO pin mask for voltage regu
 299:Generated_Source\PSoC6\pdl\drivers/peripheral/gpio/cy_gpio.h **** #define CY_GPIO_IBUF_MASK                      (0x01UL)   /**< Single SIO pin mask for input buffer
 300:Generated_Source\PSoC6\pdl\drivers/peripheral/gpio/cy_gpio.h **** #define CY_GPIO_IBUF_SHIFT                     (0x01UL)   /**< Single SIO pin shift for input buffe
 301:Generated_Source\PSoC6\pdl\drivers/peripheral/gpio/cy_gpio.h **** #define CY_GPIO_VTRIP_SEL_MASK                 (0x01UL)   /**< Single SIO pin mask for the input bu
 302:Generated_Source\PSoC6\pdl\drivers/peripheral/gpio/cy_gpio.h **** #define CY_GPIO_VTRIP_SEL_SHIFT                (0x02UL)   /**< Single SIO pin shift for the input b
 303:Generated_Source\PSoC6\pdl\drivers/peripheral/gpio/cy_gpio.h **** #define CY_GPIO_VREF_SEL_MASK                  (0x03UL)   /**< Single SIO pin mask for voltage refe
 304:Generated_Source\PSoC6\pdl\drivers/peripheral/gpio/cy_gpio.h **** #define CY_GPIO_VREF_SEL_SHIFT                 (0x03UL)   /**< Single SIO pin shift for voltage ref
 305:Generated_Source\PSoC6\pdl\drivers/peripheral/gpio/cy_gpio.h **** #define CY_GPIO_VOH_SEL_MASK                   (0x07UL)   /**< Single SIO pin mask for VOH */
 306:Generated_Source\PSoC6\pdl\drivers/peripheral/gpio/cy_gpio.h **** #define CY_GPIO_VOH_SEL_SHIFT                  (0x05UL)   /**< Single SIO pin shift for VOH */
 307:Generated_Source\PSoC6\pdl\drivers/peripheral/gpio/cy_gpio.h **** 
 308:Generated_Source\PSoC6\pdl\drivers/peripheral/gpio/cy_gpio.h **** /* Special mask for SIO pin pair setting */
 309:Generated_Source\PSoC6\pdl\drivers/peripheral/gpio/cy_gpio.h **** #define CY_GPIO_SIO_ODD_PIN_MASK               (0x00FEUL) /**< SIO pin pair selection mask */
 310:Generated_Source\PSoC6\pdl\drivers/peripheral/gpio/cy_gpio.h **** #define CY_GPIO_SIO_PIN_MASK                   (0x00FFUL) /**< SIO pin pair mask */
 311:Generated_Source\PSoC6\pdl\drivers/peripheral/gpio/cy_gpio.h **** 
 312:Generated_Source\PSoC6\pdl\drivers/peripheral/gpio/cy_gpio.h **** /* Offsets */
 313:Generated_Source\PSoC6\pdl\drivers/peripheral/gpio/cy_gpio.h **** #define CY_GPIO_HSIOM_OFFSET                   (3UL)      /**< Offset for HSIOM */
 314:Generated_Source\PSoC6\pdl\drivers/peripheral/gpio/cy_gpio.h **** #define CY_GPIO_DRIVE_MODE_OFFSET              (2UL)      /**< Offset for Drive mode */
 315:Generated_Source\PSoC6\pdl\drivers/peripheral/gpio/cy_gpio.h **** #define CY_GPIO_INBUF_OFFSET                   (3UL)      /**< Offset for input buffer */
 316:Generated_Source\PSoC6\pdl\drivers/peripheral/gpio/cy_gpio.h **** #define CY_GPIO_CFG_OUT_DRIVE_OFFSET           (16UL)     /**< Offset for drive strength */
 317:Generated_Source\PSoC6\pdl\drivers/peripheral/gpio/cy_gpio.h **** #define CY_GPIO_INTR_CFG_OFFSET                (1UL)      /**< Offset for interrupt config */
 318:Generated_Source\PSoC6\pdl\drivers/peripheral/gpio/cy_gpio.h **** #define CY_GPIO_INTR_FILT_OFFSET               (18UL)     /**< Offset for filtered interrupt config
 319:Generated_Source\PSoC6\pdl\drivers/peripheral/gpio/cy_gpio.h **** #define CY_GPIO_CFG_SIO_OFFSET                 (2UL)      /**< Offset for SIO config */
 320:Generated_Source\PSoC6\pdl\drivers/peripheral/gpio/cy_gpio.h **** 
 321:Generated_Source\PSoC6\pdl\drivers/peripheral/gpio/cy_gpio.h **** /* Parameter validation constants */
 322:Generated_Source\PSoC6\pdl\drivers/peripheral/gpio/cy_gpio.h **** #define CY_GPIO_PINS_MAX                       (8UL)      /**< Number of pins in the port */
 323:Generated_Source\PSoC6\pdl\drivers/peripheral/gpio/cy_gpio.h **** #define CY_GPIO_PRT_PINS_MASK                  (0x0000000FFUL)
 324:Generated_Source\PSoC6\pdl\drivers/peripheral/gpio/cy_gpio.h **** #define CY_GPIO_PRT_INTR_CFG_EDGE_SEL_MASK     (GPIO_PRT_INTR_CFG_EDGE0_SEL_Msk | \
 325:Generated_Source\PSoC6\pdl\drivers/peripheral/gpio/cy_gpio.h ****                                                 GPIO_PRT_INTR_CFG_EDGE1_SEL_Msk | \
 326:Generated_Source\PSoC6\pdl\drivers/peripheral/gpio/cy_gpio.h ****                                                 GPIO_PRT_INTR_CFG_EDGE2_SEL_Msk | \
 327:Generated_Source\PSoC6\pdl\drivers/peripheral/gpio/cy_gpio.h ****                                                 GPIO_PRT_INTR_CFG_EDGE3_SEL_Msk | \
 328:Generated_Source\PSoC6\pdl\drivers/peripheral/gpio/cy_gpio.h ****                                                 GPIO_PRT_INTR_CFG_EDGE4_SEL_Msk | \
 329:Generated_Source\PSoC6\pdl\drivers/peripheral/gpio/cy_gpio.h ****                                                 GPIO_PRT_INTR_CFG_EDGE5_SEL_Msk | \
ARM GAS  C:\Users\jlabe\AppData\Local\Temp\ccJbzXZ1.s 			page 40


 330:Generated_Source\PSoC6\pdl\drivers/peripheral/gpio/cy_gpio.h ****                                                 GPIO_PRT_INTR_CFG_EDGE6_SEL_Msk | \
 331:Generated_Source\PSoC6\pdl\drivers/peripheral/gpio/cy_gpio.h ****                                                 GPIO_PRT_INTR_CFG_EDGE7_SEL_Msk)
 332:Generated_Source\PSoC6\pdl\drivers/peripheral/gpio/cy_gpio.h **** #define CY_GPIO_PRT_INTR_CFG_RANGE_MASK        (CY_GPIO_PRT_INTR_CFG_EDGE_SEL_MASK | \
 333:Generated_Source\PSoC6\pdl\drivers/peripheral/gpio/cy_gpio.h ****                                                 GPIO_PRT_INTR_CFG_FLT_EDGE_SEL_Msk | \
 334:Generated_Source\PSoC6\pdl\drivers/peripheral/gpio/cy_gpio.h ****                                                 GPIO_PRT_INTR_CFG_FLT_SEL_Msk)
 335:Generated_Source\PSoC6\pdl\drivers/peripheral/gpio/cy_gpio.h **** #define CY_GPIO_PRT_INT_MASK_MASK              (0x0000001FFUL)
 336:Generated_Source\PSoC6\pdl\drivers/peripheral/gpio/cy_gpio.h **** #define CY_GPIO_PRT_SEL_ACTIVE_MASK            (0x1FFFFFFFUL)
 337:Generated_Source\PSoC6\pdl\drivers/peripheral/gpio/cy_gpio.h **** 
 338:Generated_Source\PSoC6\pdl\drivers/peripheral/gpio/cy_gpio.h **** #define GPIO_MAX_SPLIT_CELL_SEGMENTS           (9U)
 339:Generated_Source\PSoC6\pdl\drivers/peripheral/gpio/cy_gpio.h **** 
 340:Generated_Source\PSoC6\pdl\drivers/peripheral/gpio/cy_gpio.h **** /* Parameter validation macros */
 341:Generated_Source\PSoC6\pdl\drivers/peripheral/gpio/cy_gpio.h **** #define CY_GPIO_IS_PIN_VALID(pinNum)           (CY_GPIO_PINS_MAX > (pinNum))
 342:Generated_Source\PSoC6\pdl\drivers/peripheral/gpio/cy_gpio.h **** #define CY_GPIO_IS_FILTER_PIN_VALID(pinNum)    (CY_GPIO_PINS_MAX >= (pinNum))
 343:Generated_Source\PSoC6\pdl\drivers/peripheral/gpio/cy_gpio.h **** #define CY_GPIO_IS_VALUE_VALID(outVal)         (1UL >= (outVal))
 344:Generated_Source\PSoC6\pdl\drivers/peripheral/gpio/cy_gpio.h **** #define CY_GPIO_IS_DM_VALID(driveMode)         (0U == ((driveMode) & (uint32_t)~CY_GPIO_CFG_DM_MASK
 345:Generated_Source\PSoC6\pdl\drivers/peripheral/gpio/cy_gpio.h **** 
 346:Generated_Source\PSoC6\pdl\drivers/peripheral/gpio/cy_gpio.h **** #define CY_GPIO_IS_HSIOM_VALID(hsiom)          (0U == ((hsiom) & (uint32_t)~CY_GPIO_HSIOM_MASK))
 347:Generated_Source\PSoC6\pdl\drivers/peripheral/gpio/cy_gpio.h **** 
 348:Generated_Source\PSoC6\pdl\drivers/peripheral/gpio/cy_gpio.h **** #define CY_GPIO_IS_INT_EDGE_VALID(intEdge)     ((CY_GPIO_INTR_DISABLE  == (intEdge)) || \
 349:Generated_Source\PSoC6\pdl\drivers/peripheral/gpio/cy_gpio.h ****                                                 (CY_GPIO_INTR_RISING   == (intEdge)) || \
 350:Generated_Source\PSoC6\pdl\drivers/peripheral/gpio/cy_gpio.h ****                                                 (CY_GPIO_INTR_FALLING  == (intEdge)) || \
 351:Generated_Source\PSoC6\pdl\drivers/peripheral/gpio/cy_gpio.h ****                                                 (CY_GPIO_INTR_BOTH     == (intEdge)))
 352:Generated_Source\PSoC6\pdl\drivers/peripheral/gpio/cy_gpio.h **** 
 353:Generated_Source\PSoC6\pdl\drivers/peripheral/gpio/cy_gpio.h **** #define CY_GPIO_IS_DRIVE_SEL_VALID(driveSel)   ((CY_GPIO_DRIVE_FULL    == (driveSel)) || \
 354:Generated_Source\PSoC6\pdl\drivers/peripheral/gpio/cy_gpio.h ****                                                 (CY_GPIO_DRIVE_1_2     == (driveSel)) || \
 355:Generated_Source\PSoC6\pdl\drivers/peripheral/gpio/cy_gpio.h ****                                                 (CY_GPIO_DRIVE_1_4     == (driveSel)) || \
 356:Generated_Source\PSoC6\pdl\drivers/peripheral/gpio/cy_gpio.h ****                                                 (CY_GPIO_DRIVE_1_8     == (driveSel)))
 357:Generated_Source\PSoC6\pdl\drivers/peripheral/gpio/cy_gpio.h **** 
 358:Generated_Source\PSoC6\pdl\drivers/peripheral/gpio/cy_gpio.h **** #define CY_GPIO_IS_VREF_SEL_VALID(vrefSel)     ((CY_SIO_VREF_PINREF    == (vrefSel)) || \
 359:Generated_Source\PSoC6\pdl\drivers/peripheral/gpio/cy_gpio.h ****                                                 (CY_SIO_VREF_1_2V      == (vrefSel)) || \
 360:Generated_Source\PSoC6\pdl\drivers/peripheral/gpio/cy_gpio.h ****                                                 (CY_SIO_VREF_AMUX_A    == (vrefSel)) || \
 361:Generated_Source\PSoC6\pdl\drivers/peripheral/gpio/cy_gpio.h ****                                                 (CY_SIO_VREF_AMUX_B    == (vrefSel)))
 362:Generated_Source\PSoC6\pdl\drivers/peripheral/gpio/cy_gpio.h **** 
 363:Generated_Source\PSoC6\pdl\drivers/peripheral/gpio/cy_gpio.h **** #define CY_GPIO_IS_VOH_SEL_VALID(vrefSel)      ((CY_SIO_VOH_1_00       == (vrefSel)) || \
 364:Generated_Source\PSoC6\pdl\drivers/peripheral/gpio/cy_gpio.h ****                                                 (CY_SIO_VOH_1_25       == (vrefSel)) || \
 365:Generated_Source\PSoC6\pdl\drivers/peripheral/gpio/cy_gpio.h ****                                                 (CY_SIO_VOH_1_49       == (vrefSel)) || \
 366:Generated_Source\PSoC6\pdl\drivers/peripheral/gpio/cy_gpio.h ****                                                 (CY_SIO_VOH_1_67       == (vrefSel)) || \
 367:Generated_Source\PSoC6\pdl\drivers/peripheral/gpio/cy_gpio.h ****                                                 (CY_SIO_VOH_2_08       == (vrefSel)) || \
 368:Generated_Source\PSoC6\pdl\drivers/peripheral/gpio/cy_gpio.h ****                                                 (CY_SIO_VOH_2_50       == (vrefSel)) || \
 369:Generated_Source\PSoC6\pdl\drivers/peripheral/gpio/cy_gpio.h ****                                                 (CY_SIO_VOH_2_78       == (vrefSel)) || \
 370:Generated_Source\PSoC6\pdl\drivers/peripheral/gpio/cy_gpio.h ****                                                 (CY_SIO_VOH_4_16       == (vrefSel)))
 371:Generated_Source\PSoC6\pdl\drivers/peripheral/gpio/cy_gpio.h ****                    
 372:Generated_Source\PSoC6\pdl\drivers/peripheral/gpio/cy_gpio.h **** #define CY_GPIO_IS_PIN_BIT_VALID(pinBit)       (0U == ((pinBit) & (uint32_t)~CY_GPIO_PRT_PINS_MASK)
 373:Generated_Source\PSoC6\pdl\drivers/peripheral/gpio/cy_gpio.h **** #define CY_GPIO_IS_INTR_CFG_VALID(intrCfg)     (0U == ((intrCfg) & (uint32_t)~CY_GPIO_PRT_INTR_CFG_
 374:Generated_Source\PSoC6\pdl\drivers/peripheral/gpio/cy_gpio.h **** #define CY_GPIO_IS_INTR_MASK_VALID(intrMask)   (0U == ((intrMask) & (uint32_t)~CY_GPIO_PRT_INT_MASK
 375:Generated_Source\PSoC6\pdl\drivers/peripheral/gpio/cy_gpio.h **** #define CY_GPIO_IS_SEL_ACT_VALID(selActive)    (0U == ((selActive) & (uint32_t)~CY_GPIO_PRT_SEL_ACT
 376:Generated_Source\PSoC6\pdl\drivers/peripheral/gpio/cy_gpio.h **** 
 377:Generated_Source\PSoC6\pdl\drivers/peripheral/gpio/cy_gpio.h **** #define CY_GPIO_IS_AMUX_SPLIT_VALID(switchCtrl)       (((uint32_t) (switchCtrl)) < GPIO_MAX_SPLIT_C
 378:Generated_Source\PSoC6\pdl\drivers/peripheral/gpio/cy_gpio.h **** 
 379:Generated_Source\PSoC6\pdl\drivers/peripheral/gpio/cy_gpio.h **** #define CY_GPIO_IS_AMUX_CONNECT_VALID(amuxConnect)    ((CY_GPIO_AMUX_OPENALL == (amuxConnect)) || \
 380:Generated_Source\PSoC6\pdl\drivers/peripheral/gpio/cy_gpio.h ****                                                        (CY_GPIO_AMUX_L       == (amuxConnect)) || \
 381:Generated_Source\PSoC6\pdl\drivers/peripheral/gpio/cy_gpio.h ****                                                        (CY_GPIO_AMUX_R       == (amuxConnect)) || \
 382:Generated_Source\PSoC6\pdl\drivers/peripheral/gpio/cy_gpio.h ****                                                        (CY_GPIO_AMUX_LR      == (amuxConnect)) || \
 383:Generated_Source\PSoC6\pdl\drivers/peripheral/gpio/cy_gpio.h ****                                                        (CY_GPIO_AMUX_G       == (amuxConnect)) || \
 384:Generated_Source\PSoC6\pdl\drivers/peripheral/gpio/cy_gpio.h ****                                                        (CY_GPIO_AMUX_GL      == (amuxConnect)) || \
 385:Generated_Source\PSoC6\pdl\drivers/peripheral/gpio/cy_gpio.h ****                                                        (CY_GPIO_AMUX_GR      == (amuxConnect)) || \
 386:Generated_Source\PSoC6\pdl\drivers/peripheral/gpio/cy_gpio.h ****                                                        (CY_GPIO_AMUX_GLR     == (amuxConnect)))
ARM GAS  C:\Users\jlabe\AppData\Local\Temp\ccJbzXZ1.s 			page 41


 387:Generated_Source\PSoC6\pdl\drivers/peripheral/gpio/cy_gpio.h **** 
 388:Generated_Source\PSoC6\pdl\drivers/peripheral/gpio/cy_gpio.h **** #define CY_GPIO_IS_AMUX_SELECT_VALID(amuxBus)       ((CY_GPIO_AMUXBUSA       == (amuxBus)) || \
 389:Generated_Source\PSoC6\pdl\drivers/peripheral/gpio/cy_gpio.h ****                                                      (CY_GPIO_AMUXBUSB       == (amuxBus)))
 390:Generated_Source\PSoC6\pdl\drivers/peripheral/gpio/cy_gpio.h **** /** \endcond */
 391:Generated_Source\PSoC6\pdl\drivers/peripheral/gpio/cy_gpio.h **** 
 392:Generated_Source\PSoC6\pdl\drivers/peripheral/gpio/cy_gpio.h **** 
 393:Generated_Source\PSoC6\pdl\drivers/peripheral/gpio/cy_gpio.h **** /***************************************
 394:Generated_Source\PSoC6\pdl\drivers/peripheral/gpio/cy_gpio.h **** *        Function Constants
 395:Generated_Source\PSoC6\pdl\drivers/peripheral/gpio/cy_gpio.h **** ***************************************/
 396:Generated_Source\PSoC6\pdl\drivers/peripheral/gpio/cy_gpio.h **** 
 397:Generated_Source\PSoC6\pdl\drivers/peripheral/gpio/cy_gpio.h **** /**
 398:Generated_Source\PSoC6\pdl\drivers/peripheral/gpio/cy_gpio.h **** * \addtogroup group_gpio_macros
 399:Generated_Source\PSoC6\pdl\drivers/peripheral/gpio/cy_gpio.h **** * \{
 400:Generated_Source\PSoC6\pdl\drivers/peripheral/gpio/cy_gpio.h **** */
 401:Generated_Source\PSoC6\pdl\drivers/peripheral/gpio/cy_gpio.h **** 
 402:Generated_Source\PSoC6\pdl\drivers/peripheral/gpio/cy_gpio.h **** /**
 403:Generated_Source\PSoC6\pdl\drivers/peripheral/gpio/cy_gpio.h **** * \defgroup group_gpio_driveModes Pin drive mode
 404:Generated_Source\PSoC6\pdl\drivers/peripheral/gpio/cy_gpio.h **** * \{
 405:Generated_Source\PSoC6\pdl\drivers/peripheral/gpio/cy_gpio.h **** * Constants to be used for setting the drive mode of the pin.
 406:Generated_Source\PSoC6\pdl\drivers/peripheral/gpio/cy_gpio.h **** */
 407:Generated_Source\PSoC6\pdl\drivers/peripheral/gpio/cy_gpio.h **** #define CY_GPIO_DM_ANALOG                      (0x00UL) /**< Analog High-Z. Input buffer off */
 408:Generated_Source\PSoC6\pdl\drivers/peripheral/gpio/cy_gpio.h **** #define CY_GPIO_DM_PULLUP_IN_OFF               (0x02UL) /**< Resistive Pull-Up. Input buffer off */
 409:Generated_Source\PSoC6\pdl\drivers/peripheral/gpio/cy_gpio.h **** #define CY_GPIO_DM_PULLDOWN_IN_OFF             (0x03UL) /**< Resistive Pull-Down. Input buffer off 
 410:Generated_Source\PSoC6\pdl\drivers/peripheral/gpio/cy_gpio.h **** #define CY_GPIO_DM_OD_DRIVESLOW_IN_OFF         (0x04UL) /**< Open Drain, Drives Low. Input buffer o
 411:Generated_Source\PSoC6\pdl\drivers/peripheral/gpio/cy_gpio.h **** #define CY_GPIO_DM_OD_DRIVESHIGH_IN_OFF        (0x05UL) /**< Open Drain, Drives High. Input buffer 
 412:Generated_Source\PSoC6\pdl\drivers/peripheral/gpio/cy_gpio.h **** #define CY_GPIO_DM_STRONG_IN_OFF               (0x06UL) /**< Strong Drive. Input buffer off */
 413:Generated_Source\PSoC6\pdl\drivers/peripheral/gpio/cy_gpio.h **** #define CY_GPIO_DM_PULLUP_DOWN_IN_OFF          (0x07UL) /**< Resistive Pull-Up/Down. Input buffer o
 414:Generated_Source\PSoC6\pdl\drivers/peripheral/gpio/cy_gpio.h **** #define CY_GPIO_DM_HIGHZ                       (0x08UL) /**< Digital High-Z. Input buffer on */
 415:Generated_Source\PSoC6\pdl\drivers/peripheral/gpio/cy_gpio.h **** #define CY_GPIO_DM_PULLUP                      (0x0AUL) /**< Resistive Pull-Up. Input buffer on */
 416:Generated_Source\PSoC6\pdl\drivers/peripheral/gpio/cy_gpio.h **** #define CY_GPIO_DM_PULLDOWN                    (0x0BUL) /**< Resistive Pull-Down. Input buffer on *
 417:Generated_Source\PSoC6\pdl\drivers/peripheral/gpio/cy_gpio.h **** #define CY_GPIO_DM_OD_DRIVESLOW                (0x0CUL) /**< Open Drain, Drives Low. Input buffer o
 418:Generated_Source\PSoC6\pdl\drivers/peripheral/gpio/cy_gpio.h **** #define CY_GPIO_DM_OD_DRIVESHIGH               (0x0DUL) /**< Open Drain, Drives High. Input buffer 
 419:Generated_Source\PSoC6\pdl\drivers/peripheral/gpio/cy_gpio.h **** #define CY_GPIO_DM_STRONG                      (0x0EUL) /**< Strong Drive. Input buffer on */
 420:Generated_Source\PSoC6\pdl\drivers/peripheral/gpio/cy_gpio.h **** #define CY_GPIO_DM_PULLUP_DOWN                 (0x0FUL) /**< Resistive Pull-Up/Down. Input buffer o
 421:Generated_Source\PSoC6\pdl\drivers/peripheral/gpio/cy_gpio.h **** /** \} */
 422:Generated_Source\PSoC6\pdl\drivers/peripheral/gpio/cy_gpio.h **** 
 423:Generated_Source\PSoC6\pdl\drivers/peripheral/gpio/cy_gpio.h **** /**
 424:Generated_Source\PSoC6\pdl\drivers/peripheral/gpio/cy_gpio.h **** * \defgroup group_gpio_vtrip Voltage trip mode
 425:Generated_Source\PSoC6\pdl\drivers/peripheral/gpio/cy_gpio.h **** * \{
 426:Generated_Source\PSoC6\pdl\drivers/peripheral/gpio/cy_gpio.h **** * Constants to be used for setting the voltage trip type on the pin.
 427:Generated_Source\PSoC6\pdl\drivers/peripheral/gpio/cy_gpio.h **** */
 428:Generated_Source\PSoC6\pdl\drivers/peripheral/gpio/cy_gpio.h **** #define CY_GPIO_VTRIP_CMOS                     (0x00UL) /**< Input buffer compatible with CMOS and 
 429:Generated_Source\PSoC6\pdl\drivers/peripheral/gpio/cy_gpio.h **** #define CY_GPIO_VTRIP_TTL                      (0x01UL) /**< Input buffer compatible with TTL and M
 430:Generated_Source\PSoC6\pdl\drivers/peripheral/gpio/cy_gpio.h **** /** \} */
 431:Generated_Source\PSoC6\pdl\drivers/peripheral/gpio/cy_gpio.h **** 
 432:Generated_Source\PSoC6\pdl\drivers/peripheral/gpio/cy_gpio.h **** /**
 433:Generated_Source\PSoC6\pdl\drivers/peripheral/gpio/cy_gpio.h **** * \defgroup group_gpio_slewRate Slew Rate Mode
 434:Generated_Source\PSoC6\pdl\drivers/peripheral/gpio/cy_gpio.h **** * \{
 435:Generated_Source\PSoC6\pdl\drivers/peripheral/gpio/cy_gpio.h **** * Constants to be used for setting the slew rate of the pin.
 436:Generated_Source\PSoC6\pdl\drivers/peripheral/gpio/cy_gpio.h **** */
 437:Generated_Source\PSoC6\pdl\drivers/peripheral/gpio/cy_gpio.h **** #define CY_GPIO_SLEW_FAST                      (0x00UL) /**< Fast slew rate */
 438:Generated_Source\PSoC6\pdl\drivers/peripheral/gpio/cy_gpio.h **** #define CY_GPIO_SLEW_SLOW                      (0x01UL) /**< Slow slew rate */
 439:Generated_Source\PSoC6\pdl\drivers/peripheral/gpio/cy_gpio.h **** /** \} */
 440:Generated_Source\PSoC6\pdl\drivers/peripheral/gpio/cy_gpio.h **** 
 441:Generated_Source\PSoC6\pdl\drivers/peripheral/gpio/cy_gpio.h **** /**
 442:Generated_Source\PSoC6\pdl\drivers/peripheral/gpio/cy_gpio.h **** * \defgroup group_gpio_driveStrength Pin drive strength
 443:Generated_Source\PSoC6\pdl\drivers/peripheral/gpio/cy_gpio.h **** * \{
ARM GAS  C:\Users\jlabe\AppData\Local\Temp\ccJbzXZ1.s 			page 42


 444:Generated_Source\PSoC6\pdl\drivers/peripheral/gpio/cy_gpio.h **** * Constants to be used for setting the drive strength of the pin.
 445:Generated_Source\PSoC6\pdl\drivers/peripheral/gpio/cy_gpio.h **** */
 446:Generated_Source\PSoC6\pdl\drivers/peripheral/gpio/cy_gpio.h **** #define CY_GPIO_DRIVE_FULL                     (0x00UL) /**< Full drive strength: Max drive current
 447:Generated_Source\PSoC6\pdl\drivers/peripheral/gpio/cy_gpio.h **** #define CY_GPIO_DRIVE_1_2                      (0x01UL) /**< 1/2 drive strength: 1/2 drive current 
 448:Generated_Source\PSoC6\pdl\drivers/peripheral/gpio/cy_gpio.h **** #define CY_GPIO_DRIVE_1_4                      (0x02UL) /**< 1/4 drive strength: 1/4 drive current 
 449:Generated_Source\PSoC6\pdl\drivers/peripheral/gpio/cy_gpio.h **** #define CY_GPIO_DRIVE_1_8                      (0x03UL) /**< 1/8 drive strength: 1/8 drive current 
 450:Generated_Source\PSoC6\pdl\drivers/peripheral/gpio/cy_gpio.h **** /** \} */
 451:Generated_Source\PSoC6\pdl\drivers/peripheral/gpio/cy_gpio.h **** 
 452:Generated_Source\PSoC6\pdl\drivers/peripheral/gpio/cy_gpio.h **** /**
 453:Generated_Source\PSoC6\pdl\drivers/peripheral/gpio/cy_gpio.h **** * \defgroup group_gpio_interruptTrigger Interrupt trigger type
 454:Generated_Source\PSoC6\pdl\drivers/peripheral/gpio/cy_gpio.h **** * \{
 455:Generated_Source\PSoC6\pdl\drivers/peripheral/gpio/cy_gpio.h **** * Constants to be used for setting the interrupt trigger type on the pin.
 456:Generated_Source\PSoC6\pdl\drivers/peripheral/gpio/cy_gpio.h **** */
 457:Generated_Source\PSoC6\pdl\drivers/peripheral/gpio/cy_gpio.h **** #define CY_GPIO_INTR_DISABLE                   (0x00UL) /**< Disable the pin interrupt generation *
 458:Generated_Source\PSoC6\pdl\drivers/peripheral/gpio/cy_gpio.h **** #define CY_GPIO_INTR_RISING                    (0x01UL) /**< Rising-Edge interrupt */
 459:Generated_Source\PSoC6\pdl\drivers/peripheral/gpio/cy_gpio.h **** #define CY_GPIO_INTR_FALLING                   (0x02UL) /**< Falling-Edge interrupt */
 460:Generated_Source\PSoC6\pdl\drivers/peripheral/gpio/cy_gpio.h **** #define CY_GPIO_INTR_BOTH                      (0x03UL) /**< Both-Edge interrupt */
 461:Generated_Source\PSoC6\pdl\drivers/peripheral/gpio/cy_gpio.h **** /** \} */
 462:Generated_Source\PSoC6\pdl\drivers/peripheral/gpio/cy_gpio.h **** 
 463:Generated_Source\PSoC6\pdl\drivers/peripheral/gpio/cy_gpio.h **** /**
 464:Generated_Source\PSoC6\pdl\drivers/peripheral/gpio/cy_gpio.h **** * \defgroup group_gpio_sioVreg SIO output buffer mode
 465:Generated_Source\PSoC6\pdl\drivers/peripheral/gpio/cy_gpio.h **** * \{
 466:Generated_Source\PSoC6\pdl\drivers/peripheral/gpio/cy_gpio.h **** * Constants to be used for setting the SIO output buffer mode on the pin.
 467:Generated_Source\PSoC6\pdl\drivers/peripheral/gpio/cy_gpio.h **** */
 468:Generated_Source\PSoC6\pdl\drivers/peripheral/gpio/cy_gpio.h **** #define CY_SIO_VREG_UNREGULATED                (0x00UL) /**< Unregulated output buffer */
 469:Generated_Source\PSoC6\pdl\drivers/peripheral/gpio/cy_gpio.h **** #define CY_SIO_VREG_REGULATED                  (0x01UL) /**< Regulated output buffer */
 470:Generated_Source\PSoC6\pdl\drivers/peripheral/gpio/cy_gpio.h **** /** \} */
 471:Generated_Source\PSoC6\pdl\drivers/peripheral/gpio/cy_gpio.h **** 
 472:Generated_Source\PSoC6\pdl\drivers/peripheral/gpio/cy_gpio.h **** /**
 473:Generated_Source\PSoC6\pdl\drivers/peripheral/gpio/cy_gpio.h **** * \defgroup group_gpio_sioIbuf SIO input buffer mode
 474:Generated_Source\PSoC6\pdl\drivers/peripheral/gpio/cy_gpio.h **** * \{
 475:Generated_Source\PSoC6\pdl\drivers/peripheral/gpio/cy_gpio.h **** * Constants to be used for setting the SIO input buffer mode on the pin.
 476:Generated_Source\PSoC6\pdl\drivers/peripheral/gpio/cy_gpio.h **** */
 477:Generated_Source\PSoC6\pdl\drivers/peripheral/gpio/cy_gpio.h **** #define CY_SIO_IBUF_SINGLEENDED                (0x00UL) /**< Single ended input buffer */
 478:Generated_Source\PSoC6\pdl\drivers/peripheral/gpio/cy_gpio.h **** #define CY_SIO_IBUF_DIFFERENTIAL               (0x01UL) /**< Differential input buffer */
 479:Generated_Source\PSoC6\pdl\drivers/peripheral/gpio/cy_gpio.h **** /** \} */
 480:Generated_Source\PSoC6\pdl\drivers/peripheral/gpio/cy_gpio.h **** 
 481:Generated_Source\PSoC6\pdl\drivers/peripheral/gpio/cy_gpio.h **** /**
 482:Generated_Source\PSoC6\pdl\drivers/peripheral/gpio/cy_gpio.h **** * \defgroup group_gpio_sioVtrip SIO input buffer trip-point
 483:Generated_Source\PSoC6\pdl\drivers/peripheral/gpio/cy_gpio.h **** * \{
 484:Generated_Source\PSoC6\pdl\drivers/peripheral/gpio/cy_gpio.h **** * Constants to be used for setting the SIO input buffer trip-point of the pin.
 485:Generated_Source\PSoC6\pdl\drivers/peripheral/gpio/cy_gpio.h **** */
 486:Generated_Source\PSoC6\pdl\drivers/peripheral/gpio/cy_gpio.h **** #define CY_SIO_VTRIP_CMOS                      (0x00UL) /**< CMOS input buffer (single-ended) */
 487:Generated_Source\PSoC6\pdl\drivers/peripheral/gpio/cy_gpio.h **** #define CY_SIO_VTRIP_TTL                       (0x01UL) /**< TTL input buffer (single-ended) */
 488:Generated_Source\PSoC6\pdl\drivers/peripheral/gpio/cy_gpio.h **** #define CY_SIO_VTRIP_0_5VDDIO_0_5VOH           (0x00UL) /**< 0.5xVddio or 0.5xVoh (differential) */
 489:Generated_Source\PSoC6\pdl\drivers/peripheral/gpio/cy_gpio.h **** #define CY_SIO_VTRIP_0_4VDDIO_1_0VREF          (0x01UL) /**< 0.4xVddio or 0.4xVoh (differential) */
 490:Generated_Source\PSoC6\pdl\drivers/peripheral/gpio/cy_gpio.h **** /** \} */
 491:Generated_Source\PSoC6\pdl\drivers/peripheral/gpio/cy_gpio.h **** 
 492:Generated_Source\PSoC6\pdl\drivers/peripheral/gpio/cy_gpio.h **** /**
 493:Generated_Source\PSoC6\pdl\drivers/peripheral/gpio/cy_gpio.h **** * \defgroup group_gpio_sioVref SIO reference voltage for input buffer trip-point
 494:Generated_Source\PSoC6\pdl\drivers/peripheral/gpio/cy_gpio.h **** * \{
 495:Generated_Source\PSoC6\pdl\drivers/peripheral/gpio/cy_gpio.h **** * Constants to be used for setting the reference voltage of SIO input buffer trip-point.
 496:Generated_Source\PSoC6\pdl\drivers/peripheral/gpio/cy_gpio.h **** */
 497:Generated_Source\PSoC6\pdl\drivers/peripheral/gpio/cy_gpio.h **** #define CY_SIO_VREF_PINREF                     (0x00UL) /**< Vref from analog pin */
 498:Generated_Source\PSoC6\pdl\drivers/peripheral/gpio/cy_gpio.h **** #define CY_SIO_VREF_1_2V                       (0x01UL) /**< Vref from internal 1.2V reference */
 499:Generated_Source\PSoC6\pdl\drivers/peripheral/gpio/cy_gpio.h **** #define CY_SIO_VREF_AMUX_A                     (0x02UL) /**< Vref from AMUXBUS_A */
 500:Generated_Source\PSoC6\pdl\drivers/peripheral/gpio/cy_gpio.h **** #define CY_SIO_VREF_AMUX_B                     (0x03UL) /**< Vref from AMUXBUS_B */
ARM GAS  C:\Users\jlabe\AppData\Local\Temp\ccJbzXZ1.s 			page 43


 501:Generated_Source\PSoC6\pdl\drivers/peripheral/gpio/cy_gpio.h **** /** \} */
 502:Generated_Source\PSoC6\pdl\drivers/peripheral/gpio/cy_gpio.h **** 
 503:Generated_Source\PSoC6\pdl\drivers/peripheral/gpio/cy_gpio.h **** /**
 504:Generated_Source\PSoC6\pdl\drivers/peripheral/gpio/cy_gpio.h **** * \defgroup group_gpio_sioVoh Regulated output voltage level (Voh) and input buffer trip-point of a
 505:Generated_Source\PSoC6\pdl\drivers/peripheral/gpio/cy_gpio.h **** * \{
 506:Generated_Source\PSoC6\pdl\drivers/peripheral/gpio/cy_gpio.h **** * Constants to be used for setting the Voh and input buffer trip-point of an SIO pair
 507:Generated_Source\PSoC6\pdl\drivers/peripheral/gpio/cy_gpio.h **** */
 508:Generated_Source\PSoC6\pdl\drivers/peripheral/gpio/cy_gpio.h **** #define CY_SIO_VOH_1_00                        (0x00UL) /**< Voh = 1 x Reference */
 509:Generated_Source\PSoC6\pdl\drivers/peripheral/gpio/cy_gpio.h **** #define CY_SIO_VOH_1_25                        (0x01UL) /**< Voh = 1.25 x Reference */
 510:Generated_Source\PSoC6\pdl\drivers/peripheral/gpio/cy_gpio.h **** #define CY_SIO_VOH_1_49                        (0x02UL) /**< Voh = 1.49 x Reference */
 511:Generated_Source\PSoC6\pdl\drivers/peripheral/gpio/cy_gpio.h **** #define CY_SIO_VOH_1_67                        (0x03UL) /**< Voh = 1.67 x Reference */
 512:Generated_Source\PSoC6\pdl\drivers/peripheral/gpio/cy_gpio.h **** #define CY_SIO_VOH_2_08                        (0x04UL) /**< Voh = 2.08 x Reference */
 513:Generated_Source\PSoC6\pdl\drivers/peripheral/gpio/cy_gpio.h **** #define CY_SIO_VOH_2_50                        (0x05UL) /**< Voh = 2.50 x Reference */
 514:Generated_Source\PSoC6\pdl\drivers/peripheral/gpio/cy_gpio.h **** #define CY_SIO_VOH_2_78                        (0x06UL) /**< Voh = 2.78 x Reference */
 515:Generated_Source\PSoC6\pdl\drivers/peripheral/gpio/cy_gpio.h **** #define CY_SIO_VOH_4_16                        (0x07UL) /**< Voh = 4.16 x Reference */
 516:Generated_Source\PSoC6\pdl\drivers/peripheral/gpio/cy_gpio.h **** /** \} */
 517:Generated_Source\PSoC6\pdl\drivers/peripheral/gpio/cy_gpio.h **** 
 518:Generated_Source\PSoC6\pdl\drivers/peripheral/gpio/cy_gpio.h **** /** \} group_gpio_macros */
 519:Generated_Source\PSoC6\pdl\drivers/peripheral/gpio/cy_gpio.h **** 
 520:Generated_Source\PSoC6\pdl\drivers/peripheral/gpio/cy_gpio.h **** /***************************************
 521:Generated_Source\PSoC6\pdl\drivers/peripheral/gpio/cy_gpio.h **** *        Function Prototypes
 522:Generated_Source\PSoC6\pdl\drivers/peripheral/gpio/cy_gpio.h **** ***************************************/
 523:Generated_Source\PSoC6\pdl\drivers/peripheral/gpio/cy_gpio.h **** 
 524:Generated_Source\PSoC6\pdl\drivers/peripheral/gpio/cy_gpio.h **** /**
 525:Generated_Source\PSoC6\pdl\drivers/peripheral/gpio/cy_gpio.h **** * \addtogroup group_gpio_functions
 526:Generated_Source\PSoC6\pdl\drivers/peripheral/gpio/cy_gpio.h **** * \{
 527:Generated_Source\PSoC6\pdl\drivers/peripheral/gpio/cy_gpio.h **** */
 528:Generated_Source\PSoC6\pdl\drivers/peripheral/gpio/cy_gpio.h **** 
 529:Generated_Source\PSoC6\pdl\drivers/peripheral/gpio/cy_gpio.h **** /**
 530:Generated_Source\PSoC6\pdl\drivers/peripheral/gpio/cy_gpio.h **** * \addtogroup group_gpio_functions_init
 531:Generated_Source\PSoC6\pdl\drivers/peripheral/gpio/cy_gpio.h **** * \{
 532:Generated_Source\PSoC6\pdl\drivers/peripheral/gpio/cy_gpio.h **** */
 533:Generated_Source\PSoC6\pdl\drivers/peripheral/gpio/cy_gpio.h **** 
 534:Generated_Source\PSoC6\pdl\drivers/peripheral/gpio/cy_gpio.h **** cy_en_gpio_status_t Cy_GPIO_Pin_Init(GPIO_PRT_Type* base, uint32_t pinNum, const cy_stc_gpio_pin_co
 535:Generated_Source\PSoC6\pdl\drivers/peripheral/gpio/cy_gpio.h **** cy_en_gpio_status_t Cy_GPIO_Port_Init(GPIO_PRT_Type* base, const cy_stc_gpio_prt_config_t *config);
 536:Generated_Source\PSoC6\pdl\drivers/peripheral/gpio/cy_gpio.h **** void Cy_GPIO_Pin_FastInit(GPIO_PRT_Type* base, uint32_t pinNum, uint32_t driveMode, uint32_t outVal
 537:Generated_Source\PSoC6\pdl\drivers/peripheral/gpio/cy_gpio.h **** void Cy_GPIO_Port_Deinit(GPIO_PRT_Type* base);
 538:Generated_Source\PSoC6\pdl\drivers/peripheral/gpio/cy_gpio.h **** __STATIC_INLINE void Cy_GPIO_SetHSIOM(GPIO_PRT_Type* base, uint32_t pinNum, en_hsiom_sel_t value);
 539:Generated_Source\PSoC6\pdl\drivers/peripheral/gpio/cy_gpio.h **** __STATIC_INLINE en_hsiom_sel_t Cy_GPIO_GetHSIOM(GPIO_PRT_Type* base, uint32_t pinNum);
 540:Generated_Source\PSoC6\pdl\drivers/peripheral/gpio/cy_gpio.h **** __STATIC_INLINE GPIO_PRT_Type* Cy_GPIO_PortToAddr(uint32_t portNum);
 541:Generated_Source\PSoC6\pdl\drivers/peripheral/gpio/cy_gpio.h **** 
 542:Generated_Source\PSoC6\pdl\drivers/peripheral/gpio/cy_gpio.h **** /** \} group_gpio_functions_init */
 543:Generated_Source\PSoC6\pdl\drivers/peripheral/gpio/cy_gpio.h **** 
 544:Generated_Source\PSoC6\pdl\drivers/peripheral/gpio/cy_gpio.h **** /**
 545:Generated_Source\PSoC6\pdl\drivers/peripheral/gpio/cy_gpio.h **** * \addtogroup group_gpio_functions_gpio
 546:Generated_Source\PSoC6\pdl\drivers/peripheral/gpio/cy_gpio.h **** * \{
 547:Generated_Source\PSoC6\pdl\drivers/peripheral/gpio/cy_gpio.h **** */
 548:Generated_Source\PSoC6\pdl\drivers/peripheral/gpio/cy_gpio.h **** 
 549:Generated_Source\PSoC6\pdl\drivers/peripheral/gpio/cy_gpio.h **** void Cy_GPIO_SetAmuxSplit(cy_en_amux_split_t switchCtrl, cy_en_gpio_amuxconnect_t amuxConnect, cy_e
 550:Generated_Source\PSoC6\pdl\drivers/peripheral/gpio/cy_gpio.h **** cy_en_gpio_amuxconnect_t Cy_GPIO_GetAmuxSplit(cy_en_amux_split_t switchCtrl, cy_en_gpio_amuxselect_
 551:Generated_Source\PSoC6\pdl\drivers/peripheral/gpio/cy_gpio.h **** 
 552:Generated_Source\PSoC6\pdl\drivers/peripheral/gpio/cy_gpio.h **** __STATIC_INLINE uint32_t Cy_GPIO_Read(GPIO_PRT_Type* base, uint32_t pinNum);
 553:Generated_Source\PSoC6\pdl\drivers/peripheral/gpio/cy_gpio.h **** __STATIC_INLINE void Cy_GPIO_Write(GPIO_PRT_Type* base, uint32_t pinNum, uint32_t value);
 554:Generated_Source\PSoC6\pdl\drivers/peripheral/gpio/cy_gpio.h **** __STATIC_INLINE uint32_t Cy_GPIO_ReadOut(GPIO_PRT_Type* base, uint32_t pinNum);
 555:Generated_Source\PSoC6\pdl\drivers/peripheral/gpio/cy_gpio.h **** __STATIC_INLINE void Cy_GPIO_Set(GPIO_PRT_Type* base, uint32_t pinNum);
 556:Generated_Source\PSoC6\pdl\drivers/peripheral/gpio/cy_gpio.h **** __STATIC_INLINE void Cy_GPIO_Clr(GPIO_PRT_Type* base, uint32_t pinNum);
 557:Generated_Source\PSoC6\pdl\drivers/peripheral/gpio/cy_gpio.h **** __STATIC_INLINE void Cy_GPIO_Inv(GPIO_PRT_Type* base, uint32_t pinNum);
ARM GAS  C:\Users\jlabe\AppData\Local\Temp\ccJbzXZ1.s 			page 44


 558:Generated_Source\PSoC6\pdl\drivers/peripheral/gpio/cy_gpio.h **** __STATIC_INLINE void Cy_GPIO_SetDrivemode(GPIO_PRT_Type* base, uint32_t pinNum, uint32_t value);
 559:Generated_Source\PSoC6\pdl\drivers/peripheral/gpio/cy_gpio.h **** __STATIC_INLINE uint32_t Cy_GPIO_GetDrivemode(GPIO_PRT_Type* base, uint32_t pinNum);
 560:Generated_Source\PSoC6\pdl\drivers/peripheral/gpio/cy_gpio.h **** __STATIC_INLINE void Cy_GPIO_SetVtrip(GPIO_PRT_Type* base, uint32_t pinNum, uint32_t value);
 561:Generated_Source\PSoC6\pdl\drivers/peripheral/gpio/cy_gpio.h **** __STATIC_INLINE uint32_t Cy_GPIO_GetVtrip(GPIO_PRT_Type* base, uint32_t pinNum);
 562:Generated_Source\PSoC6\pdl\drivers/peripheral/gpio/cy_gpio.h **** __STATIC_INLINE void Cy_GPIO_SetSlewRate(GPIO_PRT_Type* base, uint32_t pinNum, uint32_t value);
 563:Generated_Source\PSoC6\pdl\drivers/peripheral/gpio/cy_gpio.h **** __STATIC_INLINE uint32_t Cy_GPIO_GetSlewRate(GPIO_PRT_Type* base, uint32_t pinNum);
 564:Generated_Source\PSoC6\pdl\drivers/peripheral/gpio/cy_gpio.h **** __STATIC_INLINE void Cy_GPIO_SetDriveSel(GPIO_PRT_Type* base, uint32_t pinNum, uint32_t value);
 565:Generated_Source\PSoC6\pdl\drivers/peripheral/gpio/cy_gpio.h **** __STATIC_INLINE uint32_t Cy_GPIO_GetDriveSel(GPIO_PRT_Type* base, uint32_t pinNum);
 566:Generated_Source\PSoC6\pdl\drivers/peripheral/gpio/cy_gpio.h **** 
 567:Generated_Source\PSoC6\pdl\drivers/peripheral/gpio/cy_gpio.h **** /** \} group_gpio_functions_gpio */
 568:Generated_Source\PSoC6\pdl\drivers/peripheral/gpio/cy_gpio.h **** 
 569:Generated_Source\PSoC6\pdl\drivers/peripheral/gpio/cy_gpio.h **** /**
 570:Generated_Source\PSoC6\pdl\drivers/peripheral/gpio/cy_gpio.h **** * \addtogroup group_gpio_functions_sio
 571:Generated_Source\PSoC6\pdl\drivers/peripheral/gpio/cy_gpio.h **** * \{
 572:Generated_Source\PSoC6\pdl\drivers/peripheral/gpio/cy_gpio.h **** */
 573:Generated_Source\PSoC6\pdl\drivers/peripheral/gpio/cy_gpio.h **** 
 574:Generated_Source\PSoC6\pdl\drivers/peripheral/gpio/cy_gpio.h **** __STATIC_INLINE void Cy_GPIO_SetVregEn(GPIO_PRT_Type* base, uint32_t pinNum, uint32_t value);
 575:Generated_Source\PSoC6\pdl\drivers/peripheral/gpio/cy_gpio.h **** __STATIC_INLINE uint32_t Cy_GPIO_GetVregEn(GPIO_PRT_Type* base, uint32_t pinNum);
 576:Generated_Source\PSoC6\pdl\drivers/peripheral/gpio/cy_gpio.h **** __STATIC_INLINE void Cy_GPIO_SetIbufMode(GPIO_PRT_Type* base, uint32_t pinNum, uint32_t value);
 577:Generated_Source\PSoC6\pdl\drivers/peripheral/gpio/cy_gpio.h **** __STATIC_INLINE uint32_t Cy_GPIO_GetIbufMode(GPIO_PRT_Type* base, uint32_t pinNum);
 578:Generated_Source\PSoC6\pdl\drivers/peripheral/gpio/cy_gpio.h **** __STATIC_INLINE void Cy_GPIO_SetVtripSel(GPIO_PRT_Type* base, uint32_t pinNum, uint32_t value);
 579:Generated_Source\PSoC6\pdl\drivers/peripheral/gpio/cy_gpio.h **** __STATIC_INLINE uint32_t Cy_GPIO_GetVtripSel(GPIO_PRT_Type* base, uint32_t pinNum);
 580:Generated_Source\PSoC6\pdl\drivers/peripheral/gpio/cy_gpio.h **** __STATIC_INLINE void Cy_GPIO_SetVrefSel(GPIO_PRT_Type* base, uint32_t pinNum, uint32_t value);
 581:Generated_Source\PSoC6\pdl\drivers/peripheral/gpio/cy_gpio.h **** __STATIC_INLINE uint32_t Cy_GPIO_GetVrefSel(GPIO_PRT_Type* base, uint32_t pinNum);
 582:Generated_Source\PSoC6\pdl\drivers/peripheral/gpio/cy_gpio.h **** __STATIC_INLINE void Cy_GPIO_SetVohSel(GPIO_PRT_Type* base, uint32_t pinNum, uint32_t value);
 583:Generated_Source\PSoC6\pdl\drivers/peripheral/gpio/cy_gpio.h **** __STATIC_INLINE uint32_t Cy_GPIO_GetVohSel(GPIO_PRT_Type* base, uint32_t pinNum);
 584:Generated_Source\PSoC6\pdl\drivers/peripheral/gpio/cy_gpio.h **** 
 585:Generated_Source\PSoC6\pdl\drivers/peripheral/gpio/cy_gpio.h **** /** \} group_gpio_functions_sio */
 586:Generated_Source\PSoC6\pdl\drivers/peripheral/gpio/cy_gpio.h **** 
 587:Generated_Source\PSoC6\pdl\drivers/peripheral/gpio/cy_gpio.h **** /**
 588:Generated_Source\PSoC6\pdl\drivers/peripheral/gpio/cy_gpio.h **** * \addtogroup group_gpio_functions_interrupt
 589:Generated_Source\PSoC6\pdl\drivers/peripheral/gpio/cy_gpio.h **** * \{
 590:Generated_Source\PSoC6\pdl\drivers/peripheral/gpio/cy_gpio.h **** */
 591:Generated_Source\PSoC6\pdl\drivers/peripheral/gpio/cy_gpio.h **** 
 592:Generated_Source\PSoC6\pdl\drivers/peripheral/gpio/cy_gpio.h **** __STATIC_INLINE uint32_t Cy_GPIO_GetInterruptStatus(GPIO_PRT_Type* base, uint32_t pinNum);
 593:Generated_Source\PSoC6\pdl\drivers/peripheral/gpio/cy_gpio.h **** __STATIC_INLINE void Cy_GPIO_ClearInterrupt(GPIO_PRT_Type* base, uint32_t pinNum);
 594:Generated_Source\PSoC6\pdl\drivers/peripheral/gpio/cy_gpio.h **** __STATIC_INLINE void Cy_GPIO_SetInterruptMask(GPIO_PRT_Type* base, uint32_t pinNum, uint32_t value)
 595:Generated_Source\PSoC6\pdl\drivers/peripheral/gpio/cy_gpio.h **** __STATIC_INLINE uint32_t Cy_GPIO_GetInterruptMask(GPIO_PRT_Type* base, uint32_t pinNum);
 596:Generated_Source\PSoC6\pdl\drivers/peripheral/gpio/cy_gpio.h **** __STATIC_INLINE uint32_t Cy_GPIO_GetInterruptStatusMasked(GPIO_PRT_Type* base, uint32_t pinNum);
 597:Generated_Source\PSoC6\pdl\drivers/peripheral/gpio/cy_gpio.h **** __STATIC_INLINE void Cy_GPIO_SetSwInterrupt(GPIO_PRT_Type* base, uint32_t pinNum);
 598:Generated_Source\PSoC6\pdl\drivers/peripheral/gpio/cy_gpio.h **** __STATIC_INLINE void Cy_GPIO_SetInterruptEdge(GPIO_PRT_Type* base, uint32_t pinNum, uint32_t value)
 599:Generated_Source\PSoC6\pdl\drivers/peripheral/gpio/cy_gpio.h **** __STATIC_INLINE uint32_t Cy_GPIO_GetInterruptEdge(GPIO_PRT_Type* base, uint32_t pinNum);
 600:Generated_Source\PSoC6\pdl\drivers/peripheral/gpio/cy_gpio.h **** __STATIC_INLINE void Cy_GPIO_SetFilter(GPIO_PRT_Type* base, uint32_t value);
 601:Generated_Source\PSoC6\pdl\drivers/peripheral/gpio/cy_gpio.h **** __STATIC_INLINE uint32_t Cy_GPIO_GetFilter(GPIO_PRT_Type* base);
 602:Generated_Source\PSoC6\pdl\drivers/peripheral/gpio/cy_gpio.h **** 
 603:Generated_Source\PSoC6\pdl\drivers/peripheral/gpio/cy_gpio.h **** __STATIC_INLINE uint32_t Cy_GPIO_GetInterruptCause0(void);
 604:Generated_Source\PSoC6\pdl\drivers/peripheral/gpio/cy_gpio.h **** __STATIC_INLINE uint32_t Cy_GPIO_GetInterruptCause1(void);
 605:Generated_Source\PSoC6\pdl\drivers/peripheral/gpio/cy_gpio.h **** __STATIC_INLINE uint32_t Cy_GPIO_GetInterruptCause2(void);
 606:Generated_Source\PSoC6\pdl\drivers/peripheral/gpio/cy_gpio.h **** __STATIC_INLINE uint32_t Cy_GPIO_GetInterruptCause3(void);
 607:Generated_Source\PSoC6\pdl\drivers/peripheral/gpio/cy_gpio.h **** 
 608:Generated_Source\PSoC6\pdl\drivers/peripheral/gpio/cy_gpio.h **** /** \} group_gpio_functions_interrupt */
 609:Generated_Source\PSoC6\pdl\drivers/peripheral/gpio/cy_gpio.h **** 
 610:Generated_Source\PSoC6\pdl\drivers/peripheral/gpio/cy_gpio.h **** 
 611:Generated_Source\PSoC6\pdl\drivers/peripheral/gpio/cy_gpio.h **** /**
 612:Generated_Source\PSoC6\pdl\drivers/peripheral/gpio/cy_gpio.h **** * \addtogroup group_gpio_functions_init
 613:Generated_Source\PSoC6\pdl\drivers/peripheral/gpio/cy_gpio.h **** * \{
 614:Generated_Source\PSoC6\pdl\drivers/peripheral/gpio/cy_gpio.h **** */
ARM GAS  C:\Users\jlabe\AppData\Local\Temp\ccJbzXZ1.s 			page 45


 615:Generated_Source\PSoC6\pdl\drivers/peripheral/gpio/cy_gpio.h **** 
 616:Generated_Source\PSoC6\pdl\drivers/peripheral/gpio/cy_gpio.h **** /*******************************************************************************
 617:Generated_Source\PSoC6\pdl\drivers/peripheral/gpio/cy_gpio.h **** * Function Name: Cy_GPIO_SetHSIOM
 618:Generated_Source\PSoC6\pdl\drivers/peripheral/gpio/cy_gpio.h **** ****************************************************************************//**
 619:Generated_Source\PSoC6\pdl\drivers/peripheral/gpio/cy_gpio.h **** *
 620:Generated_Source\PSoC6\pdl\drivers/peripheral/gpio/cy_gpio.h **** * Configures the HSIOM connection to the pin.
 621:Generated_Source\PSoC6\pdl\drivers/peripheral/gpio/cy_gpio.h **** *
 622:Generated_Source\PSoC6\pdl\drivers/peripheral/gpio/cy_gpio.h **** * Connects the specified High-Speed Input Output Multiplexer (HSIOM) selection
 623:Generated_Source\PSoC6\pdl\drivers/peripheral/gpio/cy_gpio.h **** * to the pin.
 624:Generated_Source\PSoC6\pdl\drivers/peripheral/gpio/cy_gpio.h **** *
 625:Generated_Source\PSoC6\pdl\drivers/peripheral/gpio/cy_gpio.h **** * \param base
 626:Generated_Source\PSoC6\pdl\drivers/peripheral/gpio/cy_gpio.h **** * Pointer to the pin's port register base address
 627:Generated_Source\PSoC6\pdl\drivers/peripheral/gpio/cy_gpio.h **** *
 628:Generated_Source\PSoC6\pdl\drivers/peripheral/gpio/cy_gpio.h **** * \param pinNum
 629:Generated_Source\PSoC6\pdl\drivers/peripheral/gpio/cy_gpio.h **** * Position of the pin bit-field within the port register
 630:Generated_Source\PSoC6\pdl\drivers/peripheral/gpio/cy_gpio.h **** *
 631:Generated_Source\PSoC6\pdl\drivers/peripheral/gpio/cy_gpio.h **** * \param value
 632:Generated_Source\PSoC6\pdl\drivers/peripheral/gpio/cy_gpio.h **** * HSIOM input selection
 633:Generated_Source\PSoC6\pdl\drivers/peripheral/gpio/cy_gpio.h **** *
 634:Generated_Source\PSoC6\pdl\drivers/peripheral/gpio/cy_gpio.h **** * \note 
 635:Generated_Source\PSoC6\pdl\drivers/peripheral/gpio/cy_gpio.h **** * This function modifies a port register in a read-modify-write operation. It is
 636:Generated_Source\PSoC6\pdl\drivers/peripheral/gpio/cy_gpio.h **** * not thread safe as the resource is shared among multiple pins on a port.
 637:Generated_Source\PSoC6\pdl\drivers/peripheral/gpio/cy_gpio.h **** *
 638:Generated_Source\PSoC6\pdl\drivers/peripheral/gpio/cy_gpio.h **** * \funcusage
 639:Generated_Source\PSoC6\pdl\drivers/peripheral/gpio/cy_gpio.h **** * \snippet gpio/gpio_v1_10_sut_01.cydsn/main_cm4.c snippet_Cy_GPIO_SetHSIOM
 640:Generated_Source\PSoC6\pdl\drivers/peripheral/gpio/cy_gpio.h **** *
 641:Generated_Source\PSoC6\pdl\drivers/peripheral/gpio/cy_gpio.h **** *******************************************************************************/
 642:Generated_Source\PSoC6\pdl\drivers/peripheral/gpio/cy_gpio.h **** __STATIC_INLINE void Cy_GPIO_SetHSIOM(GPIO_PRT_Type* base, uint32_t pinNum, en_hsiom_sel_t value)
 643:Generated_Source\PSoC6\pdl\drivers/peripheral/gpio/cy_gpio.h **** {
 644:Generated_Source\PSoC6\pdl\drivers/peripheral/gpio/cy_gpio.h ****     uint32_t portNum;
 645:Generated_Source\PSoC6\pdl\drivers/peripheral/gpio/cy_gpio.h ****     uint32_t tempReg;
 646:Generated_Source\PSoC6\pdl\drivers/peripheral/gpio/cy_gpio.h ****     HSIOM_PRT_V1_Type* portAddrHSIOM;
 647:Generated_Source\PSoC6\pdl\drivers/peripheral/gpio/cy_gpio.h **** 
 648:Generated_Source\PSoC6\pdl\drivers/peripheral/gpio/cy_gpio.h ****     CY_ASSERT_L2(CY_GPIO_IS_PIN_VALID(pinNum));
 649:Generated_Source\PSoC6\pdl\drivers/peripheral/gpio/cy_gpio.h ****     CY_ASSERT_L2(CY_GPIO_IS_HSIOM_VALID(value));
 650:Generated_Source\PSoC6\pdl\drivers/peripheral/gpio/cy_gpio.h **** 
 651:Generated_Source\PSoC6\pdl\drivers/peripheral/gpio/cy_gpio.h ****     portNum = ((uint32_t)(base) - CY_GPIO_BASE) / GPIO_PRT_SECTION_SIZE;
 652:Generated_Source\PSoC6\pdl\drivers/peripheral/gpio/cy_gpio.h ****     portAddrHSIOM = (HSIOM_PRT_V1_Type*)(CY_HSIOM_BASE + (HSIOM_PRT_SECTION_SIZE * portNum));
 653:Generated_Source\PSoC6\pdl\drivers/peripheral/gpio/cy_gpio.h **** 
 654:Generated_Source\PSoC6\pdl\drivers/peripheral/gpio/cy_gpio.h ****     if(pinNum < CY_GPIO_PRT_HALF)
 655:Generated_Source\PSoC6\pdl\drivers/peripheral/gpio/cy_gpio.h ****     {
 656:Generated_Source\PSoC6\pdl\drivers/peripheral/gpio/cy_gpio.h ****         tempReg = HSIOM_PRT_PORT_SEL0(portAddrHSIOM) & ~(CY_GPIO_HSIOM_MASK << (pinNum << CY_GPIO_H
 657:Generated_Source\PSoC6\pdl\drivers/peripheral/gpio/cy_gpio.h ****         HSIOM_PRT_PORT_SEL0(portAddrHSIOM) = tempReg | ((value & CY_GPIO_HSIOM_MASK) << (pinNum << 
 658:Generated_Source\PSoC6\pdl\drivers/peripheral/gpio/cy_gpio.h ****     }
 659:Generated_Source\PSoC6\pdl\drivers/peripheral/gpio/cy_gpio.h ****     else
 660:Generated_Source\PSoC6\pdl\drivers/peripheral/gpio/cy_gpio.h ****     {
 661:Generated_Source\PSoC6\pdl\drivers/peripheral/gpio/cy_gpio.h ****         pinNum -= CY_GPIO_PRT_HALF;
 662:Generated_Source\PSoC6\pdl\drivers/peripheral/gpio/cy_gpio.h ****         tempReg = HSIOM_PRT_PORT_SEL1(portAddrHSIOM) & ~(CY_GPIO_HSIOM_MASK << (pinNum << CY_GPIO_H
 663:Generated_Source\PSoC6\pdl\drivers/peripheral/gpio/cy_gpio.h ****         HSIOM_PRT_PORT_SEL1(portAddrHSIOM) = tempReg | ((value & CY_GPIO_HSIOM_MASK) << (pinNum << 
 664:Generated_Source\PSoC6\pdl\drivers/peripheral/gpio/cy_gpio.h ****     }
 665:Generated_Source\PSoC6\pdl\drivers/peripheral/gpio/cy_gpio.h **** }
 666:Generated_Source\PSoC6\pdl\drivers/peripheral/gpio/cy_gpio.h **** 
 667:Generated_Source\PSoC6\pdl\drivers/peripheral/gpio/cy_gpio.h **** 
 668:Generated_Source\PSoC6\pdl\drivers/peripheral/gpio/cy_gpio.h **** /*******************************************************************************
 669:Generated_Source\PSoC6\pdl\drivers/peripheral/gpio/cy_gpio.h **** * Function Name: Cy_GPIO_GetHSIOM
 670:Generated_Source\PSoC6\pdl\drivers/peripheral/gpio/cy_gpio.h **** ****************************************************************************//**
 671:Generated_Source\PSoC6\pdl\drivers/peripheral/gpio/cy_gpio.h **** *
ARM GAS  C:\Users\jlabe\AppData\Local\Temp\ccJbzXZ1.s 			page 46


 672:Generated_Source\PSoC6\pdl\drivers/peripheral/gpio/cy_gpio.h **** * Returns the current HSIOM multiplexer connection to the pin.
 673:Generated_Source\PSoC6\pdl\drivers/peripheral/gpio/cy_gpio.h **** *
 674:Generated_Source\PSoC6\pdl\drivers/peripheral/gpio/cy_gpio.h **** * \param base
 675:Generated_Source\PSoC6\pdl\drivers/peripheral/gpio/cy_gpio.h **** * Pointer to the pin's port register base address
 676:Generated_Source\PSoC6\pdl\drivers/peripheral/gpio/cy_gpio.h **** *
 677:Generated_Source\PSoC6\pdl\drivers/peripheral/gpio/cy_gpio.h **** * \param pinNum
 678:Generated_Source\PSoC6\pdl\drivers/peripheral/gpio/cy_gpio.h **** * Position of the pin bit-field within the port register
 679:Generated_Source\PSoC6\pdl\drivers/peripheral/gpio/cy_gpio.h **** *
 680:Generated_Source\PSoC6\pdl\drivers/peripheral/gpio/cy_gpio.h **** * \return
 681:Generated_Source\PSoC6\pdl\drivers/peripheral/gpio/cy_gpio.h **** * HSIOM input selection
 682:Generated_Source\PSoC6\pdl\drivers/peripheral/gpio/cy_gpio.h **** *
 683:Generated_Source\PSoC6\pdl\drivers/peripheral/gpio/cy_gpio.h **** * \funcusage
 684:Generated_Source\PSoC6\pdl\drivers/peripheral/gpio/cy_gpio.h **** * \snippet gpio/gpio_v1_10_sut_01.cydsn/main_cm4.c snippet_Cy_GPIO_SetHSIOM
 685:Generated_Source\PSoC6\pdl\drivers/peripheral/gpio/cy_gpio.h **** *
 686:Generated_Source\PSoC6\pdl\drivers/peripheral/gpio/cy_gpio.h **** *******************************************************************************/
 687:Generated_Source\PSoC6\pdl\drivers/peripheral/gpio/cy_gpio.h **** __STATIC_INLINE en_hsiom_sel_t Cy_GPIO_GetHSIOM(GPIO_PRT_Type* base, uint32_t pinNum)
 688:Generated_Source\PSoC6\pdl\drivers/peripheral/gpio/cy_gpio.h **** {
 689:Generated_Source\PSoC6\pdl\drivers/peripheral/gpio/cy_gpio.h ****     uint32_t returnValue;
 690:Generated_Source\PSoC6\pdl\drivers/peripheral/gpio/cy_gpio.h ****     uint32_t portNum;
 691:Generated_Source\PSoC6\pdl\drivers/peripheral/gpio/cy_gpio.h ****     HSIOM_PRT_V1_Type* portAddrHSIOM;
 692:Generated_Source\PSoC6\pdl\drivers/peripheral/gpio/cy_gpio.h ****     
 693:Generated_Source\PSoC6\pdl\drivers/peripheral/gpio/cy_gpio.h ****     CY_ASSERT_L2(CY_GPIO_IS_PIN_VALID(pinNum));
 694:Generated_Source\PSoC6\pdl\drivers/peripheral/gpio/cy_gpio.h **** 
 695:Generated_Source\PSoC6\pdl\drivers/peripheral/gpio/cy_gpio.h ****     portNum = ((uint32_t)(base) - CY_GPIO_BASE) / GPIO_PRT_SECTION_SIZE;
 696:Generated_Source\PSoC6\pdl\drivers/peripheral/gpio/cy_gpio.h ****     portAddrHSIOM = (HSIOM_PRT_V1_Type*)(CY_HSIOM_BASE + (HSIOM_PRT_SECTION_SIZE * portNum));
 697:Generated_Source\PSoC6\pdl\drivers/peripheral/gpio/cy_gpio.h **** 
 698:Generated_Source\PSoC6\pdl\drivers/peripheral/gpio/cy_gpio.h ****     if(pinNum < CY_GPIO_PRT_HALF)
 699:Generated_Source\PSoC6\pdl\drivers/peripheral/gpio/cy_gpio.h ****     {
 700:Generated_Source\PSoC6\pdl\drivers/peripheral/gpio/cy_gpio.h ****         returnValue = (HSIOM_PRT_PORT_SEL0(portAddrHSIOM) >> (pinNum << CY_GPIO_HSIOM_OFFSET)) & CY
 701:Generated_Source\PSoC6\pdl\drivers/peripheral/gpio/cy_gpio.h ****     }
 702:Generated_Source\PSoC6\pdl\drivers/peripheral/gpio/cy_gpio.h ****     else
 703:Generated_Source\PSoC6\pdl\drivers/peripheral/gpio/cy_gpio.h ****     {
 704:Generated_Source\PSoC6\pdl\drivers/peripheral/gpio/cy_gpio.h ****         pinNum -= CY_GPIO_PRT_HALF;
 705:Generated_Source\PSoC6\pdl\drivers/peripheral/gpio/cy_gpio.h ****         returnValue = (HSIOM_PRT_PORT_SEL1(portAddrHSIOM) >> (pinNum << CY_GPIO_HSIOM_OFFSET)) & CY
 706:Generated_Source\PSoC6\pdl\drivers/peripheral/gpio/cy_gpio.h ****     }
 707:Generated_Source\PSoC6\pdl\drivers/peripheral/gpio/cy_gpio.h **** 
 708:Generated_Source\PSoC6\pdl\drivers/peripheral/gpio/cy_gpio.h ****     return (en_hsiom_sel_t)returnValue;
 709:Generated_Source\PSoC6\pdl\drivers/peripheral/gpio/cy_gpio.h **** }
 710:Generated_Source\PSoC6\pdl\drivers/peripheral/gpio/cy_gpio.h **** 
 711:Generated_Source\PSoC6\pdl\drivers/peripheral/gpio/cy_gpio.h **** 
 712:Generated_Source\PSoC6\pdl\drivers/peripheral/gpio/cy_gpio.h **** /*******************************************************************************
 713:Generated_Source\PSoC6\pdl\drivers/peripheral/gpio/cy_gpio.h **** * Function Name: Cy_GPIO_PortToAddr
 714:Generated_Source\PSoC6\pdl\drivers/peripheral/gpio/cy_gpio.h **** ****************************************************************************//**
 715:Generated_Source\PSoC6\pdl\drivers/peripheral/gpio/cy_gpio.h **** *
 716:Generated_Source\PSoC6\pdl\drivers/peripheral/gpio/cy_gpio.h **** * Retrieves the port address based on the given port number.
 717:Generated_Source\PSoC6\pdl\drivers/peripheral/gpio/cy_gpio.h **** *
 718:Generated_Source\PSoC6\pdl\drivers/peripheral/gpio/cy_gpio.h **** * This is a helper function to calculate the port base address when given a port
 719:Generated_Source\PSoC6\pdl\drivers/peripheral/gpio/cy_gpio.h **** * number. It is to be used when pin access needs to be calculated at runtime.
 720:Generated_Source\PSoC6\pdl\drivers/peripheral/gpio/cy_gpio.h **** *
 721:Generated_Source\PSoC6\pdl\drivers/peripheral/gpio/cy_gpio.h **** * \param portNum
 722:Generated_Source\PSoC6\pdl\drivers/peripheral/gpio/cy_gpio.h **** * Port number
 723:Generated_Source\PSoC6\pdl\drivers/peripheral/gpio/cy_gpio.h **** *
 724:Generated_Source\PSoC6\pdl\drivers/peripheral/gpio/cy_gpio.h **** * \return
 725:Generated_Source\PSoC6\pdl\drivers/peripheral/gpio/cy_gpio.h **** * Base address of the port register structure
 726:Generated_Source\PSoC6\pdl\drivers/peripheral/gpio/cy_gpio.h **** *
 727:Generated_Source\PSoC6\pdl\drivers/peripheral/gpio/cy_gpio.h **** * \funcusage
 728:Generated_Source\PSoC6\pdl\drivers/peripheral/gpio/cy_gpio.h **** * \snippet gpio/gpio_v1_10_sut_01.cydsn/main_cm4.c snippet_Cy_GPIO_PortToAddr
ARM GAS  C:\Users\jlabe\AppData\Local\Temp\ccJbzXZ1.s 			page 47


 729:Generated_Source\PSoC6\pdl\drivers/peripheral/gpio/cy_gpio.h **** *
 730:Generated_Source\PSoC6\pdl\drivers/peripheral/gpio/cy_gpio.h **** *******************************************************************************/
 731:Generated_Source\PSoC6\pdl\drivers/peripheral/gpio/cy_gpio.h **** __STATIC_INLINE GPIO_PRT_Type* Cy_GPIO_PortToAddr(uint32_t portNum)
 732:Generated_Source\PSoC6\pdl\drivers/peripheral/gpio/cy_gpio.h **** {
 733:Generated_Source\PSoC6\pdl\drivers/peripheral/gpio/cy_gpio.h ****     GPIO_PRT_Type* portBase;
 734:Generated_Source\PSoC6\pdl\drivers/peripheral/gpio/cy_gpio.h ****     
 735:Generated_Source\PSoC6\pdl\drivers/peripheral/gpio/cy_gpio.h ****     if(portNum < (uint32_t)IOSS_GPIO_GPIO_PORT_NR)
 736:Generated_Source\PSoC6\pdl\drivers/peripheral/gpio/cy_gpio.h ****     {
 737:Generated_Source\PSoC6\pdl\drivers/peripheral/gpio/cy_gpio.h ****         portBase = (GPIO_PRT_Type *)(CY_GPIO_BASE + (GPIO_PRT_SECTION_SIZE * portNum));
 738:Generated_Source\PSoC6\pdl\drivers/peripheral/gpio/cy_gpio.h ****     }
 739:Generated_Source\PSoC6\pdl\drivers/peripheral/gpio/cy_gpio.h ****     else
 740:Generated_Source\PSoC6\pdl\drivers/peripheral/gpio/cy_gpio.h ****     {
 741:Generated_Source\PSoC6\pdl\drivers/peripheral/gpio/cy_gpio.h ****         /* Error: Return default base address */
 742:Generated_Source\PSoC6\pdl\drivers/peripheral/gpio/cy_gpio.h ****         portBase = (GPIO_PRT_Type *)(CY_GPIO_BASE);
 743:Generated_Source\PSoC6\pdl\drivers/peripheral/gpio/cy_gpio.h ****     }
 744:Generated_Source\PSoC6\pdl\drivers/peripheral/gpio/cy_gpio.h **** 
 745:Generated_Source\PSoC6\pdl\drivers/peripheral/gpio/cy_gpio.h ****     return (portBase);
 746:Generated_Source\PSoC6\pdl\drivers/peripheral/gpio/cy_gpio.h **** }
 747:Generated_Source\PSoC6\pdl\drivers/peripheral/gpio/cy_gpio.h **** 
 748:Generated_Source\PSoC6\pdl\drivers/peripheral/gpio/cy_gpio.h **** /** \} group_gpio_functions_init */
 749:Generated_Source\PSoC6\pdl\drivers/peripheral/gpio/cy_gpio.h **** 
 750:Generated_Source\PSoC6\pdl\drivers/peripheral/gpio/cy_gpio.h **** /**
 751:Generated_Source\PSoC6\pdl\drivers/peripheral/gpio/cy_gpio.h **** * \addtogroup group_gpio_functions_gpio
 752:Generated_Source\PSoC6\pdl\drivers/peripheral/gpio/cy_gpio.h **** * \{
 753:Generated_Source\PSoC6\pdl\drivers/peripheral/gpio/cy_gpio.h **** */
 754:Generated_Source\PSoC6\pdl\drivers/peripheral/gpio/cy_gpio.h **** 
 755:Generated_Source\PSoC6\pdl\drivers/peripheral/gpio/cy_gpio.h **** /*******************************************************************************
 756:Generated_Source\PSoC6\pdl\drivers/peripheral/gpio/cy_gpio.h **** * Function Name: Cy_GPIO_Read
 757:Generated_Source\PSoC6\pdl\drivers/peripheral/gpio/cy_gpio.h **** ****************************************************************************//**
 758:Generated_Source\PSoC6\pdl\drivers/peripheral/gpio/cy_gpio.h **** *
 759:Generated_Source\PSoC6\pdl\drivers/peripheral/gpio/cy_gpio.h **** * Reads the current logic level on the input buffer of the pin.
 760:Generated_Source\PSoC6\pdl\drivers/peripheral/gpio/cy_gpio.h **** *
 761:Generated_Source\PSoC6\pdl\drivers/peripheral/gpio/cy_gpio.h **** * \param base
 762:Generated_Source\PSoC6\pdl\drivers/peripheral/gpio/cy_gpio.h **** * Pointer to the pin's port register base address
 763:Generated_Source\PSoC6\pdl\drivers/peripheral/gpio/cy_gpio.h **** *
 764:Generated_Source\PSoC6\pdl\drivers/peripheral/gpio/cy_gpio.h **** * \param pinNum
 765:Generated_Source\PSoC6\pdl\drivers/peripheral/gpio/cy_gpio.h **** * Position of the pin bit-field within the port register.
 766:Generated_Source\PSoC6\pdl\drivers/peripheral/gpio/cy_gpio.h **** * Bit position 8 is the routed pin through the port glitch filter.
 767:Generated_Source\PSoC6\pdl\drivers/peripheral/gpio/cy_gpio.h **** *
 768:Generated_Source\PSoC6\pdl\drivers/peripheral/gpio/cy_gpio.h **** * \return
 769:Generated_Source\PSoC6\pdl\drivers/peripheral/gpio/cy_gpio.h **** * Logic level present on the pin
 770:Generated_Source\PSoC6\pdl\drivers/peripheral/gpio/cy_gpio.h **** *
 771:Generated_Source\PSoC6\pdl\drivers/peripheral/gpio/cy_gpio.h **** * \funcusage
 772:Generated_Source\PSoC6\pdl\drivers/peripheral/gpio/cy_gpio.h **** * \snippet gpio/gpio_v1_10_sut_01.cydsn/main_cm4.c snippet_Cy_GPIO_Read
 773:Generated_Source\PSoC6\pdl\drivers/peripheral/gpio/cy_gpio.h **** *
 774:Generated_Source\PSoC6\pdl\drivers/peripheral/gpio/cy_gpio.h **** *******************************************************************************/
 775:Generated_Source\PSoC6\pdl\drivers/peripheral/gpio/cy_gpio.h **** __STATIC_INLINE uint32_t Cy_GPIO_Read(GPIO_PRT_Type* base, uint32_t pinNum)
 776:Generated_Source\PSoC6\pdl\drivers/peripheral/gpio/cy_gpio.h **** {
 777:Generated_Source\PSoC6\pdl\drivers/peripheral/gpio/cy_gpio.h ****     CY_ASSERT_L2(CY_GPIO_IS_FILTER_PIN_VALID(pinNum));
 778:Generated_Source\PSoC6\pdl\drivers/peripheral/gpio/cy_gpio.h ****     
 779:Generated_Source\PSoC6\pdl\drivers/peripheral/gpio/cy_gpio.h ****     return (GPIO_PRT_IN(base) >> (pinNum)) & CY_GPIO_IN_MASK;
 920              		.loc 3 779 0 discriminator 1
 921 0014 0C4B     		ldr	r3, .L46
 922 0016 1B69     		ldr	r3, [r3, #16]
 923              	.LVL107:
 924              	.LBE68:
 925              	.LBE67:
ARM GAS  C:\Users\jlabe\AppData\Local\Temp\ccJbzXZ1.s 			page 48


 228:Communication.c ****         MAX30102ReadFIFO32bits(&red_LED_buffer[i], &ir_LED_buffer[i]);
 926              		.loc 1 228 0 discriminator 1
 927 0018 13F0800F 		tst	r3, #128
 928 001c FAD1     		bne	.L43
 229:Communication.c ****         printf("i: %u RED : %u  IR  : %u  \r\n",i,red_LED_buffer[i],ir_LED_buffer[i]);
 929              		.loc 1 229 0
 930 001e A000     		lsls	r0, r4, #2
 931 0020 0DF57A65 		add	r5, sp, #4000
 932 0024 0DEB0001 		add	r1, sp, r0
 933 0028 2844     		add	r0, r0, r5
 934 002a FFF7FEFF 		bl	MAX30102ReadFIFO32bits
 935              	.LVL108:
 230:Communication.c **** 
 936              		.loc 1 230 0
 937 002e 5DF82430 		ldr	r3, [sp, r4, lsl #2]
 938 0032 55F82420 		ldr	r2, [r5, r4, lsl #2]
 939 0036 2146     		mov	r1, r4
 940 0038 0448     		ldr	r0, .L46+4
 941 003a FFF7FEFF 		bl	printf
 942              	.LVL109:
 232:Communication.c ****         
 943              		.loc 1 232 0
 944 003e 0A20     		movs	r0, #10
 945 0040 FFF7FEFF 		bl	vTaskDelay
 946              	.LVL110:
 234:Communication.c **** }
 947              		.loc 1 234 0
 948 0044 E1E7     		b	.L44
 949              	.L47:
 950 0046 00BF     		.align	2
 951              	.L46:
 952 0048 80063240 		.word	1077020288
 953 004c 00000000 		.word	.LC0
 954              		.cfi_endproc
 955              	.LFE702:
 956              		.size	MAX30102Task, .-MAX30102Task
 957              		.section	.text.bmi160Init,"ax",%progbits
 958              		.align	2
 959              		.global	bmi160Init
 960              		.thumb
 961              		.thumb_func
 962              		.type	bmi160Init, %function
 963              	bmi160Init:
 964              	.LFB705:
 269:Communication.c **** 
 270:Communication.c **** void bmi160Init(void)
 271:Communication.c **** {
 965              		.loc 1 271 0
 966              		.cfi_startproc
 967              		@ args = 0, pretend = 0, frame = 0
 968              		@ frame_needed = 0, uses_anonymous_args = 0
 969 0000 10B5     		push	{r4, lr}
 970              		.cfi_def_cfa_offset 8
 971              		.cfi_offset 4, -8
 972              		.cfi_offset 14, -4
 272:Communication.c **** 
 273:Communication.c ****     vTaskDelay(100);
ARM GAS  C:\Users\jlabe\AppData\Local\Temp\ccJbzXZ1.s 			page 49


 973              		.loc 1 273 0
 974 0002 6420     		movs	r0, #100
 975 0004 FFF7FEFF 		bl	vTaskDelay
 976              	.LVL111:
 274:Communication.c **** 
 275:Communication.c ****   /* BMI160 */
 276:Communication.c ****     bmi160Dev.read = (bmi160_com_fptr_t)BMI160BurstRead;
 977              		.loc 1 276 0
 978 0008 0C4C     		ldr	r4, .L50
 979 000a 0D4B     		ldr	r3, .L50+4
 980 000c E361     		str	r3, [r4, #28]
 277:Communication.c ****     bmi160Dev.write = (bmi160_com_fptr_t)BMI160BurstWrite;
 981              		.loc 1 277 0
 982 000e 0D4B     		ldr	r3, .L50+8
 983 0010 2362     		str	r3, [r4, #32]
 278:Communication.c ****     bmi160Dev.delay_ms = (bmi160_delay_fptr_t)vTaskDelay;
 984              		.loc 1 278 0
 985 0012 0D4B     		ldr	r3, .L50+12
 986 0014 6362     		str	r3, [r4, #36]
 279:Communication.c ****     bmi160Dev.id = BMI160_I2C_ADDR;  // I2C device address
 987              		.loc 1 279 0
 988 0016 6823     		movs	r3, #104
 989 0018 6370     		strb	r3, [r4, #1]
 280:Communication.c **** 
 281:Communication.c ****     bmi160_init(&bmi160Dev); // initialize the device
 990              		.loc 1 281 0
 991 001a 2046     		mov	r0, r4
 992 001c FFF7FEFF 		bl	bmi160_init
 993              	.LVL112:
 282:Communication.c ****   
 283:Communication.c ****     bmi160Dev.gyro_cfg.bw = BMI160_GYRO_BW_OSR4_MODE;
 994              		.loc 1 283 0
 995 0020 0023     		movs	r3, #0
 996 0022 E373     		strb	r3, [r4, #15]
 284:Communication.c **** 
 285:Communication.c ****       /* Select the power mode of Gyroscope sensor */
 286:Communication.c ****     bmi160Dev.gyro_cfg.power = BMI160_GYRO_NORMAL_MODE;
 997              		.loc 1 286 0
 998 0024 1523     		movs	r3, #21
 999 0026 2373     		strb	r3, [r4, #12]
 287:Communication.c **** 
 288:Communication.c ****     bmi160Dev.accel_cfg.power = BMI160_ACCEL_NORMAL_MODE;
 1000              		.loc 1 288 0
 1001 0028 1123     		movs	r3, #17
 1002 002a 2371     		strb	r3, [r4, #4]
 289:Communication.c **** 
 290:Communication.c ****       /* Set the sensor configuration */
 291:Communication.c ****     bmi160_set_sens_conf(&bmi160Dev);
 1003              		.loc 1 291 0
 1004 002c 2046     		mov	r0, r4
 1005 002e FFF7FEFF 		bl	bmi160_set_sens_conf
 1006              	.LVL113:
 292:Communication.c ****     bmi160Dev.delay_ms(50);
 1007              		.loc 1 292 0
 1008 0032 636A     		ldr	r3, [r4, #36]
 1009 0034 3220     		movs	r0, #50
 1010 0036 9847     		blx	r3
ARM GAS  C:\Users\jlabe\AppData\Local\Temp\ccJbzXZ1.s 			page 50


 1011              	.LVL114:
 1012 0038 10BD     		pop	{r4, pc}
 1013              	.L51:
 1014 003a 00BF     		.align	2
 1015              	.L50:
 1016 003c 00000000 		.word	bmi160Dev
 1017 0040 00000000 		.word	BMI160BurstRead
 1018 0044 00000000 		.word	BMI160BurstWrite
 1019 0048 00000000 		.word	vTaskDelay
 1020              		.cfi_endproc
 1021              	.LFE705:
 1022              		.size	bmi160Init, .-bmi160Init
 1023              		.global	__aeabi_i2d
 1024              		.global	__aeabi_dadd
 1025              		.global	__aeabi_dmul
 1026              		.section	.text.motionTask,"ax",%progbits
 1027              		.align	2
 1028              		.global	motionTask
 1029              		.thumb
 1030              		.thumb_func
 1031              		.type	motionTask, %function
 1032              	motionTask:
 1033              	.LFB706:
 293:Communication.c **** }
 294:Communication.c **** 
 295:Communication.c **** // 32768 = 2g
 296:Communication.c **** #define MAXACCEL (32768/2)
 297:Communication.c **** 
 298:Communication.c **** void motionTask(void *arg)
 299:Communication.c **** {
 1034              		.loc 1 299 0
 1035              		.cfi_startproc
 1036              		@ args = 0, pretend = 0, frame = 16
 1037              		@ frame_needed = 0, uses_anonymous_args = 0
 1038              	.LVL115:
 1039 0000 F0B5     		push	{r4, r5, r6, r7, lr}
 1040              		.cfi_def_cfa_offset 20
 1041              		.cfi_offset 4, -20
 1042              		.cfi_offset 5, -16
 1043              		.cfi_offset 6, -12
 1044              		.cfi_offset 7, -8
 1045              		.cfi_offset 14, -4
 1046 0002 85B0     		sub	sp, sp, #20
 1047              		.cfi_def_cfa_offset 40
 300:Communication.c ****     (void)arg;
 301:Communication.c ****     bmi160Init();
 1048              		.loc 1 301 0
 1049 0004 FFF7FEFF 		bl	bmi160Init
 1050              	.LVL116:
 1051              	.L53:
 302:Communication.c ****     struct bmi160_sensor_data acc;
 303:Communication.c ****     
 304:Communication.c ****     double acceleration;
 305:Communication.c ****     
 306:Communication.c ****     while(1)
 307:Communication.c ****     {
 308:Communication.c ****         bmi160_get_sensor_data(BMI160_ACCEL_ONLY, &acc, NULL, &bmi160Dev);
ARM GAS  C:\Users\jlabe\AppData\Local\Temp\ccJbzXZ1.s 			page 51


 1052              		.loc 1 308 0 discriminator 1
 1053 0008 204B     		ldr	r3, .L55
 1054 000a 0022     		movs	r2, #0
 1055 000c 01A9     		add	r1, sp, #4
 1056 000e 0120     		movs	r0, #1
 1057 0010 FFF7FEFF 		bl	bmi160_get_sensor_data
 1058              	.LVL117:
 309:Communication.c ****     
 310:Communication.c ****         acceleration = sqrt(pow(acc.x,2)+pow(acc.y,2)+pow(acc.z,2))/MAXACCEL;
 1059              		.loc 1 310 0 discriminator 1
 1060 0014 0024     		movs	r4, #0
 1061 0016 4FF08045 		mov	r5, #1073741824
 1062 001a BDF90400 		ldrsh	r0, [sp, #4]
 1063 001e FFF7FEFF 		bl	__aeabi_i2d
 1064              	.LVL118:
 1065 0022 2246     		mov	r2, r4
 1066 0024 2B46     		mov	r3, r5
 1067 0026 FFF7FEFF 		bl	pow
 1068              	.LVL119:
 1069 002a 0646     		mov	r6, r0
 1070 002c 0F46     		mov	r7, r1
 1071 002e BDF90600 		ldrsh	r0, [sp, #6]
 1072 0032 FFF7FEFF 		bl	__aeabi_i2d
 1073              	.LVL120:
 1074 0036 2246     		mov	r2, r4
 1075 0038 2B46     		mov	r3, r5
 1076 003a FFF7FEFF 		bl	pow
 1077              	.LVL121:
 1078 003e 0246     		mov	r2, r0
 1079 0040 0B46     		mov	r3, r1
 1080 0042 3046     		mov	r0, r6
 1081 0044 3946     		mov	r1, r7
 1082 0046 FFF7FEFF 		bl	__aeabi_dadd
 1083              	.LVL122:
 1084 004a 0646     		mov	r6, r0
 1085 004c 0F46     		mov	r7, r1
 1086 004e BDF90800 		ldrsh	r0, [sp, #8]
 1087 0052 FFF7FEFF 		bl	__aeabi_i2d
 1088              	.LVL123:
 1089 0056 2246     		mov	r2, r4
 1090 0058 2B46     		mov	r3, r5
 1091 005a FFF7FEFF 		bl	pow
 1092              	.LVL124:
 1093 005e 0446     		mov	r4, r0
 1094 0060 0D46     		mov	r5, r1
 1095 0062 2246     		mov	r2, r4
 1096 0064 2B46     		mov	r3, r5
 1097 0066 3046     		mov	r0, r6
 1098 0068 3946     		mov	r1, r7
 1099 006a FFF7FEFF 		bl	__aeabi_dadd
 1100              	.LVL125:
 1101 006e FFF7FEFF 		bl	sqrt
 1102              	.LVL126:
 1103 0072 0022     		movs	r2, #0
 1104 0074 064B     		ldr	r3, .L55+4
 1105 0076 FFF7FEFF 		bl	__aeabi_dmul
 1106              	.LVL127:
ARM GAS  C:\Users\jlabe\AppData\Local\Temp\ccJbzXZ1.s 			page 52


 311:Communication.c ****         
 312:Communication.c ****         printf("ACC = %f\r\n",acceleration);
 1107              		.loc 1 312 0 discriminator 1
 1108 007a 0246     		mov	r2, r0
 1109 007c 0B46     		mov	r3, r1
 1110 007e 0548     		ldr	r0, .L55+8
 1111              	.LVL128:
 1112 0080 FFF7FEFF 		bl	printf
 1113              	.LVL129:
 313:Communication.c ****         vTaskDelay(pdMS_TO_TICKS(200));
 1114              		.loc 1 313 0 discriminator 1
 1115 0084 C820     		movs	r0, #200
 1116 0086 FFF7FEFF 		bl	vTaskDelay
 1117              	.LVL130:
 1118 008a BDE7     		b	.L53
 1119              	.L56:
 1120              		.align	2
 1121              	.L55:
 1122 008c 00000000 		.word	bmi160Dev
 1123 0090 0000103F 		.word	1058013184
 1124 0094 20000000 		.word	.LC1
 1125              		.cfi_endproc
 1126              	.LFE706:
 1127              		.size	motionTask, .-motionTask
 1128              		.comm	bmi160Dev,40,4
 1129              		.section	.rodata.str1.4,"aMS",%progbits,1
 1130              		.align	2
 1131              	.LC0:
 1132 0000 693A2025 		.ascii	"i: %u RED : %u  IR  : %u  \015\012\000"
 1132      75205245 
 1132      44203A20 
 1132      25752020 
 1132      49522020 
 1133 001d 000000   		.space	3
 1134              	.LC1:
 1135 0020 41434320 		.ascii	"ACC = %f\015\012\000"
 1135      3D202566 
 1135      0D0A00
 1136              		.text
 1137              	.Letext0:
 1138              		.file 4 "c:\\program files (x86)\\cypress\\psoc creator\\4.4\\psoc creator\\import\\gnu\\arm\\5.4.
 1139              		.file 5 "c:\\program files (x86)\\cypress\\psoc creator\\4.4\\psoc creator\\import\\gnu\\arm\\5.4.
 1140              		.file 6 "Generated_Source\\PSoC6\\pdl\\devices/psoc6/include/ip/cyip_gpio.h"
 1141              		.file 7 "Generated_Source\\PSoC6\\pdl\\devices/psoc6/include/ip/cyip_scb.h"
 1142              		.file 8 "Generated_Source\\PSoC6\\pdl\\devices/psoc6/include/psoc6_01_config.h"
 1143              		.file 9 "Generated_Source\\PSoC6\\pdl\\drivers/peripheral/device/cy_device.h"
 1144              		.file 10 "Generated_Source\\PSoC6\\pdl\\drivers/peripheral/syslib/cy_syslib.h"
 1145              		.file 11 "Generated_Source\\PSoC6\\pdl\\drivers/peripheral/scb/cy_scb_i2c.h"
 1146              		.file 12 "Generated_Source\\PSoC6\\pdl\\drivers/peripheral/scb/cy_scb_spi.h"
 1147              		.file 13 "Generated_Source\\PSoC6\\pdl\\drivers/peripheral/scb/cy_scb_uart.h"
 1148              		.file 14 "Generated_Source\\PSoC6\\pdl\\drivers/peripheral/tcpwm/cy_tcpwm_counter.h"
 1149              		.file 15 "Generated_Source\\PSoC6\\pdl\\drivers/peripheral/tcpwm/cy_tcpwm_pwm.h"
 1150              		.file 16 "Generated_Source\\PSoC6\\pdl\\rtos/FreeRTOS/10.0.1/Source/portable/GCC/CM4F/portmacro.h"
 1151              		.file 17 "bmi160_defs.h"
 1152              		.file 18 ".\\CMSIS\\Core\\Include/core_cm4.h"
 1153              		.file 19 "Generated_Source\\PSoC6/PWM.h"
 1154              		.file 20 "Generated_Source\\PSoC6/CY_EINK_Timer.h"
ARM GAS  C:\Users\jlabe\AppData\Local\Temp\ccJbzXZ1.s 			page 53


 1155              		.file 21 "Generated_Source\\PSoC6/CY_EINK_SPIM.h"
 1156              		.file 22 "Generated_Source\\PSoC6/UART_1.h"
 1157              		.file 23 "Generated_Source\\PSoC6/I2C_2.h"
 1158              		.file 24 "c:\\program files (x86)\\cypress\\psoc creator\\4.4\\psoc creator\\import\\gnu\\arm\\5.4
 1159              		.file 25 "Generated_Source\\PSoC6\\pdl\\rtos/FreeRTOS/10.0.1/Source/include/task.h"
 1160              		.file 26 "bmi160.h"
 1161              		.file 27 "c:\\program files (x86)\\cypress\\psoc creator\\4.4\\psoc creator\\import\\gnu\\arm\\5.4