ARM GAS  C:\Users\jlabe\AppData\Local\Temp\ccQBWUqN.s 			page 1


   1              		.syntax unified
   2              		.cpu cortex-m4
   3              		.eabi_attribute 27, 1
   4              		.fpu fpv4-sp-d16
   5              		.eabi_attribute 20, 1
   6              		.eabi_attribute 21, 1
   7              		.eabi_attribute 23, 3
   8              		.eabi_attribute 24, 1
   9              		.eabi_attribute 25, 1
  10              		.eabi_attribute 26, 1
  11              		.eabi_attribute 30, 1
  12              		.eabi_attribute 34, 1
  13              		.eabi_attribute 18, 4
  14              		.thumb
  15              		.syntax unified
  16              		.file	"Interface.c"
  17              		.text
  18              	.Ltext0:
  19              		.cfi_sections	.debug_frame
  20              		.section	.text.interfaceSetup,"ax",%progbits
  21              		.align	2
  22              		.global	interfaceSetup
  23              		.thumb
  24              		.thumb_func
  25              		.type	interfaceSetup, %function
  26              	interfaceSetup:
  27              	.LFB693:
  28              		.file 1 "Interface.c"
   1:Interface.c   **** /*******************************************************************************
   2:Interface.c   **** * File name : Interface.c
   3:Interface.c   **** *
   4:Interface.c   **** * Function Name: void interface(void)
   5:Interface.c   **** * Summary: 
   6:Interface.c   **** *
   7:Interface.c   **** * Parameters:
   8:Interface.c   **** *  None
   9:Interface.c   **** *
  10:Interface.c   **** * Return:
  11:Interface.c   **** *  None
  12:Interface.c   **** *
  13:Interface.c   **** * Authors : 
  14:Interface.c   **** * Date : 24 mars 2021
  15:Interface.c   **** *
  16:Interface.c   **** ********************************************************************************/
  17:Interface.c   **** #include "Interface.h"
  18:Interface.c   **** #include "Commun.h"
  19:Interface.c   **** 
  20:Interface.c   **** 
  21:Interface.c   **** //Veceur obtenu avec le capteur à lier avec les valeurs que Yousef traite
  22:Interface.c   **** //float vectorR[]={205973,207305,206168,208001,206188,208050,206371,208225,206544,208577,206719,208
  23:Interface.c   **** //float vectorIR[]={99513,98160,99413,98419,99319,98729,99145,99050,98949,99419,98798,99851,98679,9
  24:Interface.c   **** 
  25:Interface.c   **** //Veceteur obtenu normalisé et espacé pour l'affichage
  26:Interface.c   **** float VecteurEspacerIR[250];
  27:Interface.c   **** float VecteurEspacerR[250];
  28:Interface.c   **** 
  29:Interface.c   **** /* Image buffer cache */
ARM GAS  C:\Users\jlabe\AppData\Local\Temp\ccQBWUqN.s 			page 2


  30:Interface.c   **** uint8 imageBufferCache[CY_EINK_FRAME_SIZE] = {0};
  31:Interface.c   **** 
  32:Interface.c   **** 
  33:Interface.c   **** void interfaceSetup(){
  29              		.loc 1 33 0
  30              		.cfi_startproc
  31              		@ args = 0, pretend = 0, frame = 0
  32              		@ frame_needed = 0, uses_anonymous_args = 0
  33              		@ link register save eliminated.
  34:Interface.c   **** 
  35:Interface.c   ****     NumPage=1;
  34              		.loc 1 35 0
  35 0000 0122     		movs	r2, #1
  36 0002 124B     		ldr	r3, .L2
  37 0004 1A60     		str	r2, [r3]
  36:Interface.c   ****     
  37:Interface.c   ****     bouton_semph=0;
  38              		.loc 1 37 0
  39 0006 0023     		movs	r3, #0
  40 0008 114A     		ldr	r2, .L2+4
  41 000a 1360     		str	r3, [r2]
  38:Interface.c   ****     estAppuye = false;
  42              		.loc 1 38 0
  43 000c 114A     		ldr	r2, .L2+8
  44 000e 1370     		strb	r3, [r2]
  39:Interface.c   ****     
  40:Interface.c   ****     AlarmeOnBPMmin=false;
  45              		.loc 1 40 0
  46 0010 114A     		ldr	r2, .L2+12
  47 0012 1370     		strb	r3, [r2]
  41:Interface.c   ****     AlarmeOnBPMmax=false;
  48              		.loc 1 41 0
  49 0014 114A     		ldr	r2, .L2+16
  50 0016 1370     		strb	r3, [r2]
  42:Interface.c   ****     AlarmeOnSpO2=false;
  51              		.loc 1 42 0
  52 0018 114A     		ldr	r2, .L2+20
  53 001a 1370     		strb	r3, [r2]
  43:Interface.c   ****     AlarmeOnACC=false;
  54              		.loc 1 43 0
  55 001c 114A     		ldr	r2, .L2+24
  56 001e 1370     		strb	r3, [r2]
  44:Interface.c   ****     
  45:Interface.c   ****     SpO2=98;
  57              		.loc 1 45 0
  58 0020 6221     		movs	r1, #98
  59 0022 114A     		ldr	r2, .L2+28
  60 0024 1180     		strh	r1, [r2]	@ movhi
  46:Interface.c   ****     BPM=150;
  61              		.loc 1 46 0
  62 0026 9621     		movs	r1, #150
  63 0028 104A     		ldr	r2, .L2+32
  64 002a 1180     		strh	r1, [r2]	@ movhi
  47:Interface.c   ****     VraiValeurACC=0.9;
  65              		.loc 1 47 0
  66 002c 1049     		ldr	r1, .L2+36
  67 002e 114A     		ldr	r2, .L2+40
ARM GAS  C:\Users\jlabe\AppData\Local\Temp\ccQBWUqN.s 			page 3


  68 0030 1160     		str	r1, [r2]	@ float
  48:Interface.c   **** 
  49:Interface.c   ****     SpO2min=80;
  69              		.loc 1 49 0
  70 0032 5021     		movs	r1, #80
  71 0034 104A     		ldr	r2, .L2+44
  72 0036 1160     		str	r1, [r2]
  50:Interface.c   ****     BPMmax=200;
  73              		.loc 1 50 0
  74 0038 C821     		movs	r1, #200
  75 003a 104A     		ldr	r2, .L2+48
  76 003c 1160     		str	r1, [r2]
  51:Interface.c   ****     BPMmin=70;
  77              		.loc 1 51 0
  78 003e 4621     		movs	r1, #70
  79 0040 0F4A     		ldr	r2, .L2+52
  80 0042 1160     		str	r1, [r2]
  52:Interface.c   **** 
  53:Interface.c   ****     IntensiteDELs=0;
  81              		.loc 1 53 0
  82 0044 0F4A     		ldr	r2, .L2+56
  83 0046 1360     		str	r3, [r2]
  84 0048 7047     		bx	lr
  85              	.L3:
  86 004a 00BF     		.align	2
  87              	.L2:
  88 004c 00000000 		.word	NumPage
  89 0050 00000000 		.word	bouton_semph
  90 0054 00000000 		.word	estAppuye
  91 0058 00000000 		.word	AlarmeOnBPMmin
  92 005c 00000000 		.word	AlarmeOnBPMmax
  93 0060 00000000 		.word	AlarmeOnSpO2
  94 0064 00000000 		.word	AlarmeOnACC
  95 0068 00000000 		.word	SpO2
  96 006c 00000000 		.word	BPM
  97 0070 6666663F 		.word	1063675494
  98 0074 00000000 		.word	VraiValeurACC
  99 0078 00000000 		.word	SpO2min
 100 007c 00000000 		.word	BPMmax
 101 0080 00000000 		.word	BPMmin
 102 0084 00000000 		.word	IntensiteDELs
 103              		.cfi_endproc
 104              	.LFE693:
 105              		.size	interfaceSetup, .-interfaceSetup
 106              		.section	.text.UpdateDisplay,"ax",%progbits
 107              		.align	2
 108              		.global	UpdateDisplay
 109              		.thumb
 110              		.thumb_func
 111              		.type	UpdateDisplay, %function
 112              	UpdateDisplay:
 113              	.LFB694:
  54:Interface.c   **** 
  55:Interface.c   **** }   
  56:Interface.c   **** /*******************************************************************************
  57:Interface.c   **** * Function Name: void UpdateDisplay(void)
  58:Interface.c   **** ********************************************************************************
ARM GAS  C:\Users\jlabe\AppData\Local\Temp\ccQBWUqN.s 			page 4


  59:Interface.c   **** *
  60:Interface.c   **** * Summary: This function updates the display with the data in the display 
  61:Interface.c   **** *			buffer.  The function first transfers the content of the EmWin
  62:Interface.c   **** *			display buffer to the primary EInk display buffer.  Then it calls
  63:Interface.c   **** *			the Cy_EINK_ShowFrame function to update the display, and then
  64:Interface.c   **** *			it copies the EmWin display buffer to the Eink display cache buffer
  65:Interface.c   **** *
  66:Interface.c   **** * Parameters:
  67:Interface.c   **** *  None
  68:Interface.c   **** *
  69:Interface.c   **** * Return:
  70:Interface.c   **** *  None
  71:Interface.c   **** *
  72:Interface.c   **** * Side Effects:
  73:Interface.c   **** *  It takes about a second to refresh the display.  This is a blocking function
  74:Interface.c   **** *  and only returns after the display refresh
  75:Interface.c   **** *
  76:Interface.c   **** *******************************************************************************/
  77:Interface.c   **** void UpdateDisplay(cy_eink_update_t updateMethod, bool powerCycle)
  78:Interface.c   **** {
 114              		.loc 1 78 0
 115              		.cfi_startproc
 116              		@ args = 0, pretend = 0, frame = 0
 117              		@ frame_needed = 0, uses_anonymous_args = 0
 118              	.LVL0:
 119 0000 F8B5     		push	{r3, r4, r5, r6, r7, lr}
 120              		.cfi_def_cfa_offset 24
 121              		.cfi_offset 3, -24
 122              		.cfi_offset 4, -20
 123              		.cfi_offset 5, -16
 124              		.cfi_offset 6, -12
 125              		.cfi_offset 7, -8
 126              		.cfi_offset 14, -4
 127 0002 0646     		mov	r6, r0
 128 0004 0F46     		mov	r7, r1
  79:Interface.c   ****     cy_eink_frame_t* pEmwinBuffer;
  80:Interface.c   **** 
  81:Interface.c   ****     /* Get the pointer to Emwin's display buffer */
  82:Interface.c   ****     pEmwinBuffer = (cy_eink_frame_t*)LCD_GetDisplayBuffer();
 129              		.loc 1 82 0
 130 0006 FFF7FEFF 		bl	LCD_GetDisplayBuffer
 131              	.LVL1:
 132 000a 0546     		mov	r5, r0
 133              	.LVL2:
  83:Interface.c   **** 
  84:Interface.c   ****     /* Update the EInk display */
  85:Interface.c   ****     Cy_EINK_ShowFrame(imageBufferCache, pEmwinBuffer, updateMethod, powerCycle);
 134              		.loc 1 85 0
 135 000c 064C     		ldr	r4, .L6
 136 000e 3B46     		mov	r3, r7
 137 0010 3246     		mov	r2, r6
 138 0012 0146     		mov	r1, r0
 139 0014 2046     		mov	r0, r4
 140              	.LVL3:
 141 0016 FFF7FEFF 		bl	Cy_EINK_ShowFrame
 142              	.LVL4:
  86:Interface.c   **** 
ARM GAS  C:\Users\jlabe\AppData\Local\Temp\ccQBWUqN.s 			page 5


  87:Interface.c   ****     /* Copy the EmWin display buffer to the imageBuffer cache*/
  88:Interface.c   ****     memcpy(imageBufferCache, pEmwinBuffer, CY_EINK_FRAME_SIZE);
 143              		.loc 1 88 0
 144 001a 41F2B062 		movw	r2, #5808
 145 001e 2946     		mov	r1, r5
 146 0020 2046     		mov	r0, r4
 147 0022 FFF7FEFF 		bl	memcpy
 148              	.LVL5:
 149 0026 F8BD     		pop	{r3, r4, r5, r6, r7, pc}
 150              	.LVL6:
 151              	.L7:
 152              		.align	2
 153              	.L6:
 154 0028 00000000 		.word	.LANCHOR0
 155              		.cfi_endproc
 156              	.LFE694:
 157              		.size	UpdateDisplay, .-UpdateDisplay
 158              		.section	.text.ClearScreen,"ax",%progbits
 159              		.align	2
 160              		.global	ClearScreen
 161              		.thumb
 162              		.thumb_func
 163              		.type	ClearScreen, %function
 164              	ClearScreen:
 165              	.LFB695:
  89:Interface.c   **** }
  90:Interface.c   **** /*******************************************************************************
  91:Interface.c   **** * Function Name: void ClearScreen(void)
  92:Interface.c   **** ********************************************************************************
  93:Interface.c   **** *
  94:Interface.c   **** * Summary: This function clears the screen
  95:Interface.c   **** *
  96:Interface.c   **** * Parameters:
  97:Interface.c   **** *  None
  98:Interface.c   **** *
  99:Interface.c   **** * Return:
 100:Interface.c   **** *  None
 101:Interface.c   **** *
 102:Interface.c   **** *******************************************************************************/
 103:Interface.c   **** void ClearScreen(void)
 104:Interface.c   **** {
 166              		.loc 1 104 0
 167              		.cfi_startproc
 168              		@ args = 0, pretend = 0, frame = 0
 169              		@ frame_needed = 0, uses_anonymous_args = 0
 170 0000 08B5     		push	{r3, lr}
 171              		.cfi_def_cfa_offset 8
 172              		.cfi_offset 3, -8
 173              		.cfi_offset 14, -4
 105:Interface.c   ****     GUI_SetColor(GUI_BLACK);
 174              		.loc 1 105 0
 175 0002 0020     		movs	r0, #0
 176 0004 FFF7FEFF 		bl	GUI_SetColor
 177              	.LVL7:
 106:Interface.c   ****     GUI_SetBkColor(GUI_WHITE);
 178              		.loc 1 106 0
 179 0008 6FF07F40 		mvn	r0, #-16777216
ARM GAS  C:\Users\jlabe\AppData\Local\Temp\ccQBWUqN.s 			page 6


 180 000c FFF7FEFF 		bl	GUI_SetBkColor
 181              	.LVL8:
 107:Interface.c   ****     GUI_Clear();
 182              		.loc 1 107 0
 183 0010 FFF7FEFF 		bl	GUI_Clear
 184              	.LVL9:
 108:Interface.c   ****     UpdateDisplay(CY_EINK_FULL_4STAGE, true);
 185              		.loc 1 108 0
 186 0014 0121     		movs	r1, #1
 187 0016 0846     		mov	r0, r1
 188 0018 FFF7FEFF 		bl	UpdateDisplay
 189              	.LVL10:
 190 001c 08BD     		pop	{r3, pc}
 191              		.cfi_endproc
 192              	.LFE695:
 193              		.size	ClearScreen, .-ClearScreen
 194 001e 00BF     		.section	.text.isr_bouton,"ax",%progbits
 195              		.align	2
 196              		.global	isr_bouton
 197              		.thumb
 198              		.thumb_func
 199              		.type	isr_bouton, %function
 200              	isr_bouton:
 201              	.LFB696:
 109:Interface.c   **** }
 110:Interface.c   **** 
 111:Interface.c   **** /*******************************************************************************
 112:Interface.c   **** * Function Name: isr_bouton(void) et void DesactiverAlarme_task()
 113:Interface.c   **** ********************************************************************************
 114:Interface.c   **** *
 115:Interface.c   **** * Summary: Fonction et tâche pour désactiver l'alarme
 116:Interface.c   **** *
 117:Interface.c   **** * Parameters:
 118:Interface.c   **** *  
 119:Interface.c   **** *
 120:Interface.c   **** * Return:
 121:Interface.c   **** *  None
 122:Interface.c   **** *
 123:Interface.c   **** *
 124:Interface.c   **** *******************************************************************************/
 125:Interface.c   **** 
 126:Interface.c   **** void isr_bouton(void)
 127:Interface.c   **** {
 202              		.loc 1 127 0
 203              		.cfi_startproc
 204              		@ args = 0, pretend = 0, frame = 0
 205              		@ frame_needed = 0, uses_anonymous_args = 0
 206 0000 08B5     		push	{r3, lr}
 207              		.cfi_def_cfa_offset 8
 208              		.cfi_offset 3, -8
 209              		.cfi_offset 14, -4
 128:Interface.c   ****     xSemaphoreGiveFromISR(bouton_semph, NULL);
 210              		.loc 1 128 0
 211 0002 0D4B     		ldr	r3, .L13
 212 0004 1868     		ldr	r0, [r3]
 213 0006 0021     		movs	r1, #0
 214 0008 FFF7FEFF 		bl	xQueueGiveFromISR
ARM GAS  C:\Users\jlabe\AppData\Local\Temp\ccQBWUqN.s 			page 7


 215              	.LVL11:
 216              	.LBB12:
 217              	.LBB13:
 218              		.file 2 "Generated_Source\\PSoC6\\pdl\\drivers/peripheral/gpio/cy_gpio.h"
   1:Generated_Source\PSoC6\pdl\drivers/peripheral/gpio/cy_gpio.h **** /***************************************************************************//**
   2:Generated_Source\PSoC6\pdl\drivers/peripheral/gpio/cy_gpio.h **** * \file cy_gpio.h
   3:Generated_Source\PSoC6\pdl\drivers/peripheral/gpio/cy_gpio.h **** * \version 1.20
   4:Generated_Source\PSoC6\pdl\drivers/peripheral/gpio/cy_gpio.h **** *
   5:Generated_Source\PSoC6\pdl\drivers/peripheral/gpio/cy_gpio.h **** * Provides an API declaration of the GPIO driver
   6:Generated_Source\PSoC6\pdl\drivers/peripheral/gpio/cy_gpio.h **** *
   7:Generated_Source\PSoC6\pdl\drivers/peripheral/gpio/cy_gpio.h **** ********************************************************************************
   8:Generated_Source\PSoC6\pdl\drivers/peripheral/gpio/cy_gpio.h **** * \copyright
   9:Generated_Source\PSoC6\pdl\drivers/peripheral/gpio/cy_gpio.h **** * Copyright 2016-2018, Cypress Semiconductor Corporation. All rights reserved.
  10:Generated_Source\PSoC6\pdl\drivers/peripheral/gpio/cy_gpio.h **** * You may use this file only in accordance with the license, terms, conditions,
  11:Generated_Source\PSoC6\pdl\drivers/peripheral/gpio/cy_gpio.h **** * disclaimers, and limitations in the end user license agreement accompanying
  12:Generated_Source\PSoC6\pdl\drivers/peripheral/gpio/cy_gpio.h **** * the software package with which this file was provided.
  13:Generated_Source\PSoC6\pdl\drivers/peripheral/gpio/cy_gpio.h **** *******************************************************************************/
  14:Generated_Source\PSoC6\pdl\drivers/peripheral/gpio/cy_gpio.h **** 
  15:Generated_Source\PSoC6\pdl\drivers/peripheral/gpio/cy_gpio.h **** /**
  16:Generated_Source\PSoC6\pdl\drivers/peripheral/gpio/cy_gpio.h **** * \addtogroup group_gpio
  17:Generated_Source\PSoC6\pdl\drivers/peripheral/gpio/cy_gpio.h **** * \{
  18:Generated_Source\PSoC6\pdl\drivers/peripheral/gpio/cy_gpio.h **** * The GPIO driver provides an API to configure and access device Input/Output pins.
  19:Generated_Source\PSoC6\pdl\drivers/peripheral/gpio/cy_gpio.h **** *
  20:Generated_Source\PSoC6\pdl\drivers/peripheral/gpio/cy_gpio.h **** * The functions and other declarations used in this driver are in cy_gpio.h. 
  21:Generated_Source\PSoC6\pdl\drivers/peripheral/gpio/cy_gpio.h **** * You can include cy_pdl.h (ModusToolbox only) to get access to all functions 
  22:Generated_Source\PSoC6\pdl\drivers/peripheral/gpio/cy_gpio.h **** * and declarations in the PDL.
  23:Generated_Source\PSoC6\pdl\drivers/peripheral/gpio/cy_gpio.h **** *
  24:Generated_Source\PSoC6\pdl\drivers/peripheral/gpio/cy_gpio.h **** * IO pins include all general purpose types such as GPIO, SIO, HSIO, AUXIO, and
  25:Generated_Source\PSoC6\pdl\drivers/peripheral/gpio/cy_gpio.h **** * their variants.
  26:Generated_Source\PSoC6\pdl\drivers/peripheral/gpio/cy_gpio.h **** *
  27:Generated_Source\PSoC6\pdl\drivers/peripheral/gpio/cy_gpio.h **** * Initialization can be performed either at the port level or by configuring the
  28:Generated_Source\PSoC6\pdl\drivers/peripheral/gpio/cy_gpio.h **** * individual pins. For efficient use of code space, port
  29:Generated_Source\PSoC6\pdl\drivers/peripheral/gpio/cy_gpio.h **** * configuration should be used in the field. Refer to the product device header files 
  30:Generated_Source\PSoC6\pdl\drivers/peripheral/gpio/cy_gpio.h **** * for the list of supported ports and pins.
  31:Generated_Source\PSoC6\pdl\drivers/peripheral/gpio/cy_gpio.h **** * 
  32:Generated_Source\PSoC6\pdl\drivers/peripheral/gpio/cy_gpio.h **** * - Single pin configuration is performed by using \ref Cy_GPIO_Pin_FastInit 
  33:Generated_Source\PSoC6\pdl\drivers/peripheral/gpio/cy_gpio.h **** *   (provide specific values) or \ref Cy_GPIO_Pin_Init (provide a filled
  34:Generated_Source\PSoC6\pdl\drivers/peripheral/gpio/cy_gpio.h **** *   cy_stc_gpio_pin_config_t structure).
  35:Generated_Source\PSoC6\pdl\drivers/peripheral/gpio/cy_gpio.h **** * - An entire port can be configured using \ref Cy_GPIO_Port_Init. Provide a filled 
  36:Generated_Source\PSoC6\pdl\drivers/peripheral/gpio/cy_gpio.h **** *   cy_stc_gpio_prt_config_t structure. The values in the structure are 
  37:Generated_Source\PSoC6\pdl\drivers/peripheral/gpio/cy_gpio.h **** *   bitfields representing the desired value for each pin in the port.
  38:Generated_Source\PSoC6\pdl\drivers/peripheral/gpio/cy_gpio.h **** * - Pin configuration and management is based on the port address and pin number.
  39:Generated_Source\PSoC6\pdl\drivers/peripheral/gpio/cy_gpio.h **** *   \ref Cy_GPIO_PortToAddr function can optionally be used to calculate the port
  40:Generated_Source\PSoC6\pdl\drivers/peripheral/gpio/cy_gpio.h **** *   address from the port number at run-time.
  41:Generated_Source\PSoC6\pdl\drivers/peripheral/gpio/cy_gpio.h **** *
  42:Generated_Source\PSoC6\pdl\drivers/peripheral/gpio/cy_gpio.h **** * Once the pin/port initialization is complete, each pin can be accessed by 
  43:Generated_Source\PSoC6\pdl\drivers/peripheral/gpio/cy_gpio.h **** * specifying the port (GPIO_PRT_Type) and the pin (0-7) in the provided API 
  44:Generated_Source\PSoC6\pdl\drivers/peripheral/gpio/cy_gpio.h **** * functions.
  45:Generated_Source\PSoC6\pdl\drivers/peripheral/gpio/cy_gpio.h **** *
  46:Generated_Source\PSoC6\pdl\drivers/peripheral/gpio/cy_gpio.h **** * \section group_gpio_configuration Configuration Considerations
  47:Generated_Source\PSoC6\pdl\drivers/peripheral/gpio/cy_gpio.h **** *
  48:Generated_Source\PSoC6\pdl\drivers/peripheral/gpio/cy_gpio.h **** * 1. Pin multiplexing is controlled through the High-Speed IO Matrix (HSIOM) selection.
  49:Generated_Source\PSoC6\pdl\drivers/peripheral/gpio/cy_gpio.h **** *    This allows the pin to connect to signal sources/sinks throughout the device,
  50:Generated_Source\PSoC6\pdl\drivers/peripheral/gpio/cy_gpio.h **** *    as defined by the pin HSIOM selection options (en_hsiom_sel_t).
  51:Generated_Source\PSoC6\pdl\drivers/peripheral/gpio/cy_gpio.h **** * 2. All pins are initialized to High-Z drive mode with HSIOM connected to CPU (SW
  52:Generated_Source\PSoC6\pdl\drivers/peripheral/gpio/cy_gpio.h **** *    control digital pin only) at Power-On-Reset(POR).
  53:Generated_Source\PSoC6\pdl\drivers/peripheral/gpio/cy_gpio.h **** * 3. Some API functions perform read-modify-write operations on shared port
ARM GAS  C:\Users\jlabe\AppData\Local\Temp\ccQBWUqN.s 			page 8


  54:Generated_Source\PSoC6\pdl\drivers/peripheral/gpio/cy_gpio.h **** *    registers. These functions are not thread safe and care must be taken when
  55:Generated_Source\PSoC6\pdl\drivers/peripheral/gpio/cy_gpio.h **** *    called by the application.
  56:Generated_Source\PSoC6\pdl\drivers/peripheral/gpio/cy_gpio.h **** * 4. Digital input buffer provides a high-impedance buffer for the external 
  57:Generated_Source\PSoC6\pdl\drivers/peripheral/gpio/cy_gpio.h **** *    digital input. The input buffer is connected to the HSIOM for routing to 
  58:Generated_Source\PSoC6\pdl\drivers/peripheral/gpio/cy_gpio.h **** *    the CPU port registers and selected peripheral. Enabling the input 
  59:Generated_Source\PSoC6\pdl\drivers/peripheral/gpio/cy_gpio.h **** *    buffer provides possibility to read the pin state via the CPU.
  60:Generated_Source\PSoC6\pdl\drivers/peripheral/gpio/cy_gpio.h **** *    If pin is connected to an analog signal, the input buffer should be 
  61:Generated_Source\PSoC6\pdl\drivers/peripheral/gpio/cy_gpio.h **** *    disabled to avoid crowbar currents. For more information refer to device 
  62:Generated_Source\PSoC6\pdl\drivers/peripheral/gpio/cy_gpio.h **** *    TRM and the device datasheet.
  63:Generated_Source\PSoC6\pdl\drivers/peripheral/gpio/cy_gpio.h **** *
  64:Generated_Source\PSoC6\pdl\drivers/peripheral/gpio/cy_gpio.h **** * Multiple pins on a port can be updated using direct port register writes with an
  65:Generated_Source\PSoC6\pdl\drivers/peripheral/gpio/cy_gpio.h **** * appropriate port mask. An example is shown below, highlighting the different ways of 
  66:Generated_Source\PSoC6\pdl\drivers/peripheral/gpio/cy_gpio.h **** * configuring Port 1 pins using:
  67:Generated_Source\PSoC6\pdl\drivers/peripheral/gpio/cy_gpio.h **** * 
  68:Generated_Source\PSoC6\pdl\drivers/peripheral/gpio/cy_gpio.h **** * - Port output data register
  69:Generated_Source\PSoC6\pdl\drivers/peripheral/gpio/cy_gpio.h **** * - Port output data set register
  70:Generated_Source\PSoC6\pdl\drivers/peripheral/gpio/cy_gpio.h **** * - Port output data clear register
  71:Generated_Source\PSoC6\pdl\drivers/peripheral/gpio/cy_gpio.h **** *
  72:Generated_Source\PSoC6\pdl\drivers/peripheral/gpio/cy_gpio.h **** * \snippet gpio/gpio_v1_10_sut_01.cydsn/main_cm4.c Cy_GPIO_Snippet
  73:Generated_Source\PSoC6\pdl\drivers/peripheral/gpio/cy_gpio.h **** *
  74:Generated_Source\PSoC6\pdl\drivers/peripheral/gpio/cy_gpio.h **** * \section group_gpio_more_information More Information
  75:Generated_Source\PSoC6\pdl\drivers/peripheral/gpio/cy_gpio.h **** *
  76:Generated_Source\PSoC6\pdl\drivers/peripheral/gpio/cy_gpio.h **** * Refer to the technical reference manual (TRM) and the device datasheet.
  77:Generated_Source\PSoC6\pdl\drivers/peripheral/gpio/cy_gpio.h **** *
  78:Generated_Source\PSoC6\pdl\drivers/peripheral/gpio/cy_gpio.h **** * \section group_gpio_MISRA MISRA-C Compliance
  79:Generated_Source\PSoC6\pdl\drivers/peripheral/gpio/cy_gpio.h **** * The GPIO driver has the following specific deviations:
  80:Generated_Source\PSoC6\pdl\drivers/peripheral/gpio/cy_gpio.h **** *
  81:Generated_Source\PSoC6\pdl\drivers/peripheral/gpio/cy_gpio.h **** * <table class="doxtable">
  82:Generated_Source\PSoC6\pdl\drivers/peripheral/gpio/cy_gpio.h **** *   <tr>
  83:Generated_Source\PSoC6\pdl\drivers/peripheral/gpio/cy_gpio.h **** *     <th>MISRA Rule</th>
  84:Generated_Source\PSoC6\pdl\drivers/peripheral/gpio/cy_gpio.h **** *     <th>Rule Class (Required/Advisory)</th>
  85:Generated_Source\PSoC6\pdl\drivers/peripheral/gpio/cy_gpio.h **** *     <th>Rule Description</th>
  86:Generated_Source\PSoC6\pdl\drivers/peripheral/gpio/cy_gpio.h **** *     <th>Description of Deviation(s)</th>
  87:Generated_Source\PSoC6\pdl\drivers/peripheral/gpio/cy_gpio.h **** *   </tr>
  88:Generated_Source\PSoC6\pdl\drivers/peripheral/gpio/cy_gpio.h **** *   <tr>
  89:Generated_Source\PSoC6\pdl\drivers/peripheral/gpio/cy_gpio.h **** *     <td>11.4</td>
  90:Generated_Source\PSoC6\pdl\drivers/peripheral/gpio/cy_gpio.h **** *     <td>A</td>
  91:Generated_Source\PSoC6\pdl\drivers/peripheral/gpio/cy_gpio.h **** *     <td>A cast should not be performed between a pointer to object type and
  92:Generated_Source\PSoC6\pdl\drivers/peripheral/gpio/cy_gpio.h **** *         a different pointer to object type.</td>
  93:Generated_Source\PSoC6\pdl\drivers/peripheral/gpio/cy_gpio.h **** *     <td> This code is safe because the elements of both GPIO_PRT_V1_Type and GPIO_PRT_V2_Type 
  94:Generated_Source\PSoC6\pdl\drivers/peripheral/gpio/cy_gpio.h **** *          types have identical alignment.</td>
  95:Generated_Source\PSoC6\pdl\drivers/peripheral/gpio/cy_gpio.h **** *   </tr>
  96:Generated_Source\PSoC6\pdl\drivers/peripheral/gpio/cy_gpio.h **** *   <tr>
  97:Generated_Source\PSoC6\pdl\drivers/peripheral/gpio/cy_gpio.h **** *     <td>16.7</td>
  98:Generated_Source\PSoC6\pdl\drivers/peripheral/gpio/cy_gpio.h **** *     <td>A</td>
  99:Generated_Source\PSoC6\pdl\drivers/peripheral/gpio/cy_gpio.h **** *     <td>A pointer parameter in a function prototype should be declared as pointer 
 100:Generated_Source\PSoC6\pdl\drivers/peripheral/gpio/cy_gpio.h **** *         to const if the pointer is not used to modify the addressed object.</td>
 101:Generated_Source\PSoC6\pdl\drivers/peripheral/gpio/cy_gpio.h **** *     <td>The objects pointed to by the base addresses of the GPIO port are not always modified.
 102:Generated_Source\PSoC6\pdl\drivers/peripheral/gpio/cy_gpio.h **** *         While a const qualifier can be used in select scenarios, it brings little benefit
 103:Generated_Source\PSoC6\pdl\drivers/peripheral/gpio/cy_gpio.h **** *         in adding this to the affected functions. </td>
 104:Generated_Source\PSoC6\pdl\drivers/peripheral/gpio/cy_gpio.h **** *   </tr>
 105:Generated_Source\PSoC6\pdl\drivers/peripheral/gpio/cy_gpio.h **** * </table>
 106:Generated_Source\PSoC6\pdl\drivers/peripheral/gpio/cy_gpio.h **** *
 107:Generated_Source\PSoC6\pdl\drivers/peripheral/gpio/cy_gpio.h **** * \section group_gpio_changelog Changelog
 108:Generated_Source\PSoC6\pdl\drivers/peripheral/gpio/cy_gpio.h **** * <table class="doxtable">
 109:Generated_Source\PSoC6\pdl\drivers/peripheral/gpio/cy_gpio.h **** *   <tr><th>Version</th><th>Changes</th><th>Reason for Change</th></tr>
 110:Generated_Source\PSoC6\pdl\drivers/peripheral/gpio/cy_gpio.h **** *   <tr>
ARM GAS  C:\Users\jlabe\AppData\Local\Temp\ccQBWUqN.s 			page 9


 111:Generated_Source\PSoC6\pdl\drivers/peripheral/gpio/cy_gpio.h **** *     <td rowspan="3">1.20</td>
 112:Generated_Source\PSoC6\pdl\drivers/peripheral/gpio/cy_gpio.h **** *     <td>Flattened the organization of the driver source code into the single source directory and
 113:Generated_Source\PSoC6\pdl\drivers/peripheral/gpio/cy_gpio.h **** *     <td>Driver library directory-structure simplification.</td>
 114:Generated_Source\PSoC6\pdl\drivers/peripheral/gpio/cy_gpio.h **** *   </tr>
 115:Generated_Source\PSoC6\pdl\drivers/peripheral/gpio/cy_gpio.h **** *   <tr>
 116:Generated_Source\PSoC6\pdl\drivers/peripheral/gpio/cy_gpio.h **** *     <td>Added the functions for configuring the AMux bus splitter switch cells:
 117:Generated_Source\PSoC6\pdl\drivers/peripheral/gpio/cy_gpio.h **** *     - \ref Cy_GPIO_SetAmuxSplit
 118:Generated_Source\PSoC6\pdl\drivers/peripheral/gpio/cy_gpio.h **** *     - \ref Cy_GPIO_GetAmuxSplit
 119:Generated_Source\PSoC6\pdl\drivers/peripheral/gpio/cy_gpio.h **** *     </td>
 120:Generated_Source\PSoC6\pdl\drivers/peripheral/gpio/cy_gpio.h **** *     <td>Added a new functionality related to AMux bus.</td>
 121:Generated_Source\PSoC6\pdl\drivers/peripheral/gpio/cy_gpio.h **** *   </tr>
 122:Generated_Source\PSoC6\pdl\drivers/peripheral/gpio/cy_gpio.h **** *   <tr>
 123:Generated_Source\PSoC6\pdl\drivers/peripheral/gpio/cy_gpio.h **** *     <td>Added register access layer. Use register access macros instead
 124:Generated_Source\PSoC6\pdl\drivers/peripheral/gpio/cy_gpio.h **** *         of direct register access using dereferenced pointers.</td>
 125:Generated_Source\PSoC6\pdl\drivers/peripheral/gpio/cy_gpio.h **** *     <td>Makes register access device-independent, so that the PDL does 
 126:Generated_Source\PSoC6\pdl\drivers/peripheral/gpio/cy_gpio.h **** *         not need to be recompiled for each supported part number.</td>
 127:Generated_Source\PSoC6\pdl\drivers/peripheral/gpio/cy_gpio.h **** *   </tr>
 128:Generated_Source\PSoC6\pdl\drivers/peripheral/gpio/cy_gpio.h **** *   <tr>
 129:Generated_Source\PSoC6\pdl\drivers/peripheral/gpio/cy_gpio.h **** *     <td>1.10.1</td>
 130:Generated_Source\PSoC6\pdl\drivers/peripheral/gpio/cy_gpio.h **** *     <td>Updated description for the functions: \ref Cy_GPIO_GetInterruptStatus, 
 131:Generated_Source\PSoC6\pdl\drivers/peripheral/gpio/cy_gpio.h **** *         \ref Cy_GPIO_GetInterruptMask, \ref Cy_GPIO_GetInterruptStatusMasked.
 132:Generated_Source\PSoC6\pdl\drivers/peripheral/gpio/cy_gpio.h **** *
 133:Generated_Source\PSoC6\pdl\drivers/peripheral/gpio/cy_gpio.h **** *         Minor documentation edits.
 134:Generated_Source\PSoC6\pdl\drivers/peripheral/gpio/cy_gpio.h **** *     </td>
 135:Generated_Source\PSoC6\pdl\drivers/peripheral/gpio/cy_gpio.h **** *     <td>Documentation update and clarification</td>
 136:Generated_Source\PSoC6\pdl\drivers/peripheral/gpio/cy_gpio.h **** *   </tr>
 137:Generated_Source\PSoC6\pdl\drivers/peripheral/gpio/cy_gpio.h **** *   <tr>
 138:Generated_Source\PSoC6\pdl\drivers/peripheral/gpio/cy_gpio.h **** *     <td>1.10</td>
 139:Generated_Source\PSoC6\pdl\drivers/peripheral/gpio/cy_gpio.h **** *     <td>Added input parameter validation to the API functions</td>
 140:Generated_Source\PSoC6\pdl\drivers/peripheral/gpio/cy_gpio.h **** *     <td></td>
 141:Generated_Source\PSoC6\pdl\drivers/peripheral/gpio/cy_gpio.h **** *   </tr>
 142:Generated_Source\PSoC6\pdl\drivers/peripheral/gpio/cy_gpio.h **** *   <tr>
 143:Generated_Source\PSoC6\pdl\drivers/peripheral/gpio/cy_gpio.h **** *     <td>1.0</td>
 144:Generated_Source\PSoC6\pdl\drivers/peripheral/gpio/cy_gpio.h **** *     <td>Initial version</td>
 145:Generated_Source\PSoC6\pdl\drivers/peripheral/gpio/cy_gpio.h **** *     <td></td>
 146:Generated_Source\PSoC6\pdl\drivers/peripheral/gpio/cy_gpio.h **** *   </tr>
 147:Generated_Source\PSoC6\pdl\drivers/peripheral/gpio/cy_gpio.h **** * </table>
 148:Generated_Source\PSoC6\pdl\drivers/peripheral/gpio/cy_gpio.h **** *
 149:Generated_Source\PSoC6\pdl\drivers/peripheral/gpio/cy_gpio.h **** * \defgroup group_gpio_macros Macros
 150:Generated_Source\PSoC6\pdl\drivers/peripheral/gpio/cy_gpio.h **** * \defgroup group_gpio_functions Functions
 151:Generated_Source\PSoC6\pdl\drivers/peripheral/gpio/cy_gpio.h **** * \{
 152:Generated_Source\PSoC6\pdl\drivers/peripheral/gpio/cy_gpio.h **** *   \defgroup group_gpio_functions_init       Initialization Functions
 153:Generated_Source\PSoC6\pdl\drivers/peripheral/gpio/cy_gpio.h **** *   \defgroup group_gpio_functions_gpio       GPIO Functions
 154:Generated_Source\PSoC6\pdl\drivers/peripheral/gpio/cy_gpio.h **** *   \defgroup group_gpio_functions_sio        SIO Functions
 155:Generated_Source\PSoC6\pdl\drivers/peripheral/gpio/cy_gpio.h **** *   \defgroup group_gpio_functions_interrupt  Port Interrupt Functions
 156:Generated_Source\PSoC6\pdl\drivers/peripheral/gpio/cy_gpio.h **** * \}
 157:Generated_Source\PSoC6\pdl\drivers/peripheral/gpio/cy_gpio.h **** * \defgroup group_gpio_data_structures Data Structures
 158:Generated_Source\PSoC6\pdl\drivers/peripheral/gpio/cy_gpio.h **** * \defgroup group_gpio_enums Enumerated Types
 159:Generated_Source\PSoC6\pdl\drivers/peripheral/gpio/cy_gpio.h **** */
 160:Generated_Source\PSoC6\pdl\drivers/peripheral/gpio/cy_gpio.h **** 
 161:Generated_Source\PSoC6\pdl\drivers/peripheral/gpio/cy_gpio.h **** #if !defined(CY_GPIO_H)
 162:Generated_Source\PSoC6\pdl\drivers/peripheral/gpio/cy_gpio.h **** #define CY_GPIO_H
 163:Generated_Source\PSoC6\pdl\drivers/peripheral/gpio/cy_gpio.h **** 
 164:Generated_Source\PSoC6\pdl\drivers/peripheral/gpio/cy_gpio.h **** #include <stddef.h>
 165:Generated_Source\PSoC6\pdl\drivers/peripheral/gpio/cy_gpio.h **** #include "cy_device.h"
 166:Generated_Source\PSoC6\pdl\drivers/peripheral/gpio/cy_gpio.h **** #include "cy_device_headers.h"
 167:Generated_Source\PSoC6\pdl\drivers/peripheral/gpio/cy_gpio.h **** #include "cy_syslib.h"
ARM GAS  C:\Users\jlabe\AppData\Local\Temp\ccQBWUqN.s 			page 10


 168:Generated_Source\PSoC6\pdl\drivers/peripheral/gpio/cy_gpio.h **** 
 169:Generated_Source\PSoC6\pdl\drivers/peripheral/gpio/cy_gpio.h **** #if defined(__cplusplus)
 170:Generated_Source\PSoC6\pdl\drivers/peripheral/gpio/cy_gpio.h **** extern "C" {
 171:Generated_Source\PSoC6\pdl\drivers/peripheral/gpio/cy_gpio.h **** #endif
 172:Generated_Source\PSoC6\pdl\drivers/peripheral/gpio/cy_gpio.h **** 
 173:Generated_Source\PSoC6\pdl\drivers/peripheral/gpio/cy_gpio.h **** /** \addtogroup group_gpio_macros
 174:Generated_Source\PSoC6\pdl\drivers/peripheral/gpio/cy_gpio.h **** * \{
 175:Generated_Source\PSoC6\pdl\drivers/peripheral/gpio/cy_gpio.h **** */
 176:Generated_Source\PSoC6\pdl\drivers/peripheral/gpio/cy_gpio.h **** 
 177:Generated_Source\PSoC6\pdl\drivers/peripheral/gpio/cy_gpio.h **** /** Driver major version */
 178:Generated_Source\PSoC6\pdl\drivers/peripheral/gpio/cy_gpio.h **** #define CY_GPIO_DRV_VERSION_MAJOR       1
 179:Generated_Source\PSoC6\pdl\drivers/peripheral/gpio/cy_gpio.h **** 
 180:Generated_Source\PSoC6\pdl\drivers/peripheral/gpio/cy_gpio.h **** /** Driver minor version */
 181:Generated_Source\PSoC6\pdl\drivers/peripheral/gpio/cy_gpio.h **** #define CY_GPIO_DRV_VERSION_MINOR       20
 182:Generated_Source\PSoC6\pdl\drivers/peripheral/gpio/cy_gpio.h **** 
 183:Generated_Source\PSoC6\pdl\drivers/peripheral/gpio/cy_gpio.h **** /** GPIO driver ID */
 184:Generated_Source\PSoC6\pdl\drivers/peripheral/gpio/cy_gpio.h **** #define CY_GPIO_ID CY_PDL_DRV_ID(0x16U)
 185:Generated_Source\PSoC6\pdl\drivers/peripheral/gpio/cy_gpio.h **** 
 186:Generated_Source\PSoC6\pdl\drivers/peripheral/gpio/cy_gpio.h **** /** \} group_gpio_macros */
 187:Generated_Source\PSoC6\pdl\drivers/peripheral/gpio/cy_gpio.h **** 
 188:Generated_Source\PSoC6\pdl\drivers/peripheral/gpio/cy_gpio.h **** 
 189:Generated_Source\PSoC6\pdl\drivers/peripheral/gpio/cy_gpio.h **** /***************************************
 190:Generated_Source\PSoC6\pdl\drivers/peripheral/gpio/cy_gpio.h **** *       Enumerations
 191:Generated_Source\PSoC6\pdl\drivers/peripheral/gpio/cy_gpio.h **** ***************************************/
 192:Generated_Source\PSoC6\pdl\drivers/peripheral/gpio/cy_gpio.h **** /**
 193:Generated_Source\PSoC6\pdl\drivers/peripheral/gpio/cy_gpio.h **** * \addtogroup group_gpio_enums
 194:Generated_Source\PSoC6\pdl\drivers/peripheral/gpio/cy_gpio.h **** * \{
 195:Generated_Source\PSoC6\pdl\drivers/peripheral/gpio/cy_gpio.h **** */
 196:Generated_Source\PSoC6\pdl\drivers/peripheral/gpio/cy_gpio.h **** 
 197:Generated_Source\PSoC6\pdl\drivers/peripheral/gpio/cy_gpio.h **** /** GPIO Driver error codes */
 198:Generated_Source\PSoC6\pdl\drivers/peripheral/gpio/cy_gpio.h **** typedef enum 
 199:Generated_Source\PSoC6\pdl\drivers/peripheral/gpio/cy_gpio.h **** {
 200:Generated_Source\PSoC6\pdl\drivers/peripheral/gpio/cy_gpio.h ****     CY_GPIO_SUCCESS   = 0x00U,                                    /**< Returned successful */
 201:Generated_Source\PSoC6\pdl\drivers/peripheral/gpio/cy_gpio.h ****     CY_GPIO_BAD_PARAM = CY_GPIO_ID | CY_PDL_STATUS_ERROR | 0x01U, /**< Bad parameter was passed */
 202:Generated_Source\PSoC6\pdl\drivers/peripheral/gpio/cy_gpio.h **** } cy_en_gpio_status_t;
 203:Generated_Source\PSoC6\pdl\drivers/peripheral/gpio/cy_gpio.h **** 
 204:Generated_Source\PSoC6\pdl\drivers/peripheral/gpio/cy_gpio.h **** /** AMux switch open/close config */
 205:Generated_Source\PSoC6\pdl\drivers/peripheral/gpio/cy_gpio.h **** typedef enum
 206:Generated_Source\PSoC6\pdl\drivers/peripheral/gpio/cy_gpio.h **** {
 207:Generated_Source\PSoC6\pdl\drivers/peripheral/gpio/cy_gpio.h ****     CY_GPIO_AMUX_OPENALL,   /**< Open ground switch. Open right switch. Open left switch */
 208:Generated_Source\PSoC6\pdl\drivers/peripheral/gpio/cy_gpio.h ****     CY_GPIO_AMUX_L,         /**< Open ground switch. Open right switch. Close left switch */
 209:Generated_Source\PSoC6\pdl\drivers/peripheral/gpio/cy_gpio.h ****     CY_GPIO_AMUX_R,         /**< Open ground switch. Close right switch. Open left switch */
 210:Generated_Source\PSoC6\pdl\drivers/peripheral/gpio/cy_gpio.h ****     CY_GPIO_AMUX_LR,        /**< Open ground switch. Close right switch. Close left switch */
 211:Generated_Source\PSoC6\pdl\drivers/peripheral/gpio/cy_gpio.h ****     CY_GPIO_AMUX_G,         /**< Close ground switch. Open right switch. Open left switch */
 212:Generated_Source\PSoC6\pdl\drivers/peripheral/gpio/cy_gpio.h ****     CY_GPIO_AMUX_GL,        /**< Close ground switch. Open right switch. Close left switch */
 213:Generated_Source\PSoC6\pdl\drivers/peripheral/gpio/cy_gpio.h ****     CY_GPIO_AMUX_GR,        /**< Close ground switch. Close right switch. Open left switch */
 214:Generated_Source\PSoC6\pdl\drivers/peripheral/gpio/cy_gpio.h ****     CY_GPIO_AMUX_GLR,       /**< Close ground switch. Close right switch. Close left switch */
 215:Generated_Source\PSoC6\pdl\drivers/peripheral/gpio/cy_gpio.h **** }cy_en_gpio_amuxconnect_t;
 216:Generated_Source\PSoC6\pdl\drivers/peripheral/gpio/cy_gpio.h **** 
 217:Generated_Source\PSoC6\pdl\drivers/peripheral/gpio/cy_gpio.h **** /**
 218:Generated_Source\PSoC6\pdl\drivers/peripheral/gpio/cy_gpio.h **** * AMux Bus selection
 219:Generated_Source\PSoC6\pdl\drivers/peripheral/gpio/cy_gpio.h **** */
 220:Generated_Source\PSoC6\pdl\drivers/peripheral/gpio/cy_gpio.h **** typedef enum
 221:Generated_Source\PSoC6\pdl\drivers/peripheral/gpio/cy_gpio.h **** {
 222:Generated_Source\PSoC6\pdl\drivers/peripheral/gpio/cy_gpio.h ****     CY_GPIO_AMUXBUSA,       /**< AMuxBus A */
 223:Generated_Source\PSoC6\pdl\drivers/peripheral/gpio/cy_gpio.h ****     CY_GPIO_AMUXBUSB        /**< AMuxBus B */
 224:Generated_Source\PSoC6\pdl\drivers/peripheral/gpio/cy_gpio.h **** }cy_en_gpio_amuxselect_t;
ARM GAS  C:\Users\jlabe\AppData\Local\Temp\ccQBWUqN.s 			page 11


 225:Generated_Source\PSoC6\pdl\drivers/peripheral/gpio/cy_gpio.h **** 
 226:Generated_Source\PSoC6\pdl\drivers/peripheral/gpio/cy_gpio.h **** /** \} group_gpio_enums */
 227:Generated_Source\PSoC6\pdl\drivers/peripheral/gpio/cy_gpio.h **** 
 228:Generated_Source\PSoC6\pdl\drivers/peripheral/gpio/cy_gpio.h **** 
 229:Generated_Source\PSoC6\pdl\drivers/peripheral/gpio/cy_gpio.h **** /***************************************
 230:Generated_Source\PSoC6\pdl\drivers/peripheral/gpio/cy_gpio.h **** *       Configuration Structures
 231:Generated_Source\PSoC6\pdl\drivers/peripheral/gpio/cy_gpio.h **** ***************************************/
 232:Generated_Source\PSoC6\pdl\drivers/peripheral/gpio/cy_gpio.h **** 
 233:Generated_Source\PSoC6\pdl\drivers/peripheral/gpio/cy_gpio.h **** /**
 234:Generated_Source\PSoC6\pdl\drivers/peripheral/gpio/cy_gpio.h **** * \addtogroup group_gpio_data_structures
 235:Generated_Source\PSoC6\pdl\drivers/peripheral/gpio/cy_gpio.h **** * \{
 236:Generated_Source\PSoC6\pdl\drivers/peripheral/gpio/cy_gpio.h **** */
 237:Generated_Source\PSoC6\pdl\drivers/peripheral/gpio/cy_gpio.h **** 
 238:Generated_Source\PSoC6\pdl\drivers/peripheral/gpio/cy_gpio.h **** /** This structure is used to initialize a port of GPIO pins */
 239:Generated_Source\PSoC6\pdl\drivers/peripheral/gpio/cy_gpio.h **** typedef struct 
 240:Generated_Source\PSoC6\pdl\drivers/peripheral/gpio/cy_gpio.h **** {
 241:Generated_Source\PSoC6\pdl\drivers/peripheral/gpio/cy_gpio.h ****     uint32_t out;           /**< Initial output data for the IO pins in the port */
 242:Generated_Source\PSoC6\pdl\drivers/peripheral/gpio/cy_gpio.h ****     uint32_t intrMask;      /**< Interrupt enable mask for the port interrupt */
 243:Generated_Source\PSoC6\pdl\drivers/peripheral/gpio/cy_gpio.h ****     uint32_t intrCfg;       /**< Port pin interrupt edge detection configuration */
 244:Generated_Source\PSoC6\pdl\drivers/peripheral/gpio/cy_gpio.h ****     uint32_t cfg;           /**< Port pin drive modes and input buffer enable configuration */
 245:Generated_Source\PSoC6\pdl\drivers/peripheral/gpio/cy_gpio.h ****     uint32_t cfgIn;         /**< Port pin input buffer configuration */
 246:Generated_Source\PSoC6\pdl\drivers/peripheral/gpio/cy_gpio.h ****     uint32_t cfgOut;        /**< Port pin output buffer configuration */
 247:Generated_Source\PSoC6\pdl\drivers/peripheral/gpio/cy_gpio.h ****     uint32_t cfgSIO;        /**< Port SIO pins configuration */
 248:Generated_Source\PSoC6\pdl\drivers/peripheral/gpio/cy_gpio.h ****     uint32_t sel0Active;    /**< HSIOM selection for port pins 0,1,2,3 */
 249:Generated_Source\PSoC6\pdl\drivers/peripheral/gpio/cy_gpio.h ****     uint32_t sel1Active;    /**< HSIOM selection for port pins 4,5,6,7 */
 250:Generated_Source\PSoC6\pdl\drivers/peripheral/gpio/cy_gpio.h **** } cy_stc_gpio_prt_config_t;
 251:Generated_Source\PSoC6\pdl\drivers/peripheral/gpio/cy_gpio.h **** 
 252:Generated_Source\PSoC6\pdl\drivers/peripheral/gpio/cy_gpio.h **** /** This structure is used to initialize a single GPIO pin */
 253:Generated_Source\PSoC6\pdl\drivers/peripheral/gpio/cy_gpio.h **** typedef struct
 254:Generated_Source\PSoC6\pdl\drivers/peripheral/gpio/cy_gpio.h **** {
 255:Generated_Source\PSoC6\pdl\drivers/peripheral/gpio/cy_gpio.h ****     uint32_t outVal;         /**< Pin output state */
 256:Generated_Source\PSoC6\pdl\drivers/peripheral/gpio/cy_gpio.h ****     uint32_t driveMode;      /**< Drive mode */
 257:Generated_Source\PSoC6\pdl\drivers/peripheral/gpio/cy_gpio.h ****     en_hsiom_sel_t hsiom;    /**< HSIOM selection */
 258:Generated_Source\PSoC6\pdl\drivers/peripheral/gpio/cy_gpio.h ****     uint32_t intEdge;        /**< Interrupt Edge type */
 259:Generated_Source\PSoC6\pdl\drivers/peripheral/gpio/cy_gpio.h ****     uint32_t intMask;        /**< Interrupt enable mask */
 260:Generated_Source\PSoC6\pdl\drivers/peripheral/gpio/cy_gpio.h ****     uint32_t vtrip;          /**< Input buffer voltage trip type */
 261:Generated_Source\PSoC6\pdl\drivers/peripheral/gpio/cy_gpio.h ****     uint32_t slewRate;       /**< Output buffer slew rate */
 262:Generated_Source\PSoC6\pdl\drivers/peripheral/gpio/cy_gpio.h ****     uint32_t driveSel;       /**< Drive strength */
 263:Generated_Source\PSoC6\pdl\drivers/peripheral/gpio/cy_gpio.h ****     uint32_t vregEn;         /**< SIO pair output buffer mode */
 264:Generated_Source\PSoC6\pdl\drivers/peripheral/gpio/cy_gpio.h ****     uint32_t ibufMode;       /**< SIO pair input buffer mode */
 265:Generated_Source\PSoC6\pdl\drivers/peripheral/gpio/cy_gpio.h ****     uint32_t vtripSel;       /**< SIO pair input buffer trip point */
 266:Generated_Source\PSoC6\pdl\drivers/peripheral/gpio/cy_gpio.h ****     uint32_t vrefSel;        /**< SIO pair reference voltage for input buffer trip point */
 267:Generated_Source\PSoC6\pdl\drivers/peripheral/gpio/cy_gpio.h ****     uint32_t vohSel;         /**< SIO pair regulated voltage output level */
 268:Generated_Source\PSoC6\pdl\drivers/peripheral/gpio/cy_gpio.h **** } cy_stc_gpio_pin_config_t;
 269:Generated_Source\PSoC6\pdl\drivers/peripheral/gpio/cy_gpio.h **** 
 270:Generated_Source\PSoC6\pdl\drivers/peripheral/gpio/cy_gpio.h **** /** \} group_gpio_data_structures */
 271:Generated_Source\PSoC6\pdl\drivers/peripheral/gpio/cy_gpio.h **** 
 272:Generated_Source\PSoC6\pdl\drivers/peripheral/gpio/cy_gpio.h **** /***************************************
 273:Generated_Source\PSoC6\pdl\drivers/peripheral/gpio/cy_gpio.h **** *        Constants
 274:Generated_Source\PSoC6\pdl\drivers/peripheral/gpio/cy_gpio.h **** ***************************************/
 275:Generated_Source\PSoC6\pdl\drivers/peripheral/gpio/cy_gpio.h **** 
 276:Generated_Source\PSoC6\pdl\drivers/peripheral/gpio/cy_gpio.h **** /** \cond INTERNAL */
 277:Generated_Source\PSoC6\pdl\drivers/peripheral/gpio/cy_gpio.h **** 
 278:Generated_Source\PSoC6\pdl\drivers/peripheral/gpio/cy_gpio.h **** /* General Constants */
 279:Generated_Source\PSoC6\pdl\drivers/peripheral/gpio/cy_gpio.h **** #define CY_GPIO_PRT_HALF                       (4UL)      /**< Half-way point of a GPIO port */
 280:Generated_Source\PSoC6\pdl\drivers/peripheral/gpio/cy_gpio.h **** #define CY_GPIO_PRT_DEINIT                     (0UL)      /**< De-init value for port registers */
 281:Generated_Source\PSoC6\pdl\drivers/peripheral/gpio/cy_gpio.h **** 
ARM GAS  C:\Users\jlabe\AppData\Local\Temp\ccQBWUqN.s 			page 12


 282:Generated_Source\PSoC6\pdl\drivers/peripheral/gpio/cy_gpio.h **** /* GPIO Masks */
 283:Generated_Source\PSoC6\pdl\drivers/peripheral/gpio/cy_gpio.h **** #define CY_GPIO_HSIOM_MASK                     (0x1FUL)   /**< HSIOM selection mask */
 284:Generated_Source\PSoC6\pdl\drivers/peripheral/gpio/cy_gpio.h **** #define CY_GPIO_OUT_MASK                       (0x01UL)   /**< Single pin mask for OUT register */
 285:Generated_Source\PSoC6\pdl\drivers/peripheral/gpio/cy_gpio.h **** #define CY_GPIO_IN_MASK                        (0x01UL)   /**< Single pin mask for IN register */
 286:Generated_Source\PSoC6\pdl\drivers/peripheral/gpio/cy_gpio.h **** #define CY_GPIO_CFG_DM_MASK                    (0x0FUL)   /**< Single pin mask for drive mode in CF
 287:Generated_Source\PSoC6\pdl\drivers/peripheral/gpio/cy_gpio.h **** #define CY_GPIO_CFG_IN_VTRIP_SEL_MASK          (0x01UL)   /**< Single pin mask for VTRIP selection 
 288:Generated_Source\PSoC6\pdl\drivers/peripheral/gpio/cy_gpio.h **** #define CY_GPIO_CFG_OUT_SLOW_MASK              (0x01UL)   /**< Single pin mask for slew rate in CFG
 289:Generated_Source\PSoC6\pdl\drivers/peripheral/gpio/cy_gpio.h **** #define CY_GPIO_CFG_OUT_DRIVE_SEL_MASK         (0x03UL)   /**< Single pin mask for drive strength i
 290:Generated_Source\PSoC6\pdl\drivers/peripheral/gpio/cy_gpio.h **** #define CY_GPIO_INTR_STATUS_MASK               (0x01UL)   /**< Single pin mask for interrupt status
 291:Generated_Source\PSoC6\pdl\drivers/peripheral/gpio/cy_gpio.h **** #define CY_GPIO_INTR_EN_MASK                   (0x01UL)   /**< Single pin mask for interrupt status
 292:Generated_Source\PSoC6\pdl\drivers/peripheral/gpio/cy_gpio.h **** #define CY_GPIO_INTR_MASKED_MASK               (0x01UL)   /**< Single pin mask for masked interrupt
 293:Generated_Source\PSoC6\pdl\drivers/peripheral/gpio/cy_gpio.h **** #define CY_GPIO_INTR_SET_MASK                  (0x01UL)   /**< Single pin mask for setting the inte
 294:Generated_Source\PSoC6\pdl\drivers/peripheral/gpio/cy_gpio.h **** #define CY_GPIO_INTR_EDGE_MASK                 (0x03UL)   /**< Single pin mask for interrupt edge t
 295:Generated_Source\PSoC6\pdl\drivers/peripheral/gpio/cy_gpio.h **** #define CY_GPIO_INTR_FLT_EDGE_MASK             (0x07UL)   /**< Single pin mask for setting filtered
 296:Generated_Source\PSoC6\pdl\drivers/peripheral/gpio/cy_gpio.h **** 
 297:Generated_Source\PSoC6\pdl\drivers/peripheral/gpio/cy_gpio.h **** /* SIO Masks */
 298:Generated_Source\PSoC6\pdl\drivers/peripheral/gpio/cy_gpio.h **** #define CY_GPIO_VREG_EN_MASK                   (0x01UL)   /**< Single SIO pin mask for voltage regu
 299:Generated_Source\PSoC6\pdl\drivers/peripheral/gpio/cy_gpio.h **** #define CY_GPIO_IBUF_MASK                      (0x01UL)   /**< Single SIO pin mask for input buffer
 300:Generated_Source\PSoC6\pdl\drivers/peripheral/gpio/cy_gpio.h **** #define CY_GPIO_IBUF_SHIFT                     (0x01UL)   /**< Single SIO pin shift for input buffe
 301:Generated_Source\PSoC6\pdl\drivers/peripheral/gpio/cy_gpio.h **** #define CY_GPIO_VTRIP_SEL_MASK                 (0x01UL)   /**< Single SIO pin mask for the input bu
 302:Generated_Source\PSoC6\pdl\drivers/peripheral/gpio/cy_gpio.h **** #define CY_GPIO_VTRIP_SEL_SHIFT                (0x02UL)   /**< Single SIO pin shift for the input b
 303:Generated_Source\PSoC6\pdl\drivers/peripheral/gpio/cy_gpio.h **** #define CY_GPIO_VREF_SEL_MASK                  (0x03UL)   /**< Single SIO pin mask for voltage refe
 304:Generated_Source\PSoC6\pdl\drivers/peripheral/gpio/cy_gpio.h **** #define CY_GPIO_VREF_SEL_SHIFT                 (0x03UL)   /**< Single SIO pin shift for voltage ref
 305:Generated_Source\PSoC6\pdl\drivers/peripheral/gpio/cy_gpio.h **** #define CY_GPIO_VOH_SEL_MASK                   (0x07UL)   /**< Single SIO pin mask for VOH */
 306:Generated_Source\PSoC6\pdl\drivers/peripheral/gpio/cy_gpio.h **** #define CY_GPIO_VOH_SEL_SHIFT                  (0x05UL)   /**< Single SIO pin shift for VOH */
 307:Generated_Source\PSoC6\pdl\drivers/peripheral/gpio/cy_gpio.h **** 
 308:Generated_Source\PSoC6\pdl\drivers/peripheral/gpio/cy_gpio.h **** /* Special mask for SIO pin pair setting */
 309:Generated_Source\PSoC6\pdl\drivers/peripheral/gpio/cy_gpio.h **** #define CY_GPIO_SIO_ODD_PIN_MASK               (0x00FEUL) /**< SIO pin pair selection mask */
 310:Generated_Source\PSoC6\pdl\drivers/peripheral/gpio/cy_gpio.h **** #define CY_GPIO_SIO_PIN_MASK                   (0x00FFUL) /**< SIO pin pair mask */
 311:Generated_Source\PSoC6\pdl\drivers/peripheral/gpio/cy_gpio.h **** 
 312:Generated_Source\PSoC6\pdl\drivers/peripheral/gpio/cy_gpio.h **** /* Offsets */
 313:Generated_Source\PSoC6\pdl\drivers/peripheral/gpio/cy_gpio.h **** #define CY_GPIO_HSIOM_OFFSET                   (3UL)      /**< Offset for HSIOM */
 314:Generated_Source\PSoC6\pdl\drivers/peripheral/gpio/cy_gpio.h **** #define CY_GPIO_DRIVE_MODE_OFFSET              (2UL)      /**< Offset for Drive mode */
 315:Generated_Source\PSoC6\pdl\drivers/peripheral/gpio/cy_gpio.h **** #define CY_GPIO_INBUF_OFFSET                   (3UL)      /**< Offset for input buffer */
 316:Generated_Source\PSoC6\pdl\drivers/peripheral/gpio/cy_gpio.h **** #define CY_GPIO_CFG_OUT_DRIVE_OFFSET           (16UL)     /**< Offset for drive strength */
 317:Generated_Source\PSoC6\pdl\drivers/peripheral/gpio/cy_gpio.h **** #define CY_GPIO_INTR_CFG_OFFSET                (1UL)      /**< Offset for interrupt config */
 318:Generated_Source\PSoC6\pdl\drivers/peripheral/gpio/cy_gpio.h **** #define CY_GPIO_INTR_FILT_OFFSET               (18UL)     /**< Offset for filtered interrupt config
 319:Generated_Source\PSoC6\pdl\drivers/peripheral/gpio/cy_gpio.h **** #define CY_GPIO_CFG_SIO_OFFSET                 (2UL)      /**< Offset for SIO config */
 320:Generated_Source\PSoC6\pdl\drivers/peripheral/gpio/cy_gpio.h **** 
 321:Generated_Source\PSoC6\pdl\drivers/peripheral/gpio/cy_gpio.h **** /* Parameter validation constants */
 322:Generated_Source\PSoC6\pdl\drivers/peripheral/gpio/cy_gpio.h **** #define CY_GPIO_PINS_MAX                       (8UL)      /**< Number of pins in the port */
 323:Generated_Source\PSoC6\pdl\drivers/peripheral/gpio/cy_gpio.h **** #define CY_GPIO_PRT_PINS_MASK                  (0x0000000FFUL)
 324:Generated_Source\PSoC6\pdl\drivers/peripheral/gpio/cy_gpio.h **** #define CY_GPIO_PRT_INTR_CFG_EDGE_SEL_MASK     (GPIO_PRT_INTR_CFG_EDGE0_SEL_Msk | \
 325:Generated_Source\PSoC6\pdl\drivers/peripheral/gpio/cy_gpio.h ****                                                 GPIO_PRT_INTR_CFG_EDGE1_SEL_Msk | \
 326:Generated_Source\PSoC6\pdl\drivers/peripheral/gpio/cy_gpio.h ****                                                 GPIO_PRT_INTR_CFG_EDGE2_SEL_Msk | \
 327:Generated_Source\PSoC6\pdl\drivers/peripheral/gpio/cy_gpio.h ****                                                 GPIO_PRT_INTR_CFG_EDGE3_SEL_Msk | \
 328:Generated_Source\PSoC6\pdl\drivers/peripheral/gpio/cy_gpio.h ****                                                 GPIO_PRT_INTR_CFG_EDGE4_SEL_Msk | \
 329:Generated_Source\PSoC6\pdl\drivers/peripheral/gpio/cy_gpio.h ****                                                 GPIO_PRT_INTR_CFG_EDGE5_SEL_Msk | \
 330:Generated_Source\PSoC6\pdl\drivers/peripheral/gpio/cy_gpio.h ****                                                 GPIO_PRT_INTR_CFG_EDGE6_SEL_Msk | \
 331:Generated_Source\PSoC6\pdl\drivers/peripheral/gpio/cy_gpio.h ****                                                 GPIO_PRT_INTR_CFG_EDGE7_SEL_Msk)
 332:Generated_Source\PSoC6\pdl\drivers/peripheral/gpio/cy_gpio.h **** #define CY_GPIO_PRT_INTR_CFG_RANGE_MASK        (CY_GPIO_PRT_INTR_CFG_EDGE_SEL_MASK | \
 333:Generated_Source\PSoC6\pdl\drivers/peripheral/gpio/cy_gpio.h ****                                                 GPIO_PRT_INTR_CFG_FLT_EDGE_SEL_Msk | \
 334:Generated_Source\PSoC6\pdl\drivers/peripheral/gpio/cy_gpio.h ****                                                 GPIO_PRT_INTR_CFG_FLT_SEL_Msk)
 335:Generated_Source\PSoC6\pdl\drivers/peripheral/gpio/cy_gpio.h **** #define CY_GPIO_PRT_INT_MASK_MASK              (0x0000001FFUL)
 336:Generated_Source\PSoC6\pdl\drivers/peripheral/gpio/cy_gpio.h **** #define CY_GPIO_PRT_SEL_ACTIVE_MASK            (0x1FFFFFFFUL)
 337:Generated_Source\PSoC6\pdl\drivers/peripheral/gpio/cy_gpio.h **** 
 338:Generated_Source\PSoC6\pdl\drivers/peripheral/gpio/cy_gpio.h **** #define GPIO_MAX_SPLIT_CELL_SEGMENTS           (9U)
ARM GAS  C:\Users\jlabe\AppData\Local\Temp\ccQBWUqN.s 			page 13


 339:Generated_Source\PSoC6\pdl\drivers/peripheral/gpio/cy_gpio.h **** 
 340:Generated_Source\PSoC6\pdl\drivers/peripheral/gpio/cy_gpio.h **** /* Parameter validation macros */
 341:Generated_Source\PSoC6\pdl\drivers/peripheral/gpio/cy_gpio.h **** #define CY_GPIO_IS_PIN_VALID(pinNum)           (CY_GPIO_PINS_MAX > (pinNum))
 342:Generated_Source\PSoC6\pdl\drivers/peripheral/gpio/cy_gpio.h **** #define CY_GPIO_IS_FILTER_PIN_VALID(pinNum)    (CY_GPIO_PINS_MAX >= (pinNum))
 343:Generated_Source\PSoC6\pdl\drivers/peripheral/gpio/cy_gpio.h **** #define CY_GPIO_IS_VALUE_VALID(outVal)         (1UL >= (outVal))
 344:Generated_Source\PSoC6\pdl\drivers/peripheral/gpio/cy_gpio.h **** #define CY_GPIO_IS_DM_VALID(driveMode)         (0U == ((driveMode) & (uint32_t)~CY_GPIO_CFG_DM_MASK
 345:Generated_Source\PSoC6\pdl\drivers/peripheral/gpio/cy_gpio.h **** 
 346:Generated_Source\PSoC6\pdl\drivers/peripheral/gpio/cy_gpio.h **** #define CY_GPIO_IS_HSIOM_VALID(hsiom)          (0U == ((hsiom) & (uint32_t)~CY_GPIO_HSIOM_MASK))
 347:Generated_Source\PSoC6\pdl\drivers/peripheral/gpio/cy_gpio.h **** 
 348:Generated_Source\PSoC6\pdl\drivers/peripheral/gpio/cy_gpio.h **** #define CY_GPIO_IS_INT_EDGE_VALID(intEdge)     ((CY_GPIO_INTR_DISABLE  == (intEdge)) || \
 349:Generated_Source\PSoC6\pdl\drivers/peripheral/gpio/cy_gpio.h ****                                                 (CY_GPIO_INTR_RISING   == (intEdge)) || \
 350:Generated_Source\PSoC6\pdl\drivers/peripheral/gpio/cy_gpio.h ****                                                 (CY_GPIO_INTR_FALLING  == (intEdge)) || \
 351:Generated_Source\PSoC6\pdl\drivers/peripheral/gpio/cy_gpio.h ****                                                 (CY_GPIO_INTR_BOTH     == (intEdge)))
 352:Generated_Source\PSoC6\pdl\drivers/peripheral/gpio/cy_gpio.h **** 
 353:Generated_Source\PSoC6\pdl\drivers/peripheral/gpio/cy_gpio.h **** #define CY_GPIO_IS_DRIVE_SEL_VALID(driveSel)   ((CY_GPIO_DRIVE_FULL    == (driveSel)) || \
 354:Generated_Source\PSoC6\pdl\drivers/peripheral/gpio/cy_gpio.h ****                                                 (CY_GPIO_DRIVE_1_2     == (driveSel)) || \
 355:Generated_Source\PSoC6\pdl\drivers/peripheral/gpio/cy_gpio.h ****                                                 (CY_GPIO_DRIVE_1_4     == (driveSel)) || \
 356:Generated_Source\PSoC6\pdl\drivers/peripheral/gpio/cy_gpio.h ****                                                 (CY_GPIO_DRIVE_1_8     == (driveSel)))
 357:Generated_Source\PSoC6\pdl\drivers/peripheral/gpio/cy_gpio.h **** 
 358:Generated_Source\PSoC6\pdl\drivers/peripheral/gpio/cy_gpio.h **** #define CY_GPIO_IS_VREF_SEL_VALID(vrefSel)     ((CY_SIO_VREF_PINREF    == (vrefSel)) || \
 359:Generated_Source\PSoC6\pdl\drivers/peripheral/gpio/cy_gpio.h ****                                                 (CY_SIO_VREF_1_2V      == (vrefSel)) || \
 360:Generated_Source\PSoC6\pdl\drivers/peripheral/gpio/cy_gpio.h ****                                                 (CY_SIO_VREF_AMUX_A    == (vrefSel)) || \
 361:Generated_Source\PSoC6\pdl\drivers/peripheral/gpio/cy_gpio.h ****                                                 (CY_SIO_VREF_AMUX_B    == (vrefSel)))
 362:Generated_Source\PSoC6\pdl\drivers/peripheral/gpio/cy_gpio.h **** 
 363:Generated_Source\PSoC6\pdl\drivers/peripheral/gpio/cy_gpio.h **** #define CY_GPIO_IS_VOH_SEL_VALID(vrefSel)      ((CY_SIO_VOH_1_00       == (vrefSel)) || \
 364:Generated_Source\PSoC6\pdl\drivers/peripheral/gpio/cy_gpio.h ****                                                 (CY_SIO_VOH_1_25       == (vrefSel)) || \
 365:Generated_Source\PSoC6\pdl\drivers/peripheral/gpio/cy_gpio.h ****                                                 (CY_SIO_VOH_1_49       == (vrefSel)) || \
 366:Generated_Source\PSoC6\pdl\drivers/peripheral/gpio/cy_gpio.h ****                                                 (CY_SIO_VOH_1_67       == (vrefSel)) || \
 367:Generated_Source\PSoC6\pdl\drivers/peripheral/gpio/cy_gpio.h ****                                                 (CY_SIO_VOH_2_08       == (vrefSel)) || \
 368:Generated_Source\PSoC6\pdl\drivers/peripheral/gpio/cy_gpio.h ****                                                 (CY_SIO_VOH_2_50       == (vrefSel)) || \
 369:Generated_Source\PSoC6\pdl\drivers/peripheral/gpio/cy_gpio.h ****                                                 (CY_SIO_VOH_2_78       == (vrefSel)) || \
 370:Generated_Source\PSoC6\pdl\drivers/peripheral/gpio/cy_gpio.h ****                                                 (CY_SIO_VOH_4_16       == (vrefSel)))
 371:Generated_Source\PSoC6\pdl\drivers/peripheral/gpio/cy_gpio.h ****                    
 372:Generated_Source\PSoC6\pdl\drivers/peripheral/gpio/cy_gpio.h **** #define CY_GPIO_IS_PIN_BIT_VALID(pinBit)       (0U == ((pinBit) & (uint32_t)~CY_GPIO_PRT_PINS_MASK)
 373:Generated_Source\PSoC6\pdl\drivers/peripheral/gpio/cy_gpio.h **** #define CY_GPIO_IS_INTR_CFG_VALID(intrCfg)     (0U == ((intrCfg) & (uint32_t)~CY_GPIO_PRT_INTR_CFG_
 374:Generated_Source\PSoC6\pdl\drivers/peripheral/gpio/cy_gpio.h **** #define CY_GPIO_IS_INTR_MASK_VALID(intrMask)   (0U == ((intrMask) & (uint32_t)~CY_GPIO_PRT_INT_MASK
 375:Generated_Source\PSoC6\pdl\drivers/peripheral/gpio/cy_gpio.h **** #define CY_GPIO_IS_SEL_ACT_VALID(selActive)    (0U == ((selActive) & (uint32_t)~CY_GPIO_PRT_SEL_ACT
 376:Generated_Source\PSoC6\pdl\drivers/peripheral/gpio/cy_gpio.h **** 
 377:Generated_Source\PSoC6\pdl\drivers/peripheral/gpio/cy_gpio.h **** #define CY_GPIO_IS_AMUX_SPLIT_VALID(switchCtrl)       (((uint32_t) (switchCtrl)) < GPIO_MAX_SPLIT_C
 378:Generated_Source\PSoC6\pdl\drivers/peripheral/gpio/cy_gpio.h **** 
 379:Generated_Source\PSoC6\pdl\drivers/peripheral/gpio/cy_gpio.h **** #define CY_GPIO_IS_AMUX_CONNECT_VALID(amuxConnect)    ((CY_GPIO_AMUX_OPENALL == (amuxConnect)) || \
 380:Generated_Source\PSoC6\pdl\drivers/peripheral/gpio/cy_gpio.h ****                                                        (CY_GPIO_AMUX_L       == (amuxConnect)) || \
 381:Generated_Source\PSoC6\pdl\drivers/peripheral/gpio/cy_gpio.h ****                                                        (CY_GPIO_AMUX_R       == (amuxConnect)) || \
 382:Generated_Source\PSoC6\pdl\drivers/peripheral/gpio/cy_gpio.h ****                                                        (CY_GPIO_AMUX_LR      == (amuxConnect)) || \
 383:Generated_Source\PSoC6\pdl\drivers/peripheral/gpio/cy_gpio.h ****                                                        (CY_GPIO_AMUX_G       == (amuxConnect)) || \
 384:Generated_Source\PSoC6\pdl\drivers/peripheral/gpio/cy_gpio.h ****                                                        (CY_GPIO_AMUX_GL      == (amuxConnect)) || \
 385:Generated_Source\PSoC6\pdl\drivers/peripheral/gpio/cy_gpio.h ****                                                        (CY_GPIO_AMUX_GR      == (amuxConnect)) || \
 386:Generated_Source\PSoC6\pdl\drivers/peripheral/gpio/cy_gpio.h ****                                                        (CY_GPIO_AMUX_GLR     == (amuxConnect)))
 387:Generated_Source\PSoC6\pdl\drivers/peripheral/gpio/cy_gpio.h **** 
 388:Generated_Source\PSoC6\pdl\drivers/peripheral/gpio/cy_gpio.h **** #define CY_GPIO_IS_AMUX_SELECT_VALID(amuxBus)       ((CY_GPIO_AMUXBUSA       == (amuxBus)) || \
 389:Generated_Source\PSoC6\pdl\drivers/peripheral/gpio/cy_gpio.h ****                                                      (CY_GPIO_AMUXBUSB       == (amuxBus)))
 390:Generated_Source\PSoC6\pdl\drivers/peripheral/gpio/cy_gpio.h **** /** \endcond */
 391:Generated_Source\PSoC6\pdl\drivers/peripheral/gpio/cy_gpio.h **** 
 392:Generated_Source\PSoC6\pdl\drivers/peripheral/gpio/cy_gpio.h **** 
 393:Generated_Source\PSoC6\pdl\drivers/peripheral/gpio/cy_gpio.h **** /***************************************
 394:Generated_Source\PSoC6\pdl\drivers/peripheral/gpio/cy_gpio.h **** *        Function Constants
 395:Generated_Source\PSoC6\pdl\drivers/peripheral/gpio/cy_gpio.h **** ***************************************/
ARM GAS  C:\Users\jlabe\AppData\Local\Temp\ccQBWUqN.s 			page 14


 396:Generated_Source\PSoC6\pdl\drivers/peripheral/gpio/cy_gpio.h **** 
 397:Generated_Source\PSoC6\pdl\drivers/peripheral/gpio/cy_gpio.h **** /**
 398:Generated_Source\PSoC6\pdl\drivers/peripheral/gpio/cy_gpio.h **** * \addtogroup group_gpio_macros
 399:Generated_Source\PSoC6\pdl\drivers/peripheral/gpio/cy_gpio.h **** * \{
 400:Generated_Source\PSoC6\pdl\drivers/peripheral/gpio/cy_gpio.h **** */
 401:Generated_Source\PSoC6\pdl\drivers/peripheral/gpio/cy_gpio.h **** 
 402:Generated_Source\PSoC6\pdl\drivers/peripheral/gpio/cy_gpio.h **** /**
 403:Generated_Source\PSoC6\pdl\drivers/peripheral/gpio/cy_gpio.h **** * \defgroup group_gpio_driveModes Pin drive mode
 404:Generated_Source\PSoC6\pdl\drivers/peripheral/gpio/cy_gpio.h **** * \{
 405:Generated_Source\PSoC6\pdl\drivers/peripheral/gpio/cy_gpio.h **** * Constants to be used for setting the drive mode of the pin.
 406:Generated_Source\PSoC6\pdl\drivers/peripheral/gpio/cy_gpio.h **** */
 407:Generated_Source\PSoC6\pdl\drivers/peripheral/gpio/cy_gpio.h **** #define CY_GPIO_DM_ANALOG                      (0x00UL) /**< Analog High-Z. Input buffer off */
 408:Generated_Source\PSoC6\pdl\drivers/peripheral/gpio/cy_gpio.h **** #define CY_GPIO_DM_PULLUP_IN_OFF               (0x02UL) /**< Resistive Pull-Up. Input buffer off */
 409:Generated_Source\PSoC6\pdl\drivers/peripheral/gpio/cy_gpio.h **** #define CY_GPIO_DM_PULLDOWN_IN_OFF             (0x03UL) /**< Resistive Pull-Down. Input buffer off 
 410:Generated_Source\PSoC6\pdl\drivers/peripheral/gpio/cy_gpio.h **** #define CY_GPIO_DM_OD_DRIVESLOW_IN_OFF         (0x04UL) /**< Open Drain, Drives Low. Input buffer o
 411:Generated_Source\PSoC6\pdl\drivers/peripheral/gpio/cy_gpio.h **** #define CY_GPIO_DM_OD_DRIVESHIGH_IN_OFF        (0x05UL) /**< Open Drain, Drives High. Input buffer 
 412:Generated_Source\PSoC6\pdl\drivers/peripheral/gpio/cy_gpio.h **** #define CY_GPIO_DM_STRONG_IN_OFF               (0x06UL) /**< Strong Drive. Input buffer off */
 413:Generated_Source\PSoC6\pdl\drivers/peripheral/gpio/cy_gpio.h **** #define CY_GPIO_DM_PULLUP_DOWN_IN_OFF          (0x07UL) /**< Resistive Pull-Up/Down. Input buffer o
 414:Generated_Source\PSoC6\pdl\drivers/peripheral/gpio/cy_gpio.h **** #define CY_GPIO_DM_HIGHZ                       (0x08UL) /**< Digital High-Z. Input buffer on */
 415:Generated_Source\PSoC6\pdl\drivers/peripheral/gpio/cy_gpio.h **** #define CY_GPIO_DM_PULLUP                      (0x0AUL) /**< Resistive Pull-Up. Input buffer on */
 416:Generated_Source\PSoC6\pdl\drivers/peripheral/gpio/cy_gpio.h **** #define CY_GPIO_DM_PULLDOWN                    (0x0BUL) /**< Resistive Pull-Down. Input buffer on *
 417:Generated_Source\PSoC6\pdl\drivers/peripheral/gpio/cy_gpio.h **** #define CY_GPIO_DM_OD_DRIVESLOW                (0x0CUL) /**< Open Drain, Drives Low. Input buffer o
 418:Generated_Source\PSoC6\pdl\drivers/peripheral/gpio/cy_gpio.h **** #define CY_GPIO_DM_OD_DRIVESHIGH               (0x0DUL) /**< Open Drain, Drives High. Input buffer 
 419:Generated_Source\PSoC6\pdl\drivers/peripheral/gpio/cy_gpio.h **** #define CY_GPIO_DM_STRONG                      (0x0EUL) /**< Strong Drive. Input buffer on */
 420:Generated_Source\PSoC6\pdl\drivers/peripheral/gpio/cy_gpio.h **** #define CY_GPIO_DM_PULLUP_DOWN                 (0x0FUL) /**< Resistive Pull-Up/Down. Input buffer o
 421:Generated_Source\PSoC6\pdl\drivers/peripheral/gpio/cy_gpio.h **** /** \} */
 422:Generated_Source\PSoC6\pdl\drivers/peripheral/gpio/cy_gpio.h **** 
 423:Generated_Source\PSoC6\pdl\drivers/peripheral/gpio/cy_gpio.h **** /**
 424:Generated_Source\PSoC6\pdl\drivers/peripheral/gpio/cy_gpio.h **** * \defgroup group_gpio_vtrip Voltage trip mode
 425:Generated_Source\PSoC6\pdl\drivers/peripheral/gpio/cy_gpio.h **** * \{
 426:Generated_Source\PSoC6\pdl\drivers/peripheral/gpio/cy_gpio.h **** * Constants to be used for setting the voltage trip type on the pin.
 427:Generated_Source\PSoC6\pdl\drivers/peripheral/gpio/cy_gpio.h **** */
 428:Generated_Source\PSoC6\pdl\drivers/peripheral/gpio/cy_gpio.h **** #define CY_GPIO_VTRIP_CMOS                     (0x00UL) /**< Input buffer compatible with CMOS and 
 429:Generated_Source\PSoC6\pdl\drivers/peripheral/gpio/cy_gpio.h **** #define CY_GPIO_VTRIP_TTL                      (0x01UL) /**< Input buffer compatible with TTL and M
 430:Generated_Source\PSoC6\pdl\drivers/peripheral/gpio/cy_gpio.h **** /** \} */
 431:Generated_Source\PSoC6\pdl\drivers/peripheral/gpio/cy_gpio.h **** 
 432:Generated_Source\PSoC6\pdl\drivers/peripheral/gpio/cy_gpio.h **** /**
 433:Generated_Source\PSoC6\pdl\drivers/peripheral/gpio/cy_gpio.h **** * \defgroup group_gpio_slewRate Slew Rate Mode
 434:Generated_Source\PSoC6\pdl\drivers/peripheral/gpio/cy_gpio.h **** * \{
 435:Generated_Source\PSoC6\pdl\drivers/peripheral/gpio/cy_gpio.h **** * Constants to be used for setting the slew rate of the pin.
 436:Generated_Source\PSoC6\pdl\drivers/peripheral/gpio/cy_gpio.h **** */
 437:Generated_Source\PSoC6\pdl\drivers/peripheral/gpio/cy_gpio.h **** #define CY_GPIO_SLEW_FAST                      (0x00UL) /**< Fast slew rate */
 438:Generated_Source\PSoC6\pdl\drivers/peripheral/gpio/cy_gpio.h **** #define CY_GPIO_SLEW_SLOW                      (0x01UL) /**< Slow slew rate */
 439:Generated_Source\PSoC6\pdl\drivers/peripheral/gpio/cy_gpio.h **** /** \} */
 440:Generated_Source\PSoC6\pdl\drivers/peripheral/gpio/cy_gpio.h **** 
 441:Generated_Source\PSoC6\pdl\drivers/peripheral/gpio/cy_gpio.h **** /**
 442:Generated_Source\PSoC6\pdl\drivers/peripheral/gpio/cy_gpio.h **** * \defgroup group_gpio_driveStrength Pin drive strength
 443:Generated_Source\PSoC6\pdl\drivers/peripheral/gpio/cy_gpio.h **** * \{
 444:Generated_Source\PSoC6\pdl\drivers/peripheral/gpio/cy_gpio.h **** * Constants to be used for setting the drive strength of the pin.
 445:Generated_Source\PSoC6\pdl\drivers/peripheral/gpio/cy_gpio.h **** */
 446:Generated_Source\PSoC6\pdl\drivers/peripheral/gpio/cy_gpio.h **** #define CY_GPIO_DRIVE_FULL                     (0x00UL) /**< Full drive strength: Max drive current
 447:Generated_Source\PSoC6\pdl\drivers/peripheral/gpio/cy_gpio.h **** #define CY_GPIO_DRIVE_1_2                      (0x01UL) /**< 1/2 drive strength: 1/2 drive current 
 448:Generated_Source\PSoC6\pdl\drivers/peripheral/gpio/cy_gpio.h **** #define CY_GPIO_DRIVE_1_4                      (0x02UL) /**< 1/4 drive strength: 1/4 drive current 
 449:Generated_Source\PSoC6\pdl\drivers/peripheral/gpio/cy_gpio.h **** #define CY_GPIO_DRIVE_1_8                      (0x03UL) /**< 1/8 drive strength: 1/8 drive current 
 450:Generated_Source\PSoC6\pdl\drivers/peripheral/gpio/cy_gpio.h **** /** \} */
 451:Generated_Source\PSoC6\pdl\drivers/peripheral/gpio/cy_gpio.h **** 
 452:Generated_Source\PSoC6\pdl\drivers/peripheral/gpio/cy_gpio.h **** /**
ARM GAS  C:\Users\jlabe\AppData\Local\Temp\ccQBWUqN.s 			page 15


 453:Generated_Source\PSoC6\pdl\drivers/peripheral/gpio/cy_gpio.h **** * \defgroup group_gpio_interruptTrigger Interrupt trigger type
 454:Generated_Source\PSoC6\pdl\drivers/peripheral/gpio/cy_gpio.h **** * \{
 455:Generated_Source\PSoC6\pdl\drivers/peripheral/gpio/cy_gpio.h **** * Constants to be used for setting the interrupt trigger type on the pin.
 456:Generated_Source\PSoC6\pdl\drivers/peripheral/gpio/cy_gpio.h **** */
 457:Generated_Source\PSoC6\pdl\drivers/peripheral/gpio/cy_gpio.h **** #define CY_GPIO_INTR_DISABLE                   (0x00UL) /**< Disable the pin interrupt generation *
 458:Generated_Source\PSoC6\pdl\drivers/peripheral/gpio/cy_gpio.h **** #define CY_GPIO_INTR_RISING                    (0x01UL) /**< Rising-Edge interrupt */
 459:Generated_Source\PSoC6\pdl\drivers/peripheral/gpio/cy_gpio.h **** #define CY_GPIO_INTR_FALLING                   (0x02UL) /**< Falling-Edge interrupt */
 460:Generated_Source\PSoC6\pdl\drivers/peripheral/gpio/cy_gpio.h **** #define CY_GPIO_INTR_BOTH                      (0x03UL) /**< Both-Edge interrupt */
 461:Generated_Source\PSoC6\pdl\drivers/peripheral/gpio/cy_gpio.h **** /** \} */
 462:Generated_Source\PSoC6\pdl\drivers/peripheral/gpio/cy_gpio.h **** 
 463:Generated_Source\PSoC6\pdl\drivers/peripheral/gpio/cy_gpio.h **** /**
 464:Generated_Source\PSoC6\pdl\drivers/peripheral/gpio/cy_gpio.h **** * \defgroup group_gpio_sioVreg SIO output buffer mode
 465:Generated_Source\PSoC6\pdl\drivers/peripheral/gpio/cy_gpio.h **** * \{
 466:Generated_Source\PSoC6\pdl\drivers/peripheral/gpio/cy_gpio.h **** * Constants to be used for setting the SIO output buffer mode on the pin.
 467:Generated_Source\PSoC6\pdl\drivers/peripheral/gpio/cy_gpio.h **** */
 468:Generated_Source\PSoC6\pdl\drivers/peripheral/gpio/cy_gpio.h **** #define CY_SIO_VREG_UNREGULATED                (0x00UL) /**< Unregulated output buffer */
 469:Generated_Source\PSoC6\pdl\drivers/peripheral/gpio/cy_gpio.h **** #define CY_SIO_VREG_REGULATED                  (0x01UL) /**< Regulated output buffer */
 470:Generated_Source\PSoC6\pdl\drivers/peripheral/gpio/cy_gpio.h **** /** \} */
 471:Generated_Source\PSoC6\pdl\drivers/peripheral/gpio/cy_gpio.h **** 
 472:Generated_Source\PSoC6\pdl\drivers/peripheral/gpio/cy_gpio.h **** /**
 473:Generated_Source\PSoC6\pdl\drivers/peripheral/gpio/cy_gpio.h **** * \defgroup group_gpio_sioIbuf SIO input buffer mode
 474:Generated_Source\PSoC6\pdl\drivers/peripheral/gpio/cy_gpio.h **** * \{
 475:Generated_Source\PSoC6\pdl\drivers/peripheral/gpio/cy_gpio.h **** * Constants to be used for setting the SIO input buffer mode on the pin.
 476:Generated_Source\PSoC6\pdl\drivers/peripheral/gpio/cy_gpio.h **** */
 477:Generated_Source\PSoC6\pdl\drivers/peripheral/gpio/cy_gpio.h **** #define CY_SIO_IBUF_SINGLEENDED                (0x00UL) /**< Single ended input buffer */
 478:Generated_Source\PSoC6\pdl\drivers/peripheral/gpio/cy_gpio.h **** #define CY_SIO_IBUF_DIFFERENTIAL               (0x01UL) /**< Differential input buffer */
 479:Generated_Source\PSoC6\pdl\drivers/peripheral/gpio/cy_gpio.h **** /** \} */
 480:Generated_Source\PSoC6\pdl\drivers/peripheral/gpio/cy_gpio.h **** 
 481:Generated_Source\PSoC6\pdl\drivers/peripheral/gpio/cy_gpio.h **** /**
 482:Generated_Source\PSoC6\pdl\drivers/peripheral/gpio/cy_gpio.h **** * \defgroup group_gpio_sioVtrip SIO input buffer trip-point
 483:Generated_Source\PSoC6\pdl\drivers/peripheral/gpio/cy_gpio.h **** * \{
 484:Generated_Source\PSoC6\pdl\drivers/peripheral/gpio/cy_gpio.h **** * Constants to be used for setting the SIO input buffer trip-point of the pin.
 485:Generated_Source\PSoC6\pdl\drivers/peripheral/gpio/cy_gpio.h **** */
 486:Generated_Source\PSoC6\pdl\drivers/peripheral/gpio/cy_gpio.h **** #define CY_SIO_VTRIP_CMOS                      (0x00UL) /**< CMOS input buffer (single-ended) */
 487:Generated_Source\PSoC6\pdl\drivers/peripheral/gpio/cy_gpio.h **** #define CY_SIO_VTRIP_TTL                       (0x01UL) /**< TTL input buffer (single-ended) */
 488:Generated_Source\PSoC6\pdl\drivers/peripheral/gpio/cy_gpio.h **** #define CY_SIO_VTRIP_0_5VDDIO_0_5VOH           (0x00UL) /**< 0.5xVddio or 0.5xVoh (differential) */
 489:Generated_Source\PSoC6\pdl\drivers/peripheral/gpio/cy_gpio.h **** #define CY_SIO_VTRIP_0_4VDDIO_1_0VREF          (0x01UL) /**< 0.4xVddio or 0.4xVoh (differential) */
 490:Generated_Source\PSoC6\pdl\drivers/peripheral/gpio/cy_gpio.h **** /** \} */
 491:Generated_Source\PSoC6\pdl\drivers/peripheral/gpio/cy_gpio.h **** 
 492:Generated_Source\PSoC6\pdl\drivers/peripheral/gpio/cy_gpio.h **** /**
 493:Generated_Source\PSoC6\pdl\drivers/peripheral/gpio/cy_gpio.h **** * \defgroup group_gpio_sioVref SIO reference voltage for input buffer trip-point
 494:Generated_Source\PSoC6\pdl\drivers/peripheral/gpio/cy_gpio.h **** * \{
 495:Generated_Source\PSoC6\pdl\drivers/peripheral/gpio/cy_gpio.h **** * Constants to be used for setting the reference voltage of SIO input buffer trip-point.
 496:Generated_Source\PSoC6\pdl\drivers/peripheral/gpio/cy_gpio.h **** */
 497:Generated_Source\PSoC6\pdl\drivers/peripheral/gpio/cy_gpio.h **** #define CY_SIO_VREF_PINREF                     (0x00UL) /**< Vref from analog pin */
 498:Generated_Source\PSoC6\pdl\drivers/peripheral/gpio/cy_gpio.h **** #define CY_SIO_VREF_1_2V                       (0x01UL) /**< Vref from internal 1.2V reference */
 499:Generated_Source\PSoC6\pdl\drivers/peripheral/gpio/cy_gpio.h **** #define CY_SIO_VREF_AMUX_A                     (0x02UL) /**< Vref from AMUXBUS_A */
 500:Generated_Source\PSoC6\pdl\drivers/peripheral/gpio/cy_gpio.h **** #define CY_SIO_VREF_AMUX_B                     (0x03UL) /**< Vref from AMUXBUS_B */
 501:Generated_Source\PSoC6\pdl\drivers/peripheral/gpio/cy_gpio.h **** /** \} */
 502:Generated_Source\PSoC6\pdl\drivers/peripheral/gpio/cy_gpio.h **** 
 503:Generated_Source\PSoC6\pdl\drivers/peripheral/gpio/cy_gpio.h **** /**
 504:Generated_Source\PSoC6\pdl\drivers/peripheral/gpio/cy_gpio.h **** * \defgroup group_gpio_sioVoh Regulated output voltage level (Voh) and input buffer trip-point of a
 505:Generated_Source\PSoC6\pdl\drivers/peripheral/gpio/cy_gpio.h **** * \{
 506:Generated_Source\PSoC6\pdl\drivers/peripheral/gpio/cy_gpio.h **** * Constants to be used for setting the Voh and input buffer trip-point of an SIO pair
 507:Generated_Source\PSoC6\pdl\drivers/peripheral/gpio/cy_gpio.h **** */
 508:Generated_Source\PSoC6\pdl\drivers/peripheral/gpio/cy_gpio.h **** #define CY_SIO_VOH_1_00                        (0x00UL) /**< Voh = 1 x Reference */
 509:Generated_Source\PSoC6\pdl\drivers/peripheral/gpio/cy_gpio.h **** #define CY_SIO_VOH_1_25                        (0x01UL) /**< Voh = 1.25 x Reference */
ARM GAS  C:\Users\jlabe\AppData\Local\Temp\ccQBWUqN.s 			page 16


 510:Generated_Source\PSoC6\pdl\drivers/peripheral/gpio/cy_gpio.h **** #define CY_SIO_VOH_1_49                        (0x02UL) /**< Voh = 1.49 x Reference */
 511:Generated_Source\PSoC6\pdl\drivers/peripheral/gpio/cy_gpio.h **** #define CY_SIO_VOH_1_67                        (0x03UL) /**< Voh = 1.67 x Reference */
 512:Generated_Source\PSoC6\pdl\drivers/peripheral/gpio/cy_gpio.h **** #define CY_SIO_VOH_2_08                        (0x04UL) /**< Voh = 2.08 x Reference */
 513:Generated_Source\PSoC6\pdl\drivers/peripheral/gpio/cy_gpio.h **** #define CY_SIO_VOH_2_50                        (0x05UL) /**< Voh = 2.50 x Reference */
 514:Generated_Source\PSoC6\pdl\drivers/peripheral/gpio/cy_gpio.h **** #define CY_SIO_VOH_2_78                        (0x06UL) /**< Voh = 2.78 x Reference */
 515:Generated_Source\PSoC6\pdl\drivers/peripheral/gpio/cy_gpio.h **** #define CY_SIO_VOH_4_16                        (0x07UL) /**< Voh = 4.16 x Reference */
 516:Generated_Source\PSoC6\pdl\drivers/peripheral/gpio/cy_gpio.h **** /** \} */
 517:Generated_Source\PSoC6\pdl\drivers/peripheral/gpio/cy_gpio.h **** 
 518:Generated_Source\PSoC6\pdl\drivers/peripheral/gpio/cy_gpio.h **** /** \} group_gpio_macros */
 519:Generated_Source\PSoC6\pdl\drivers/peripheral/gpio/cy_gpio.h **** 
 520:Generated_Source\PSoC6\pdl\drivers/peripheral/gpio/cy_gpio.h **** /***************************************
 521:Generated_Source\PSoC6\pdl\drivers/peripheral/gpio/cy_gpio.h **** *        Function Prototypes
 522:Generated_Source\PSoC6\pdl\drivers/peripheral/gpio/cy_gpio.h **** ***************************************/
 523:Generated_Source\PSoC6\pdl\drivers/peripheral/gpio/cy_gpio.h **** 
 524:Generated_Source\PSoC6\pdl\drivers/peripheral/gpio/cy_gpio.h **** /**
 525:Generated_Source\PSoC6\pdl\drivers/peripheral/gpio/cy_gpio.h **** * \addtogroup group_gpio_functions
 526:Generated_Source\PSoC6\pdl\drivers/peripheral/gpio/cy_gpio.h **** * \{
 527:Generated_Source\PSoC6\pdl\drivers/peripheral/gpio/cy_gpio.h **** */
 528:Generated_Source\PSoC6\pdl\drivers/peripheral/gpio/cy_gpio.h **** 
 529:Generated_Source\PSoC6\pdl\drivers/peripheral/gpio/cy_gpio.h **** /**
 530:Generated_Source\PSoC6\pdl\drivers/peripheral/gpio/cy_gpio.h **** * \addtogroup group_gpio_functions_init
 531:Generated_Source\PSoC6\pdl\drivers/peripheral/gpio/cy_gpio.h **** * \{
 532:Generated_Source\PSoC6\pdl\drivers/peripheral/gpio/cy_gpio.h **** */
 533:Generated_Source\PSoC6\pdl\drivers/peripheral/gpio/cy_gpio.h **** 
 534:Generated_Source\PSoC6\pdl\drivers/peripheral/gpio/cy_gpio.h **** cy_en_gpio_status_t Cy_GPIO_Pin_Init(GPIO_PRT_Type* base, uint32_t pinNum, const cy_stc_gpio_pin_co
 535:Generated_Source\PSoC6\pdl\drivers/peripheral/gpio/cy_gpio.h **** cy_en_gpio_status_t Cy_GPIO_Port_Init(GPIO_PRT_Type* base, const cy_stc_gpio_prt_config_t *config);
 536:Generated_Source\PSoC6\pdl\drivers/peripheral/gpio/cy_gpio.h **** void Cy_GPIO_Pin_FastInit(GPIO_PRT_Type* base, uint32_t pinNum, uint32_t driveMode, uint32_t outVal
 537:Generated_Source\PSoC6\pdl\drivers/peripheral/gpio/cy_gpio.h **** void Cy_GPIO_Port_Deinit(GPIO_PRT_Type* base);
 538:Generated_Source\PSoC6\pdl\drivers/peripheral/gpio/cy_gpio.h **** __STATIC_INLINE void Cy_GPIO_SetHSIOM(GPIO_PRT_Type* base, uint32_t pinNum, en_hsiom_sel_t value);
 539:Generated_Source\PSoC6\pdl\drivers/peripheral/gpio/cy_gpio.h **** __STATIC_INLINE en_hsiom_sel_t Cy_GPIO_GetHSIOM(GPIO_PRT_Type* base, uint32_t pinNum);
 540:Generated_Source\PSoC6\pdl\drivers/peripheral/gpio/cy_gpio.h **** __STATIC_INLINE GPIO_PRT_Type* Cy_GPIO_PortToAddr(uint32_t portNum);
 541:Generated_Source\PSoC6\pdl\drivers/peripheral/gpio/cy_gpio.h **** 
 542:Generated_Source\PSoC6\pdl\drivers/peripheral/gpio/cy_gpio.h **** /** \} group_gpio_functions_init */
 543:Generated_Source\PSoC6\pdl\drivers/peripheral/gpio/cy_gpio.h **** 
 544:Generated_Source\PSoC6\pdl\drivers/peripheral/gpio/cy_gpio.h **** /**
 545:Generated_Source\PSoC6\pdl\drivers/peripheral/gpio/cy_gpio.h **** * \addtogroup group_gpio_functions_gpio
 546:Generated_Source\PSoC6\pdl\drivers/peripheral/gpio/cy_gpio.h **** * \{
 547:Generated_Source\PSoC6\pdl\drivers/peripheral/gpio/cy_gpio.h **** */
 548:Generated_Source\PSoC6\pdl\drivers/peripheral/gpio/cy_gpio.h **** 
 549:Generated_Source\PSoC6\pdl\drivers/peripheral/gpio/cy_gpio.h **** void Cy_GPIO_SetAmuxSplit(cy_en_amux_split_t switchCtrl, cy_en_gpio_amuxconnect_t amuxConnect, cy_e
 550:Generated_Source\PSoC6\pdl\drivers/peripheral/gpio/cy_gpio.h **** cy_en_gpio_amuxconnect_t Cy_GPIO_GetAmuxSplit(cy_en_amux_split_t switchCtrl, cy_en_gpio_amuxselect_
 551:Generated_Source\PSoC6\pdl\drivers/peripheral/gpio/cy_gpio.h **** 
 552:Generated_Source\PSoC6\pdl\drivers/peripheral/gpio/cy_gpio.h **** __STATIC_INLINE uint32_t Cy_GPIO_Read(GPIO_PRT_Type* base, uint32_t pinNum);
 553:Generated_Source\PSoC6\pdl\drivers/peripheral/gpio/cy_gpio.h **** __STATIC_INLINE void Cy_GPIO_Write(GPIO_PRT_Type* base, uint32_t pinNum, uint32_t value);
 554:Generated_Source\PSoC6\pdl\drivers/peripheral/gpio/cy_gpio.h **** __STATIC_INLINE uint32_t Cy_GPIO_ReadOut(GPIO_PRT_Type* base, uint32_t pinNum);
 555:Generated_Source\PSoC6\pdl\drivers/peripheral/gpio/cy_gpio.h **** __STATIC_INLINE void Cy_GPIO_Set(GPIO_PRT_Type* base, uint32_t pinNum);
 556:Generated_Source\PSoC6\pdl\drivers/peripheral/gpio/cy_gpio.h **** __STATIC_INLINE void Cy_GPIO_Clr(GPIO_PRT_Type* base, uint32_t pinNum);
 557:Generated_Source\PSoC6\pdl\drivers/peripheral/gpio/cy_gpio.h **** __STATIC_INLINE void Cy_GPIO_Inv(GPIO_PRT_Type* base, uint32_t pinNum);
 558:Generated_Source\PSoC6\pdl\drivers/peripheral/gpio/cy_gpio.h **** __STATIC_INLINE void Cy_GPIO_SetDrivemode(GPIO_PRT_Type* base, uint32_t pinNum, uint32_t value);
 559:Generated_Source\PSoC6\pdl\drivers/peripheral/gpio/cy_gpio.h **** __STATIC_INLINE uint32_t Cy_GPIO_GetDrivemode(GPIO_PRT_Type* base, uint32_t pinNum);
 560:Generated_Source\PSoC6\pdl\drivers/peripheral/gpio/cy_gpio.h **** __STATIC_INLINE void Cy_GPIO_SetVtrip(GPIO_PRT_Type* base, uint32_t pinNum, uint32_t value);
 561:Generated_Source\PSoC6\pdl\drivers/peripheral/gpio/cy_gpio.h **** __STATIC_INLINE uint32_t Cy_GPIO_GetVtrip(GPIO_PRT_Type* base, uint32_t pinNum);
 562:Generated_Source\PSoC6\pdl\drivers/peripheral/gpio/cy_gpio.h **** __STATIC_INLINE void Cy_GPIO_SetSlewRate(GPIO_PRT_Type* base, uint32_t pinNum, uint32_t value);
 563:Generated_Source\PSoC6\pdl\drivers/peripheral/gpio/cy_gpio.h **** __STATIC_INLINE uint32_t Cy_GPIO_GetSlewRate(GPIO_PRT_Type* base, uint32_t pinNum);
 564:Generated_Source\PSoC6\pdl\drivers/peripheral/gpio/cy_gpio.h **** __STATIC_INLINE void Cy_GPIO_SetDriveSel(GPIO_PRT_Type* base, uint32_t pinNum, uint32_t value);
 565:Generated_Source\PSoC6\pdl\drivers/peripheral/gpio/cy_gpio.h **** __STATIC_INLINE uint32_t Cy_GPIO_GetDriveSel(GPIO_PRT_Type* base, uint32_t pinNum);
 566:Generated_Source\PSoC6\pdl\drivers/peripheral/gpio/cy_gpio.h **** 
ARM GAS  C:\Users\jlabe\AppData\Local\Temp\ccQBWUqN.s 			page 17


 567:Generated_Source\PSoC6\pdl\drivers/peripheral/gpio/cy_gpio.h **** /** \} group_gpio_functions_gpio */
 568:Generated_Source\PSoC6\pdl\drivers/peripheral/gpio/cy_gpio.h **** 
 569:Generated_Source\PSoC6\pdl\drivers/peripheral/gpio/cy_gpio.h **** /**
 570:Generated_Source\PSoC6\pdl\drivers/peripheral/gpio/cy_gpio.h **** * \addtogroup group_gpio_functions_sio
 571:Generated_Source\PSoC6\pdl\drivers/peripheral/gpio/cy_gpio.h **** * \{
 572:Generated_Source\PSoC6\pdl\drivers/peripheral/gpio/cy_gpio.h **** */
 573:Generated_Source\PSoC6\pdl\drivers/peripheral/gpio/cy_gpio.h **** 
 574:Generated_Source\PSoC6\pdl\drivers/peripheral/gpio/cy_gpio.h **** __STATIC_INLINE void Cy_GPIO_SetVregEn(GPIO_PRT_Type* base, uint32_t pinNum, uint32_t value);
 575:Generated_Source\PSoC6\pdl\drivers/peripheral/gpio/cy_gpio.h **** __STATIC_INLINE uint32_t Cy_GPIO_GetVregEn(GPIO_PRT_Type* base, uint32_t pinNum);
 576:Generated_Source\PSoC6\pdl\drivers/peripheral/gpio/cy_gpio.h **** __STATIC_INLINE void Cy_GPIO_SetIbufMode(GPIO_PRT_Type* base, uint32_t pinNum, uint32_t value);
 577:Generated_Source\PSoC6\pdl\drivers/peripheral/gpio/cy_gpio.h **** __STATIC_INLINE uint32_t Cy_GPIO_GetIbufMode(GPIO_PRT_Type* base, uint32_t pinNum);
 578:Generated_Source\PSoC6\pdl\drivers/peripheral/gpio/cy_gpio.h **** __STATIC_INLINE void Cy_GPIO_SetVtripSel(GPIO_PRT_Type* base, uint32_t pinNum, uint32_t value);
 579:Generated_Source\PSoC6\pdl\drivers/peripheral/gpio/cy_gpio.h **** __STATIC_INLINE uint32_t Cy_GPIO_GetVtripSel(GPIO_PRT_Type* base, uint32_t pinNum);
 580:Generated_Source\PSoC6\pdl\drivers/peripheral/gpio/cy_gpio.h **** __STATIC_INLINE void Cy_GPIO_SetVrefSel(GPIO_PRT_Type* base, uint32_t pinNum, uint32_t value);
 581:Generated_Source\PSoC6\pdl\drivers/peripheral/gpio/cy_gpio.h **** __STATIC_INLINE uint32_t Cy_GPIO_GetVrefSel(GPIO_PRT_Type* base, uint32_t pinNum);
 582:Generated_Source\PSoC6\pdl\drivers/peripheral/gpio/cy_gpio.h **** __STATIC_INLINE void Cy_GPIO_SetVohSel(GPIO_PRT_Type* base, uint32_t pinNum, uint32_t value);
 583:Generated_Source\PSoC6\pdl\drivers/peripheral/gpio/cy_gpio.h **** __STATIC_INLINE uint32_t Cy_GPIO_GetVohSel(GPIO_PRT_Type* base, uint32_t pinNum);
 584:Generated_Source\PSoC6\pdl\drivers/peripheral/gpio/cy_gpio.h **** 
 585:Generated_Source\PSoC6\pdl\drivers/peripheral/gpio/cy_gpio.h **** /** \} group_gpio_functions_sio */
 586:Generated_Source\PSoC6\pdl\drivers/peripheral/gpio/cy_gpio.h **** 
 587:Generated_Source\PSoC6\pdl\drivers/peripheral/gpio/cy_gpio.h **** /**
 588:Generated_Source\PSoC6\pdl\drivers/peripheral/gpio/cy_gpio.h **** * \addtogroup group_gpio_functions_interrupt
 589:Generated_Source\PSoC6\pdl\drivers/peripheral/gpio/cy_gpio.h **** * \{
 590:Generated_Source\PSoC6\pdl\drivers/peripheral/gpio/cy_gpio.h **** */
 591:Generated_Source\PSoC6\pdl\drivers/peripheral/gpio/cy_gpio.h **** 
 592:Generated_Source\PSoC6\pdl\drivers/peripheral/gpio/cy_gpio.h **** __STATIC_INLINE uint32_t Cy_GPIO_GetInterruptStatus(GPIO_PRT_Type* base, uint32_t pinNum);
 593:Generated_Source\PSoC6\pdl\drivers/peripheral/gpio/cy_gpio.h **** __STATIC_INLINE void Cy_GPIO_ClearInterrupt(GPIO_PRT_Type* base, uint32_t pinNum);
 594:Generated_Source\PSoC6\pdl\drivers/peripheral/gpio/cy_gpio.h **** __STATIC_INLINE void Cy_GPIO_SetInterruptMask(GPIO_PRT_Type* base, uint32_t pinNum, uint32_t value)
 595:Generated_Source\PSoC6\pdl\drivers/peripheral/gpio/cy_gpio.h **** __STATIC_INLINE uint32_t Cy_GPIO_GetInterruptMask(GPIO_PRT_Type* base, uint32_t pinNum);
 596:Generated_Source\PSoC6\pdl\drivers/peripheral/gpio/cy_gpio.h **** __STATIC_INLINE uint32_t Cy_GPIO_GetInterruptStatusMasked(GPIO_PRT_Type* base, uint32_t pinNum);
 597:Generated_Source\PSoC6\pdl\drivers/peripheral/gpio/cy_gpio.h **** __STATIC_INLINE void Cy_GPIO_SetSwInterrupt(GPIO_PRT_Type* base, uint32_t pinNum);
 598:Generated_Source\PSoC6\pdl\drivers/peripheral/gpio/cy_gpio.h **** __STATIC_INLINE void Cy_GPIO_SetInterruptEdge(GPIO_PRT_Type* base, uint32_t pinNum, uint32_t value)
 599:Generated_Source\PSoC6\pdl\drivers/peripheral/gpio/cy_gpio.h **** __STATIC_INLINE uint32_t Cy_GPIO_GetInterruptEdge(GPIO_PRT_Type* base, uint32_t pinNum);
 600:Generated_Source\PSoC6\pdl\drivers/peripheral/gpio/cy_gpio.h **** __STATIC_INLINE void Cy_GPIO_SetFilter(GPIO_PRT_Type* base, uint32_t value);
 601:Generated_Source\PSoC6\pdl\drivers/peripheral/gpio/cy_gpio.h **** __STATIC_INLINE uint32_t Cy_GPIO_GetFilter(GPIO_PRT_Type* base);
 602:Generated_Source\PSoC6\pdl\drivers/peripheral/gpio/cy_gpio.h **** 
 603:Generated_Source\PSoC6\pdl\drivers/peripheral/gpio/cy_gpio.h **** __STATIC_INLINE uint32_t Cy_GPIO_GetInterruptCause0(void);
 604:Generated_Source\PSoC6\pdl\drivers/peripheral/gpio/cy_gpio.h **** __STATIC_INLINE uint32_t Cy_GPIO_GetInterruptCause1(void);
 605:Generated_Source\PSoC6\pdl\drivers/peripheral/gpio/cy_gpio.h **** __STATIC_INLINE uint32_t Cy_GPIO_GetInterruptCause2(void);
 606:Generated_Source\PSoC6\pdl\drivers/peripheral/gpio/cy_gpio.h **** __STATIC_INLINE uint32_t Cy_GPIO_GetInterruptCause3(void);
 607:Generated_Source\PSoC6\pdl\drivers/peripheral/gpio/cy_gpio.h **** 
 608:Generated_Source\PSoC6\pdl\drivers/peripheral/gpio/cy_gpio.h **** /** \} group_gpio_functions_interrupt */
 609:Generated_Source\PSoC6\pdl\drivers/peripheral/gpio/cy_gpio.h **** 
 610:Generated_Source\PSoC6\pdl\drivers/peripheral/gpio/cy_gpio.h **** 
 611:Generated_Source\PSoC6\pdl\drivers/peripheral/gpio/cy_gpio.h **** /**
 612:Generated_Source\PSoC6\pdl\drivers/peripheral/gpio/cy_gpio.h **** * \addtogroup group_gpio_functions_init
 613:Generated_Source\PSoC6\pdl\drivers/peripheral/gpio/cy_gpio.h **** * \{
 614:Generated_Source\PSoC6\pdl\drivers/peripheral/gpio/cy_gpio.h **** */
 615:Generated_Source\PSoC6\pdl\drivers/peripheral/gpio/cy_gpio.h **** 
 616:Generated_Source\PSoC6\pdl\drivers/peripheral/gpio/cy_gpio.h **** /*******************************************************************************
 617:Generated_Source\PSoC6\pdl\drivers/peripheral/gpio/cy_gpio.h **** * Function Name: Cy_GPIO_SetHSIOM
 618:Generated_Source\PSoC6\pdl\drivers/peripheral/gpio/cy_gpio.h **** ****************************************************************************//**
 619:Generated_Source\PSoC6\pdl\drivers/peripheral/gpio/cy_gpio.h **** *
 620:Generated_Source\PSoC6\pdl\drivers/peripheral/gpio/cy_gpio.h **** * Configures the HSIOM connection to the pin.
 621:Generated_Source\PSoC6\pdl\drivers/peripheral/gpio/cy_gpio.h **** *
 622:Generated_Source\PSoC6\pdl\drivers/peripheral/gpio/cy_gpio.h **** * Connects the specified High-Speed Input Output Multiplexer (HSIOM) selection
 623:Generated_Source\PSoC6\pdl\drivers/peripheral/gpio/cy_gpio.h **** * to the pin.
ARM GAS  C:\Users\jlabe\AppData\Local\Temp\ccQBWUqN.s 			page 18


 624:Generated_Source\PSoC6\pdl\drivers/peripheral/gpio/cy_gpio.h **** *
 625:Generated_Source\PSoC6\pdl\drivers/peripheral/gpio/cy_gpio.h **** * \param base
 626:Generated_Source\PSoC6\pdl\drivers/peripheral/gpio/cy_gpio.h **** * Pointer to the pin's port register base address
 627:Generated_Source\PSoC6\pdl\drivers/peripheral/gpio/cy_gpio.h **** *
 628:Generated_Source\PSoC6\pdl\drivers/peripheral/gpio/cy_gpio.h **** * \param pinNum
 629:Generated_Source\PSoC6\pdl\drivers/peripheral/gpio/cy_gpio.h **** * Position of the pin bit-field within the port register
 630:Generated_Source\PSoC6\pdl\drivers/peripheral/gpio/cy_gpio.h **** *
 631:Generated_Source\PSoC6\pdl\drivers/peripheral/gpio/cy_gpio.h **** * \param value
 632:Generated_Source\PSoC6\pdl\drivers/peripheral/gpio/cy_gpio.h **** * HSIOM input selection
 633:Generated_Source\PSoC6\pdl\drivers/peripheral/gpio/cy_gpio.h **** *
 634:Generated_Source\PSoC6\pdl\drivers/peripheral/gpio/cy_gpio.h **** * \note 
 635:Generated_Source\PSoC6\pdl\drivers/peripheral/gpio/cy_gpio.h **** * This function modifies a port register in a read-modify-write operation. It is
 636:Generated_Source\PSoC6\pdl\drivers/peripheral/gpio/cy_gpio.h **** * not thread safe as the resource is shared among multiple pins on a port.
 637:Generated_Source\PSoC6\pdl\drivers/peripheral/gpio/cy_gpio.h **** *
 638:Generated_Source\PSoC6\pdl\drivers/peripheral/gpio/cy_gpio.h **** * \funcusage
 639:Generated_Source\PSoC6\pdl\drivers/peripheral/gpio/cy_gpio.h **** * \snippet gpio/gpio_v1_10_sut_01.cydsn/main_cm4.c snippet_Cy_GPIO_SetHSIOM
 640:Generated_Source\PSoC6\pdl\drivers/peripheral/gpio/cy_gpio.h **** *
 641:Generated_Source\PSoC6\pdl\drivers/peripheral/gpio/cy_gpio.h **** *******************************************************************************/
 642:Generated_Source\PSoC6\pdl\drivers/peripheral/gpio/cy_gpio.h **** __STATIC_INLINE void Cy_GPIO_SetHSIOM(GPIO_PRT_Type* base, uint32_t pinNum, en_hsiom_sel_t value)
 643:Generated_Source\PSoC6\pdl\drivers/peripheral/gpio/cy_gpio.h **** {
 644:Generated_Source\PSoC6\pdl\drivers/peripheral/gpio/cy_gpio.h ****     uint32_t portNum;
 645:Generated_Source\PSoC6\pdl\drivers/peripheral/gpio/cy_gpio.h ****     uint32_t tempReg;
 646:Generated_Source\PSoC6\pdl\drivers/peripheral/gpio/cy_gpio.h ****     HSIOM_PRT_V1_Type* portAddrHSIOM;
 647:Generated_Source\PSoC6\pdl\drivers/peripheral/gpio/cy_gpio.h **** 
 648:Generated_Source\PSoC6\pdl\drivers/peripheral/gpio/cy_gpio.h ****     CY_ASSERT_L2(CY_GPIO_IS_PIN_VALID(pinNum));
 649:Generated_Source\PSoC6\pdl\drivers/peripheral/gpio/cy_gpio.h ****     CY_ASSERT_L2(CY_GPIO_IS_HSIOM_VALID(value));
 650:Generated_Source\PSoC6\pdl\drivers/peripheral/gpio/cy_gpio.h **** 
 651:Generated_Source\PSoC6\pdl\drivers/peripheral/gpio/cy_gpio.h ****     portNum = ((uint32_t)(base) - CY_GPIO_BASE) / GPIO_PRT_SECTION_SIZE;
 652:Generated_Source\PSoC6\pdl\drivers/peripheral/gpio/cy_gpio.h ****     portAddrHSIOM = (HSIOM_PRT_V1_Type*)(CY_HSIOM_BASE + (HSIOM_PRT_SECTION_SIZE * portNum));
 653:Generated_Source\PSoC6\pdl\drivers/peripheral/gpio/cy_gpio.h **** 
 654:Generated_Source\PSoC6\pdl\drivers/peripheral/gpio/cy_gpio.h ****     if(pinNum < CY_GPIO_PRT_HALF)
 655:Generated_Source\PSoC6\pdl\drivers/peripheral/gpio/cy_gpio.h ****     {
 656:Generated_Source\PSoC6\pdl\drivers/peripheral/gpio/cy_gpio.h ****         tempReg = HSIOM_PRT_PORT_SEL0(portAddrHSIOM) & ~(CY_GPIO_HSIOM_MASK << (pinNum << CY_GPIO_H
 657:Generated_Source\PSoC6\pdl\drivers/peripheral/gpio/cy_gpio.h ****         HSIOM_PRT_PORT_SEL0(portAddrHSIOM) = tempReg | ((value & CY_GPIO_HSIOM_MASK) << (pinNum << 
 658:Generated_Source\PSoC6\pdl\drivers/peripheral/gpio/cy_gpio.h ****     }
 659:Generated_Source\PSoC6\pdl\drivers/peripheral/gpio/cy_gpio.h ****     else
 660:Generated_Source\PSoC6\pdl\drivers/peripheral/gpio/cy_gpio.h ****     {
 661:Generated_Source\PSoC6\pdl\drivers/peripheral/gpio/cy_gpio.h ****         pinNum -= CY_GPIO_PRT_HALF;
 662:Generated_Source\PSoC6\pdl\drivers/peripheral/gpio/cy_gpio.h ****         tempReg = HSIOM_PRT_PORT_SEL1(portAddrHSIOM) & ~(CY_GPIO_HSIOM_MASK << (pinNum << CY_GPIO_H
 663:Generated_Source\PSoC6\pdl\drivers/peripheral/gpio/cy_gpio.h ****         HSIOM_PRT_PORT_SEL1(portAddrHSIOM) = tempReg | ((value & CY_GPIO_HSIOM_MASK) << (pinNum << 
 664:Generated_Source\PSoC6\pdl\drivers/peripheral/gpio/cy_gpio.h ****     }
 665:Generated_Source\PSoC6\pdl\drivers/peripheral/gpio/cy_gpio.h **** }
 666:Generated_Source\PSoC6\pdl\drivers/peripheral/gpio/cy_gpio.h **** 
 667:Generated_Source\PSoC6\pdl\drivers/peripheral/gpio/cy_gpio.h **** 
 668:Generated_Source\PSoC6\pdl\drivers/peripheral/gpio/cy_gpio.h **** /*******************************************************************************
 669:Generated_Source\PSoC6\pdl\drivers/peripheral/gpio/cy_gpio.h **** * Function Name: Cy_GPIO_GetHSIOM
 670:Generated_Source\PSoC6\pdl\drivers/peripheral/gpio/cy_gpio.h **** ****************************************************************************//**
 671:Generated_Source\PSoC6\pdl\drivers/peripheral/gpio/cy_gpio.h **** *
 672:Generated_Source\PSoC6\pdl\drivers/peripheral/gpio/cy_gpio.h **** * Returns the current HSIOM multiplexer connection to the pin.
 673:Generated_Source\PSoC6\pdl\drivers/peripheral/gpio/cy_gpio.h **** *
 674:Generated_Source\PSoC6\pdl\drivers/peripheral/gpio/cy_gpio.h **** * \param base
 675:Generated_Source\PSoC6\pdl\drivers/peripheral/gpio/cy_gpio.h **** * Pointer to the pin's port register base address
 676:Generated_Source\PSoC6\pdl\drivers/peripheral/gpio/cy_gpio.h **** *
 677:Generated_Source\PSoC6\pdl\drivers/peripheral/gpio/cy_gpio.h **** * \param pinNum
 678:Generated_Source\PSoC6\pdl\drivers/peripheral/gpio/cy_gpio.h **** * Position of the pin bit-field within the port register
 679:Generated_Source\PSoC6\pdl\drivers/peripheral/gpio/cy_gpio.h **** *
 680:Generated_Source\PSoC6\pdl\drivers/peripheral/gpio/cy_gpio.h **** * \return
ARM GAS  C:\Users\jlabe\AppData\Local\Temp\ccQBWUqN.s 			page 19


 681:Generated_Source\PSoC6\pdl\drivers/peripheral/gpio/cy_gpio.h **** * HSIOM input selection
 682:Generated_Source\PSoC6\pdl\drivers/peripheral/gpio/cy_gpio.h **** *
 683:Generated_Source\PSoC6\pdl\drivers/peripheral/gpio/cy_gpio.h **** * \funcusage
 684:Generated_Source\PSoC6\pdl\drivers/peripheral/gpio/cy_gpio.h **** * \snippet gpio/gpio_v1_10_sut_01.cydsn/main_cm4.c snippet_Cy_GPIO_SetHSIOM
 685:Generated_Source\PSoC6\pdl\drivers/peripheral/gpio/cy_gpio.h **** *
 686:Generated_Source\PSoC6\pdl\drivers/peripheral/gpio/cy_gpio.h **** *******************************************************************************/
 687:Generated_Source\PSoC6\pdl\drivers/peripheral/gpio/cy_gpio.h **** __STATIC_INLINE en_hsiom_sel_t Cy_GPIO_GetHSIOM(GPIO_PRT_Type* base, uint32_t pinNum)
 688:Generated_Source\PSoC6\pdl\drivers/peripheral/gpio/cy_gpio.h **** {
 689:Generated_Source\PSoC6\pdl\drivers/peripheral/gpio/cy_gpio.h ****     uint32_t returnValue;
 690:Generated_Source\PSoC6\pdl\drivers/peripheral/gpio/cy_gpio.h ****     uint32_t portNum;
 691:Generated_Source\PSoC6\pdl\drivers/peripheral/gpio/cy_gpio.h ****     HSIOM_PRT_V1_Type* portAddrHSIOM;
 692:Generated_Source\PSoC6\pdl\drivers/peripheral/gpio/cy_gpio.h ****     
 693:Generated_Source\PSoC6\pdl\drivers/peripheral/gpio/cy_gpio.h ****     CY_ASSERT_L2(CY_GPIO_IS_PIN_VALID(pinNum));
 694:Generated_Source\PSoC6\pdl\drivers/peripheral/gpio/cy_gpio.h **** 
 695:Generated_Source\PSoC6\pdl\drivers/peripheral/gpio/cy_gpio.h ****     portNum = ((uint32_t)(base) - CY_GPIO_BASE) / GPIO_PRT_SECTION_SIZE;
 696:Generated_Source\PSoC6\pdl\drivers/peripheral/gpio/cy_gpio.h ****     portAddrHSIOM = (HSIOM_PRT_V1_Type*)(CY_HSIOM_BASE + (HSIOM_PRT_SECTION_SIZE * portNum));
 697:Generated_Source\PSoC6\pdl\drivers/peripheral/gpio/cy_gpio.h **** 
 698:Generated_Source\PSoC6\pdl\drivers/peripheral/gpio/cy_gpio.h ****     if(pinNum < CY_GPIO_PRT_HALF)
 699:Generated_Source\PSoC6\pdl\drivers/peripheral/gpio/cy_gpio.h ****     {
 700:Generated_Source\PSoC6\pdl\drivers/peripheral/gpio/cy_gpio.h ****         returnValue = (HSIOM_PRT_PORT_SEL0(portAddrHSIOM) >> (pinNum << CY_GPIO_HSIOM_OFFSET)) & CY
 701:Generated_Source\PSoC6\pdl\drivers/peripheral/gpio/cy_gpio.h ****     }
 702:Generated_Source\PSoC6\pdl\drivers/peripheral/gpio/cy_gpio.h ****     else
 703:Generated_Source\PSoC6\pdl\drivers/peripheral/gpio/cy_gpio.h ****     {
 704:Generated_Source\PSoC6\pdl\drivers/peripheral/gpio/cy_gpio.h ****         pinNum -= CY_GPIO_PRT_HALF;
 705:Generated_Source\PSoC6\pdl\drivers/peripheral/gpio/cy_gpio.h ****         returnValue = (HSIOM_PRT_PORT_SEL1(portAddrHSIOM) >> (pinNum << CY_GPIO_HSIOM_OFFSET)) & CY
 706:Generated_Source\PSoC6\pdl\drivers/peripheral/gpio/cy_gpio.h ****     }
 707:Generated_Source\PSoC6\pdl\drivers/peripheral/gpio/cy_gpio.h **** 
 708:Generated_Source\PSoC6\pdl\drivers/peripheral/gpio/cy_gpio.h ****     return (en_hsiom_sel_t)returnValue;
 709:Generated_Source\PSoC6\pdl\drivers/peripheral/gpio/cy_gpio.h **** }
 710:Generated_Source\PSoC6\pdl\drivers/peripheral/gpio/cy_gpio.h **** 
 711:Generated_Source\PSoC6\pdl\drivers/peripheral/gpio/cy_gpio.h **** 
 712:Generated_Source\PSoC6\pdl\drivers/peripheral/gpio/cy_gpio.h **** /*******************************************************************************
 713:Generated_Source\PSoC6\pdl\drivers/peripheral/gpio/cy_gpio.h **** * Function Name: Cy_GPIO_PortToAddr
 714:Generated_Source\PSoC6\pdl\drivers/peripheral/gpio/cy_gpio.h **** ****************************************************************************//**
 715:Generated_Source\PSoC6\pdl\drivers/peripheral/gpio/cy_gpio.h **** *
 716:Generated_Source\PSoC6\pdl\drivers/peripheral/gpio/cy_gpio.h **** * Retrieves the port address based on the given port number.
 717:Generated_Source\PSoC6\pdl\drivers/peripheral/gpio/cy_gpio.h **** *
 718:Generated_Source\PSoC6\pdl\drivers/peripheral/gpio/cy_gpio.h **** * This is a helper function to calculate the port base address when given a port
 719:Generated_Source\PSoC6\pdl\drivers/peripheral/gpio/cy_gpio.h **** * number. It is to be used when pin access needs to be calculated at runtime.
 720:Generated_Source\PSoC6\pdl\drivers/peripheral/gpio/cy_gpio.h **** *
 721:Generated_Source\PSoC6\pdl\drivers/peripheral/gpio/cy_gpio.h **** * \param portNum
 722:Generated_Source\PSoC6\pdl\drivers/peripheral/gpio/cy_gpio.h **** * Port number
 723:Generated_Source\PSoC6\pdl\drivers/peripheral/gpio/cy_gpio.h **** *
 724:Generated_Source\PSoC6\pdl\drivers/peripheral/gpio/cy_gpio.h **** * \return
 725:Generated_Source\PSoC6\pdl\drivers/peripheral/gpio/cy_gpio.h **** * Base address of the port register structure
 726:Generated_Source\PSoC6\pdl\drivers/peripheral/gpio/cy_gpio.h **** *
 727:Generated_Source\PSoC6\pdl\drivers/peripheral/gpio/cy_gpio.h **** * \funcusage
 728:Generated_Source\PSoC6\pdl\drivers/peripheral/gpio/cy_gpio.h **** * \snippet gpio/gpio_v1_10_sut_01.cydsn/main_cm4.c snippet_Cy_GPIO_PortToAddr
 729:Generated_Source\PSoC6\pdl\drivers/peripheral/gpio/cy_gpio.h **** *
 730:Generated_Source\PSoC6\pdl\drivers/peripheral/gpio/cy_gpio.h **** *******************************************************************************/
 731:Generated_Source\PSoC6\pdl\drivers/peripheral/gpio/cy_gpio.h **** __STATIC_INLINE GPIO_PRT_Type* Cy_GPIO_PortToAddr(uint32_t portNum)
 732:Generated_Source\PSoC6\pdl\drivers/peripheral/gpio/cy_gpio.h **** {
 733:Generated_Source\PSoC6\pdl\drivers/peripheral/gpio/cy_gpio.h ****     GPIO_PRT_Type* portBase;
 734:Generated_Source\PSoC6\pdl\drivers/peripheral/gpio/cy_gpio.h ****     
 735:Generated_Source\PSoC6\pdl\drivers/peripheral/gpio/cy_gpio.h ****     if(portNum < (uint32_t)IOSS_GPIO_GPIO_PORT_NR)
 736:Generated_Source\PSoC6\pdl\drivers/peripheral/gpio/cy_gpio.h ****     {
 737:Generated_Source\PSoC6\pdl\drivers/peripheral/gpio/cy_gpio.h ****         portBase = (GPIO_PRT_Type *)(CY_GPIO_BASE + (GPIO_PRT_SECTION_SIZE * portNum));
ARM GAS  C:\Users\jlabe\AppData\Local\Temp\ccQBWUqN.s 			page 20


 738:Generated_Source\PSoC6\pdl\drivers/peripheral/gpio/cy_gpio.h ****     }
 739:Generated_Source\PSoC6\pdl\drivers/peripheral/gpio/cy_gpio.h ****     else
 740:Generated_Source\PSoC6\pdl\drivers/peripheral/gpio/cy_gpio.h ****     {
 741:Generated_Source\PSoC6\pdl\drivers/peripheral/gpio/cy_gpio.h ****         /* Error: Return default base address */
 742:Generated_Source\PSoC6\pdl\drivers/peripheral/gpio/cy_gpio.h ****         portBase = (GPIO_PRT_Type *)(CY_GPIO_BASE);
 743:Generated_Source\PSoC6\pdl\drivers/peripheral/gpio/cy_gpio.h ****     }
 744:Generated_Source\PSoC6\pdl\drivers/peripheral/gpio/cy_gpio.h **** 
 745:Generated_Source\PSoC6\pdl\drivers/peripheral/gpio/cy_gpio.h ****     return (portBase);
 746:Generated_Source\PSoC6\pdl\drivers/peripheral/gpio/cy_gpio.h **** }
 747:Generated_Source\PSoC6\pdl\drivers/peripheral/gpio/cy_gpio.h **** 
 748:Generated_Source\PSoC6\pdl\drivers/peripheral/gpio/cy_gpio.h **** /** \} group_gpio_functions_init */
 749:Generated_Source\PSoC6\pdl\drivers/peripheral/gpio/cy_gpio.h **** 
 750:Generated_Source\PSoC6\pdl\drivers/peripheral/gpio/cy_gpio.h **** /**
 751:Generated_Source\PSoC6\pdl\drivers/peripheral/gpio/cy_gpio.h **** * \addtogroup group_gpio_functions_gpio
 752:Generated_Source\PSoC6\pdl\drivers/peripheral/gpio/cy_gpio.h **** * \{
 753:Generated_Source\PSoC6\pdl\drivers/peripheral/gpio/cy_gpio.h **** */
 754:Generated_Source\PSoC6\pdl\drivers/peripheral/gpio/cy_gpio.h **** 
 755:Generated_Source\PSoC6\pdl\drivers/peripheral/gpio/cy_gpio.h **** /*******************************************************************************
 756:Generated_Source\PSoC6\pdl\drivers/peripheral/gpio/cy_gpio.h **** * Function Name: Cy_GPIO_Read
 757:Generated_Source\PSoC6\pdl\drivers/peripheral/gpio/cy_gpio.h **** ****************************************************************************//**
 758:Generated_Source\PSoC6\pdl\drivers/peripheral/gpio/cy_gpio.h **** *
 759:Generated_Source\PSoC6\pdl\drivers/peripheral/gpio/cy_gpio.h **** * Reads the current logic level on the input buffer of the pin.
 760:Generated_Source\PSoC6\pdl\drivers/peripheral/gpio/cy_gpio.h **** *
 761:Generated_Source\PSoC6\pdl\drivers/peripheral/gpio/cy_gpio.h **** * \param base
 762:Generated_Source\PSoC6\pdl\drivers/peripheral/gpio/cy_gpio.h **** * Pointer to the pin's port register base address
 763:Generated_Source\PSoC6\pdl\drivers/peripheral/gpio/cy_gpio.h **** *
 764:Generated_Source\PSoC6\pdl\drivers/peripheral/gpio/cy_gpio.h **** * \param pinNum
 765:Generated_Source\PSoC6\pdl\drivers/peripheral/gpio/cy_gpio.h **** * Position of the pin bit-field within the port register.
 766:Generated_Source\PSoC6\pdl\drivers/peripheral/gpio/cy_gpio.h **** * Bit position 8 is the routed pin through the port glitch filter.
 767:Generated_Source\PSoC6\pdl\drivers/peripheral/gpio/cy_gpio.h **** *
 768:Generated_Source\PSoC6\pdl\drivers/peripheral/gpio/cy_gpio.h **** * \return
 769:Generated_Source\PSoC6\pdl\drivers/peripheral/gpio/cy_gpio.h **** * Logic level present on the pin
 770:Generated_Source\PSoC6\pdl\drivers/peripheral/gpio/cy_gpio.h **** *
 771:Generated_Source\PSoC6\pdl\drivers/peripheral/gpio/cy_gpio.h **** * \funcusage
 772:Generated_Source\PSoC6\pdl\drivers/peripheral/gpio/cy_gpio.h **** * \snippet gpio/gpio_v1_10_sut_01.cydsn/main_cm4.c snippet_Cy_GPIO_Read
 773:Generated_Source\PSoC6\pdl\drivers/peripheral/gpio/cy_gpio.h **** *
 774:Generated_Source\PSoC6\pdl\drivers/peripheral/gpio/cy_gpio.h **** *******************************************************************************/
 775:Generated_Source\PSoC6\pdl\drivers/peripheral/gpio/cy_gpio.h **** __STATIC_INLINE uint32_t Cy_GPIO_Read(GPIO_PRT_Type* base, uint32_t pinNum)
 776:Generated_Source\PSoC6\pdl\drivers/peripheral/gpio/cy_gpio.h **** {
 777:Generated_Source\PSoC6\pdl\drivers/peripheral/gpio/cy_gpio.h ****     CY_ASSERT_L2(CY_GPIO_IS_FILTER_PIN_VALID(pinNum));
 778:Generated_Source\PSoC6\pdl\drivers/peripheral/gpio/cy_gpio.h ****     
 779:Generated_Source\PSoC6\pdl\drivers/peripheral/gpio/cy_gpio.h ****     return (GPIO_PRT_IN(base) >> (pinNum)) & CY_GPIO_IN_MASK;
 780:Generated_Source\PSoC6\pdl\drivers/peripheral/gpio/cy_gpio.h **** }
 781:Generated_Source\PSoC6\pdl\drivers/peripheral/gpio/cy_gpio.h **** 
 782:Generated_Source\PSoC6\pdl\drivers/peripheral/gpio/cy_gpio.h **** 
 783:Generated_Source\PSoC6\pdl\drivers/peripheral/gpio/cy_gpio.h **** /*******************************************************************************
 784:Generated_Source\PSoC6\pdl\drivers/peripheral/gpio/cy_gpio.h **** * Function Name: Cy_GPIO_Write
 785:Generated_Source\PSoC6\pdl\drivers/peripheral/gpio/cy_gpio.h **** ****************************************************************************//**
 786:Generated_Source\PSoC6\pdl\drivers/peripheral/gpio/cy_gpio.h **** *
 787:Generated_Source\PSoC6\pdl\drivers/peripheral/gpio/cy_gpio.h **** * Write a logic 0 or logic 1 state to the output driver.
 788:Generated_Source\PSoC6\pdl\drivers/peripheral/gpio/cy_gpio.h **** *
 789:Generated_Source\PSoC6\pdl\drivers/peripheral/gpio/cy_gpio.h **** * This function should be used only for software driven pins. It does not have
 790:Generated_Source\PSoC6\pdl\drivers/peripheral/gpio/cy_gpio.h **** * any effect on peripheral driven pins.
 791:Generated_Source\PSoC6\pdl\drivers/peripheral/gpio/cy_gpio.h **** *
 792:Generated_Source\PSoC6\pdl\drivers/peripheral/gpio/cy_gpio.h **** * \param base
 793:Generated_Source\PSoC6\pdl\drivers/peripheral/gpio/cy_gpio.h **** * Pointer to the pin's port register base address
 794:Generated_Source\PSoC6\pdl\drivers/peripheral/gpio/cy_gpio.h **** *
ARM GAS  C:\Users\jlabe\AppData\Local\Temp\ccQBWUqN.s 			page 21


 795:Generated_Source\PSoC6\pdl\drivers/peripheral/gpio/cy_gpio.h **** * \param pinNum
 796:Generated_Source\PSoC6\pdl\drivers/peripheral/gpio/cy_gpio.h **** * Position of the pin bit-field within the port register
 797:Generated_Source\PSoC6\pdl\drivers/peripheral/gpio/cy_gpio.h **** *
 798:Generated_Source\PSoC6\pdl\drivers/peripheral/gpio/cy_gpio.h **** * \param value
 799:Generated_Source\PSoC6\pdl\drivers/peripheral/gpio/cy_gpio.h **** * Logic level to drive out on the pin
 800:Generated_Source\PSoC6\pdl\drivers/peripheral/gpio/cy_gpio.h **** *
 801:Generated_Source\PSoC6\pdl\drivers/peripheral/gpio/cy_gpio.h **** * \funcusage
 802:Generated_Source\PSoC6\pdl\drivers/peripheral/gpio/cy_gpio.h **** * \snippet gpio/gpio_v1_10_sut_01.cydsn/main_cm4.c snippet_Cy_GPIO_Write
 803:Generated_Source\PSoC6\pdl\drivers/peripheral/gpio/cy_gpio.h **** *
 804:Generated_Source\PSoC6\pdl\drivers/peripheral/gpio/cy_gpio.h **** *******************************************************************************/
 805:Generated_Source\PSoC6\pdl\drivers/peripheral/gpio/cy_gpio.h **** __STATIC_INLINE void Cy_GPIO_Write(GPIO_PRT_Type* base, uint32_t pinNum, uint32_t value)
 806:Generated_Source\PSoC6\pdl\drivers/peripheral/gpio/cy_gpio.h **** {
 807:Generated_Source\PSoC6\pdl\drivers/peripheral/gpio/cy_gpio.h ****     CY_ASSERT_L2(CY_GPIO_IS_PIN_VALID(pinNum));
 808:Generated_Source\PSoC6\pdl\drivers/peripheral/gpio/cy_gpio.h ****     CY_ASSERT_L2(CY_GPIO_IS_VALUE_VALID(value));
 809:Generated_Source\PSoC6\pdl\drivers/peripheral/gpio/cy_gpio.h **** 
 810:Generated_Source\PSoC6\pdl\drivers/peripheral/gpio/cy_gpio.h ****     /* Thread-safe: Directly access the pin registers instead of base->OUT */
 811:Generated_Source\PSoC6\pdl\drivers/peripheral/gpio/cy_gpio.h ****     if(0UL == value)
 812:Generated_Source\PSoC6\pdl\drivers/peripheral/gpio/cy_gpio.h ****     {
 813:Generated_Source\PSoC6\pdl\drivers/peripheral/gpio/cy_gpio.h ****         GPIO_PRT_OUT_CLR(base) = CY_GPIO_OUT_MASK << pinNum;
 814:Generated_Source\PSoC6\pdl\drivers/peripheral/gpio/cy_gpio.h ****     }
 815:Generated_Source\PSoC6\pdl\drivers/peripheral/gpio/cy_gpio.h ****     else
 816:Generated_Source\PSoC6\pdl\drivers/peripheral/gpio/cy_gpio.h ****     {
 817:Generated_Source\PSoC6\pdl\drivers/peripheral/gpio/cy_gpio.h ****         GPIO_PRT_OUT_SET(base) = CY_GPIO_OUT_MASK << pinNum;
 818:Generated_Source\PSoC6\pdl\drivers/peripheral/gpio/cy_gpio.h ****     }
 819:Generated_Source\PSoC6\pdl\drivers/peripheral/gpio/cy_gpio.h **** }
 820:Generated_Source\PSoC6\pdl\drivers/peripheral/gpio/cy_gpio.h **** 
 821:Generated_Source\PSoC6\pdl\drivers/peripheral/gpio/cy_gpio.h **** 
 822:Generated_Source\PSoC6\pdl\drivers/peripheral/gpio/cy_gpio.h **** /*******************************************************************************
 823:Generated_Source\PSoC6\pdl\drivers/peripheral/gpio/cy_gpio.h **** * Function Name: Cy_GPIO_ReadOut
 824:Generated_Source\PSoC6\pdl\drivers/peripheral/gpio/cy_gpio.h **** ****************************************************************************//**
 825:Generated_Source\PSoC6\pdl\drivers/peripheral/gpio/cy_gpio.h **** *
 826:Generated_Source\PSoC6\pdl\drivers/peripheral/gpio/cy_gpio.h **** * Reads the current logic level on the pin output driver.
 827:Generated_Source\PSoC6\pdl\drivers/peripheral/gpio/cy_gpio.h **** *
 828:Generated_Source\PSoC6\pdl\drivers/peripheral/gpio/cy_gpio.h **** * \param base
 829:Generated_Source\PSoC6\pdl\drivers/peripheral/gpio/cy_gpio.h **** * Pointer to the pin's port register base address
 830:Generated_Source\PSoC6\pdl\drivers/peripheral/gpio/cy_gpio.h **** *
 831:Generated_Source\PSoC6\pdl\drivers/peripheral/gpio/cy_gpio.h **** * \param pinNum
 832:Generated_Source\PSoC6\pdl\drivers/peripheral/gpio/cy_gpio.h **** * Position of the pin bit-field within the port register
 833:Generated_Source\PSoC6\pdl\drivers/peripheral/gpio/cy_gpio.h **** *
 834:Generated_Source\PSoC6\pdl\drivers/peripheral/gpio/cy_gpio.h **** * \return
 835:Generated_Source\PSoC6\pdl\drivers/peripheral/gpio/cy_gpio.h **** * Logic level on the pin output driver
 836:Generated_Source\PSoC6\pdl\drivers/peripheral/gpio/cy_gpio.h **** *
 837:Generated_Source\PSoC6\pdl\drivers/peripheral/gpio/cy_gpio.h **** * \funcusage
 838:Generated_Source\PSoC6\pdl\drivers/peripheral/gpio/cy_gpio.h **** * \snippet gpio/gpio_v1_10_sut_01.cydsn/main_cm4.c snippet_Cy_GPIO_ReadOut
 839:Generated_Source\PSoC6\pdl\drivers/peripheral/gpio/cy_gpio.h **** *
 840:Generated_Source\PSoC6\pdl\drivers/peripheral/gpio/cy_gpio.h **** *******************************************************************************/
 841:Generated_Source\PSoC6\pdl\drivers/peripheral/gpio/cy_gpio.h **** __STATIC_INLINE uint32_t Cy_GPIO_ReadOut(GPIO_PRT_Type* base, uint32_t pinNum)
 842:Generated_Source\PSoC6\pdl\drivers/peripheral/gpio/cy_gpio.h **** {
 843:Generated_Source\PSoC6\pdl\drivers/peripheral/gpio/cy_gpio.h ****     CY_ASSERT_L2(CY_GPIO_IS_PIN_VALID(pinNum));
 844:Generated_Source\PSoC6\pdl\drivers/peripheral/gpio/cy_gpio.h **** 
 845:Generated_Source\PSoC6\pdl\drivers/peripheral/gpio/cy_gpio.h ****     return (GPIO_PRT_OUT(base) >> pinNum) & CY_GPIO_OUT_MASK;
 846:Generated_Source\PSoC6\pdl\drivers/peripheral/gpio/cy_gpio.h **** }
 847:Generated_Source\PSoC6\pdl\drivers/peripheral/gpio/cy_gpio.h **** 
 848:Generated_Source\PSoC6\pdl\drivers/peripheral/gpio/cy_gpio.h **** 
 849:Generated_Source\PSoC6\pdl\drivers/peripheral/gpio/cy_gpio.h **** /*******************************************************************************
 850:Generated_Source\PSoC6\pdl\drivers/peripheral/gpio/cy_gpio.h **** * Function Name: Cy_GPIO_Set
 851:Generated_Source\PSoC6\pdl\drivers/peripheral/gpio/cy_gpio.h **** ****************************************************************************//**
ARM GAS  C:\Users\jlabe\AppData\Local\Temp\ccQBWUqN.s 			page 22


 852:Generated_Source\PSoC6\pdl\drivers/peripheral/gpio/cy_gpio.h **** *
 853:Generated_Source\PSoC6\pdl\drivers/peripheral/gpio/cy_gpio.h **** * Set a pin output to logic state high.
 854:Generated_Source\PSoC6\pdl\drivers/peripheral/gpio/cy_gpio.h **** *
 855:Generated_Source\PSoC6\pdl\drivers/peripheral/gpio/cy_gpio.h **** * This function should be used only for software driven pins. It does not have
 856:Generated_Source\PSoC6\pdl\drivers/peripheral/gpio/cy_gpio.h **** * any effect on peripheral driven pins.
 857:Generated_Source\PSoC6\pdl\drivers/peripheral/gpio/cy_gpio.h **** *
 858:Generated_Source\PSoC6\pdl\drivers/peripheral/gpio/cy_gpio.h **** * \param base
 859:Generated_Source\PSoC6\pdl\drivers/peripheral/gpio/cy_gpio.h **** * Pointer to the pin's port register base address
 860:Generated_Source\PSoC6\pdl\drivers/peripheral/gpio/cy_gpio.h **** *
 861:Generated_Source\PSoC6\pdl\drivers/peripheral/gpio/cy_gpio.h **** * \param pinNum
 862:Generated_Source\PSoC6\pdl\drivers/peripheral/gpio/cy_gpio.h **** * Position of the pin bit-field within the port register
 863:Generated_Source\PSoC6\pdl\drivers/peripheral/gpio/cy_gpio.h **** *
 864:Generated_Source\PSoC6\pdl\drivers/peripheral/gpio/cy_gpio.h **** * \funcusage
 865:Generated_Source\PSoC6\pdl\drivers/peripheral/gpio/cy_gpio.h **** * \snippet gpio/gpio_v1_10_sut_01.cydsn/main_cm4.c snippet_Cy_GPIO_Set
 866:Generated_Source\PSoC6\pdl\drivers/peripheral/gpio/cy_gpio.h **** *
 867:Generated_Source\PSoC6\pdl\drivers/peripheral/gpio/cy_gpio.h **** *******************************************************************************/
 868:Generated_Source\PSoC6\pdl\drivers/peripheral/gpio/cy_gpio.h **** __STATIC_INLINE void Cy_GPIO_Set(GPIO_PRT_Type* base, uint32_t pinNum)
 869:Generated_Source\PSoC6\pdl\drivers/peripheral/gpio/cy_gpio.h **** {
 870:Generated_Source\PSoC6\pdl\drivers/peripheral/gpio/cy_gpio.h ****     CY_ASSERT_L2(CY_GPIO_IS_PIN_VALID(pinNum));
 871:Generated_Source\PSoC6\pdl\drivers/peripheral/gpio/cy_gpio.h ****     
 872:Generated_Source\PSoC6\pdl\drivers/peripheral/gpio/cy_gpio.h ****     GPIO_PRT_OUT_SET(base) = CY_GPIO_OUT_MASK << pinNum;
 873:Generated_Source\PSoC6\pdl\drivers/peripheral/gpio/cy_gpio.h **** }
 874:Generated_Source\PSoC6\pdl\drivers/peripheral/gpio/cy_gpio.h **** 
 875:Generated_Source\PSoC6\pdl\drivers/peripheral/gpio/cy_gpio.h **** 
 876:Generated_Source\PSoC6\pdl\drivers/peripheral/gpio/cy_gpio.h **** /*******************************************************************************
 877:Generated_Source\PSoC6\pdl\drivers/peripheral/gpio/cy_gpio.h **** * Function Name: Cy_GPIO_Clr
 878:Generated_Source\PSoC6\pdl\drivers/peripheral/gpio/cy_gpio.h **** ****************************************************************************//**
 879:Generated_Source\PSoC6\pdl\drivers/peripheral/gpio/cy_gpio.h **** *
 880:Generated_Source\PSoC6\pdl\drivers/peripheral/gpio/cy_gpio.h **** * Set a pin output to logic state Low.
 881:Generated_Source\PSoC6\pdl\drivers/peripheral/gpio/cy_gpio.h **** *
 882:Generated_Source\PSoC6\pdl\drivers/peripheral/gpio/cy_gpio.h **** * This function should be used only for software driven pins. It does not have
 883:Generated_Source\PSoC6\pdl\drivers/peripheral/gpio/cy_gpio.h **** * any effect on peripheral driven pins.
 884:Generated_Source\PSoC6\pdl\drivers/peripheral/gpio/cy_gpio.h **** *
 885:Generated_Source\PSoC6\pdl\drivers/peripheral/gpio/cy_gpio.h **** * \param base
 886:Generated_Source\PSoC6\pdl\drivers/peripheral/gpio/cy_gpio.h **** * Pointer to the pin's port register base address
 887:Generated_Source\PSoC6\pdl\drivers/peripheral/gpio/cy_gpio.h **** *
 888:Generated_Source\PSoC6\pdl\drivers/peripheral/gpio/cy_gpio.h **** * \param pinNum
 889:Generated_Source\PSoC6\pdl\drivers/peripheral/gpio/cy_gpio.h **** * Position of the pin bit-field within the port register
 890:Generated_Source\PSoC6\pdl\drivers/peripheral/gpio/cy_gpio.h **** *
 891:Generated_Source\PSoC6\pdl\drivers/peripheral/gpio/cy_gpio.h **** * \funcusage
 892:Generated_Source\PSoC6\pdl\drivers/peripheral/gpio/cy_gpio.h **** * \snippet gpio/gpio_v1_10_sut_01.cydsn/main_cm4.c snippet_Cy_GPIO_Clr
 893:Generated_Source\PSoC6\pdl\drivers/peripheral/gpio/cy_gpio.h **** *
 894:Generated_Source\PSoC6\pdl\drivers/peripheral/gpio/cy_gpio.h **** *******************************************************************************/
 895:Generated_Source\PSoC6\pdl\drivers/peripheral/gpio/cy_gpio.h **** __STATIC_INLINE void Cy_GPIO_Clr(GPIO_PRT_Type* base, uint32_t pinNum)
 896:Generated_Source\PSoC6\pdl\drivers/peripheral/gpio/cy_gpio.h **** {
 897:Generated_Source\PSoC6\pdl\drivers/peripheral/gpio/cy_gpio.h ****     CY_ASSERT_L2(CY_GPIO_IS_PIN_VALID(pinNum));
 898:Generated_Source\PSoC6\pdl\drivers/peripheral/gpio/cy_gpio.h ****     
 899:Generated_Source\PSoC6\pdl\drivers/peripheral/gpio/cy_gpio.h ****     GPIO_PRT_OUT_CLR(base) = CY_GPIO_OUT_MASK << pinNum;
 900:Generated_Source\PSoC6\pdl\drivers/peripheral/gpio/cy_gpio.h **** }
 901:Generated_Source\PSoC6\pdl\drivers/peripheral/gpio/cy_gpio.h **** 
 902:Generated_Source\PSoC6\pdl\drivers/peripheral/gpio/cy_gpio.h **** 
 903:Generated_Source\PSoC6\pdl\drivers/peripheral/gpio/cy_gpio.h **** /*******************************************************************************
 904:Generated_Source\PSoC6\pdl\drivers/peripheral/gpio/cy_gpio.h **** * Function Name: Cy_GPIO_Inv
 905:Generated_Source\PSoC6\pdl\drivers/peripheral/gpio/cy_gpio.h **** ****************************************************************************//**
 906:Generated_Source\PSoC6\pdl\drivers/peripheral/gpio/cy_gpio.h **** *
 907:Generated_Source\PSoC6\pdl\drivers/peripheral/gpio/cy_gpio.h **** * Set a pin output logic state to the inverse of the current output
 908:Generated_Source\PSoC6\pdl\drivers/peripheral/gpio/cy_gpio.h **** * logic state.
ARM GAS  C:\Users\jlabe\AppData\Local\Temp\ccQBWUqN.s 			page 23


 909:Generated_Source\PSoC6\pdl\drivers/peripheral/gpio/cy_gpio.h **** *
 910:Generated_Source\PSoC6\pdl\drivers/peripheral/gpio/cy_gpio.h **** * This function should be used only for software driven pins. It does not have
 911:Generated_Source\PSoC6\pdl\drivers/peripheral/gpio/cy_gpio.h **** * any effect on peripheral driven pins.
 912:Generated_Source\PSoC6\pdl\drivers/peripheral/gpio/cy_gpio.h **** *
 913:Generated_Source\PSoC6\pdl\drivers/peripheral/gpio/cy_gpio.h **** * \param base
 914:Generated_Source\PSoC6\pdl\drivers/peripheral/gpio/cy_gpio.h **** * Pointer to the pin's port register base address
 915:Generated_Source\PSoC6\pdl\drivers/peripheral/gpio/cy_gpio.h **** *
 916:Generated_Source\PSoC6\pdl\drivers/peripheral/gpio/cy_gpio.h **** * \param pinNum
 917:Generated_Source\PSoC6\pdl\drivers/peripheral/gpio/cy_gpio.h **** * Position of the pin bit-field within the port register
 918:Generated_Source\PSoC6\pdl\drivers/peripheral/gpio/cy_gpio.h **** *
 919:Generated_Source\PSoC6\pdl\drivers/peripheral/gpio/cy_gpio.h **** * \funcusage
 920:Generated_Source\PSoC6\pdl\drivers/peripheral/gpio/cy_gpio.h **** * \snippet gpio/gpio_v1_10_sut_01.cydsn/main_cm4.c snippet_Cy_GPIO_Inv
 921:Generated_Source\PSoC6\pdl\drivers/peripheral/gpio/cy_gpio.h **** *
 922:Generated_Source\PSoC6\pdl\drivers/peripheral/gpio/cy_gpio.h **** *******************************************************************************/
 923:Generated_Source\PSoC6\pdl\drivers/peripheral/gpio/cy_gpio.h **** __STATIC_INLINE void Cy_GPIO_Inv(GPIO_PRT_Type* base, uint32_t pinNum)
 924:Generated_Source\PSoC6\pdl\drivers/peripheral/gpio/cy_gpio.h **** {
 925:Generated_Source\PSoC6\pdl\drivers/peripheral/gpio/cy_gpio.h ****     CY_ASSERT_L2(CY_GPIO_IS_PIN_VALID(pinNum));
 926:Generated_Source\PSoC6\pdl\drivers/peripheral/gpio/cy_gpio.h ****     
 927:Generated_Source\PSoC6\pdl\drivers/peripheral/gpio/cy_gpio.h ****     GPIO_PRT_OUT_INV(base) = CY_GPIO_OUT_MASK << pinNum;
 928:Generated_Source\PSoC6\pdl\drivers/peripheral/gpio/cy_gpio.h **** }
 929:Generated_Source\PSoC6\pdl\drivers/peripheral/gpio/cy_gpio.h **** 
 930:Generated_Source\PSoC6\pdl\drivers/peripheral/gpio/cy_gpio.h **** 
 931:Generated_Source\PSoC6\pdl\drivers/peripheral/gpio/cy_gpio.h **** /*******************************************************************************
 932:Generated_Source\PSoC6\pdl\drivers/peripheral/gpio/cy_gpio.h **** * Function Name: Cy_GPIO_SetDrivemode
 933:Generated_Source\PSoC6\pdl\drivers/peripheral/gpio/cy_gpio.h **** ****************************************************************************//**
 934:Generated_Source\PSoC6\pdl\drivers/peripheral/gpio/cy_gpio.h **** *
 935:Generated_Source\PSoC6\pdl\drivers/peripheral/gpio/cy_gpio.h **** * Configures the pin output buffer drive mode and input buffer enable.
 936:Generated_Source\PSoC6\pdl\drivers/peripheral/gpio/cy_gpio.h **** *
 937:Generated_Source\PSoC6\pdl\drivers/peripheral/gpio/cy_gpio.h **** * The output buffer drive mode and input buffer enable are combined into a single
 938:Generated_Source\PSoC6\pdl\drivers/peripheral/gpio/cy_gpio.h **** * parameter. The drive mode controls the behavior of the pin in general.
 939:Generated_Source\PSoC6\pdl\drivers/peripheral/gpio/cy_gpio.h **** * Enabling the input buffer allows the digital pin state to be read but also
 940:Generated_Source\PSoC6\pdl\drivers/peripheral/gpio/cy_gpio.h **** * contributes to extra current consumption.
 941:Generated_Source\PSoC6\pdl\drivers/peripheral/gpio/cy_gpio.h **** *
 942:Generated_Source\PSoC6\pdl\drivers/peripheral/gpio/cy_gpio.h **** * \param base
 943:Generated_Source\PSoC6\pdl\drivers/peripheral/gpio/cy_gpio.h **** * Pointer to the pin's port register base address
 944:Generated_Source\PSoC6\pdl\drivers/peripheral/gpio/cy_gpio.h **** *
 945:Generated_Source\PSoC6\pdl\drivers/peripheral/gpio/cy_gpio.h **** * \param pinNum
 946:Generated_Source\PSoC6\pdl\drivers/peripheral/gpio/cy_gpio.h **** * Position of the pin bit-field within the port register
 947:Generated_Source\PSoC6\pdl\drivers/peripheral/gpio/cy_gpio.h **** *
 948:Generated_Source\PSoC6\pdl\drivers/peripheral/gpio/cy_gpio.h **** * \param value
 949:Generated_Source\PSoC6\pdl\drivers/peripheral/gpio/cy_gpio.h **** * Pin drive mode. Options are detailed in \ref group_gpio_driveModes macros
 950:Generated_Source\PSoC6\pdl\drivers/peripheral/gpio/cy_gpio.h **** *
 951:Generated_Source\PSoC6\pdl\drivers/peripheral/gpio/cy_gpio.h **** * \note 
 952:Generated_Source\PSoC6\pdl\drivers/peripheral/gpio/cy_gpio.h **** * This function modifies a port register in a read-modify-write operation. It is
 953:Generated_Source\PSoC6\pdl\drivers/peripheral/gpio/cy_gpio.h **** * not thread safe as the resource is shared among multiple pins on a port.
 954:Generated_Source\PSoC6\pdl\drivers/peripheral/gpio/cy_gpio.h **** *
 955:Generated_Source\PSoC6\pdl\drivers/peripheral/gpio/cy_gpio.h **** * \funcusage
 956:Generated_Source\PSoC6\pdl\drivers/peripheral/gpio/cy_gpio.h **** * \snippet gpio/gpio_v1_10_sut_01.cydsn/main_cm4.c snippet_Cy_GPIO_SetDrivemode
 957:Generated_Source\PSoC6\pdl\drivers/peripheral/gpio/cy_gpio.h **** *
 958:Generated_Source\PSoC6\pdl\drivers/peripheral/gpio/cy_gpio.h **** *******************************************************************************/
 959:Generated_Source\PSoC6\pdl\drivers/peripheral/gpio/cy_gpio.h **** __STATIC_INLINE void Cy_GPIO_SetDrivemode(GPIO_PRT_Type* base, uint32_t pinNum, uint32_t value)
 960:Generated_Source\PSoC6\pdl\drivers/peripheral/gpio/cy_gpio.h **** {
 961:Generated_Source\PSoC6\pdl\drivers/peripheral/gpio/cy_gpio.h ****     uint32_t tempReg;
 962:Generated_Source\PSoC6\pdl\drivers/peripheral/gpio/cy_gpio.h ****     uint32_t pinLoc;
 963:Generated_Source\PSoC6\pdl\drivers/peripheral/gpio/cy_gpio.h **** 
 964:Generated_Source\PSoC6\pdl\drivers/peripheral/gpio/cy_gpio.h ****     CY_ASSERT_L2(CY_GPIO_IS_PIN_VALID(pinNum));
 965:Generated_Source\PSoC6\pdl\drivers/peripheral/gpio/cy_gpio.h ****     CY_ASSERT_L2(CY_GPIO_IS_DM_VALID(value));
ARM GAS  C:\Users\jlabe\AppData\Local\Temp\ccQBWUqN.s 			page 24


 966:Generated_Source\PSoC6\pdl\drivers/peripheral/gpio/cy_gpio.h **** 
 967:Generated_Source\PSoC6\pdl\drivers/peripheral/gpio/cy_gpio.h ****     pinLoc = pinNum << CY_GPIO_DRIVE_MODE_OFFSET;
 968:Generated_Source\PSoC6\pdl\drivers/peripheral/gpio/cy_gpio.h ****     tempReg = (GPIO_PRT_CFG(base) & ~(CY_GPIO_CFG_DM_MASK << pinLoc));
 969:Generated_Source\PSoC6\pdl\drivers/peripheral/gpio/cy_gpio.h ****     GPIO_PRT_CFG(base) = tempReg | ((value & CY_GPIO_CFG_DM_MASK) << pinLoc);
 970:Generated_Source\PSoC6\pdl\drivers/peripheral/gpio/cy_gpio.h **** }
 971:Generated_Source\PSoC6\pdl\drivers/peripheral/gpio/cy_gpio.h **** 
 972:Generated_Source\PSoC6\pdl\drivers/peripheral/gpio/cy_gpio.h **** 
 973:Generated_Source\PSoC6\pdl\drivers/peripheral/gpio/cy_gpio.h **** /*******************************************************************************
 974:Generated_Source\PSoC6\pdl\drivers/peripheral/gpio/cy_gpio.h **** * Function Name: Cy_GPIO_GetDrivemode
 975:Generated_Source\PSoC6\pdl\drivers/peripheral/gpio/cy_gpio.h **** ****************************************************************************//**
 976:Generated_Source\PSoC6\pdl\drivers/peripheral/gpio/cy_gpio.h **** *
 977:Generated_Source\PSoC6\pdl\drivers/peripheral/gpio/cy_gpio.h **** * Returns the pin output buffer drive mode and input buffer enable state.
 978:Generated_Source\PSoC6\pdl\drivers/peripheral/gpio/cy_gpio.h **** *
 979:Generated_Source\PSoC6\pdl\drivers/peripheral/gpio/cy_gpio.h **** * \param base
 980:Generated_Source\PSoC6\pdl\drivers/peripheral/gpio/cy_gpio.h **** * Pointer to the pin's port register base address
 981:Generated_Source\PSoC6\pdl\drivers/peripheral/gpio/cy_gpio.h **** *
 982:Generated_Source\PSoC6\pdl\drivers/peripheral/gpio/cy_gpio.h **** * \param pinNum
 983:Generated_Source\PSoC6\pdl\drivers/peripheral/gpio/cy_gpio.h **** * Position of the pin bit-field within the port register
 984:Generated_Source\PSoC6\pdl\drivers/peripheral/gpio/cy_gpio.h **** *
 985:Generated_Source\PSoC6\pdl\drivers/peripheral/gpio/cy_gpio.h **** * \return
 986:Generated_Source\PSoC6\pdl\drivers/peripheral/gpio/cy_gpio.h **** * Pin drive mode. Options are detailed in \ref group_gpio_driveModes macros
 987:Generated_Source\PSoC6\pdl\drivers/peripheral/gpio/cy_gpio.h **** *
 988:Generated_Source\PSoC6\pdl\drivers/peripheral/gpio/cy_gpio.h **** * \funcusage
 989:Generated_Source\PSoC6\pdl\drivers/peripheral/gpio/cy_gpio.h **** * \snippet gpio/gpio_v1_10_sut_01.cydsn/main_cm4.c snippet_Cy_GPIO_SetDrivemode
 990:Generated_Source\PSoC6\pdl\drivers/peripheral/gpio/cy_gpio.h **** *
 991:Generated_Source\PSoC6\pdl\drivers/peripheral/gpio/cy_gpio.h **** *******************************************************************************/
 992:Generated_Source\PSoC6\pdl\drivers/peripheral/gpio/cy_gpio.h **** __STATIC_INLINE uint32_t Cy_GPIO_GetDrivemode(GPIO_PRT_Type* base, uint32_t pinNum)
 993:Generated_Source\PSoC6\pdl\drivers/peripheral/gpio/cy_gpio.h **** {
 994:Generated_Source\PSoC6\pdl\drivers/peripheral/gpio/cy_gpio.h ****     CY_ASSERT_L2(CY_GPIO_IS_PIN_VALID(pinNum));
 995:Generated_Source\PSoC6\pdl\drivers/peripheral/gpio/cy_gpio.h ****     
 996:Generated_Source\PSoC6\pdl\drivers/peripheral/gpio/cy_gpio.h ****     return (GPIO_PRT_CFG(base) >> (pinNum << CY_GPIO_DRIVE_MODE_OFFSET)) & CY_GPIO_CFG_DM_MASK;
 997:Generated_Source\PSoC6\pdl\drivers/peripheral/gpio/cy_gpio.h **** }
 998:Generated_Source\PSoC6\pdl\drivers/peripheral/gpio/cy_gpio.h **** 
 999:Generated_Source\PSoC6\pdl\drivers/peripheral/gpio/cy_gpio.h **** 
1000:Generated_Source\PSoC6\pdl\drivers/peripheral/gpio/cy_gpio.h **** /*******************************************************************************
1001:Generated_Source\PSoC6\pdl\drivers/peripheral/gpio/cy_gpio.h **** * Function Name: Cy_GPIO_SetVtrip
1002:Generated_Source\PSoC6\pdl\drivers/peripheral/gpio/cy_gpio.h **** ****************************************************************************//**
1003:Generated_Source\PSoC6\pdl\drivers/peripheral/gpio/cy_gpio.h **** *
1004:Generated_Source\PSoC6\pdl\drivers/peripheral/gpio/cy_gpio.h **** * Configures the GPIO pin input buffer voltage threshold mode.
1005:Generated_Source\PSoC6\pdl\drivers/peripheral/gpio/cy_gpio.h **** *
1006:Generated_Source\PSoC6\pdl\drivers/peripheral/gpio/cy_gpio.h **** * \param base
1007:Generated_Source\PSoC6\pdl\drivers/peripheral/gpio/cy_gpio.h **** * Pointer to the pin's port register base address
1008:Generated_Source\PSoC6\pdl\drivers/peripheral/gpio/cy_gpio.h **** *
1009:Generated_Source\PSoC6\pdl\drivers/peripheral/gpio/cy_gpio.h **** * \param pinNum
1010:Generated_Source\PSoC6\pdl\drivers/peripheral/gpio/cy_gpio.h **** * Position of the pin bit-field within the port register
1011:Generated_Source\PSoC6\pdl\drivers/peripheral/gpio/cy_gpio.h **** *
1012:Generated_Source\PSoC6\pdl\drivers/peripheral/gpio/cy_gpio.h **** * \param value
1013:Generated_Source\PSoC6\pdl\drivers/peripheral/gpio/cy_gpio.h **** * Pin voltage threshold mode. Options are detailed in \ref group_gpio_vtrip macros
1014:Generated_Source\PSoC6\pdl\drivers/peripheral/gpio/cy_gpio.h **** *
1015:Generated_Source\PSoC6\pdl\drivers/peripheral/gpio/cy_gpio.h **** * \note 
1016:Generated_Source\PSoC6\pdl\drivers/peripheral/gpio/cy_gpio.h **** * This function modifies a port register in a read-modify-write operation. It is
1017:Generated_Source\PSoC6\pdl\drivers/peripheral/gpio/cy_gpio.h **** * not thread safe as the resource is shared among multiple pins on a port.
1018:Generated_Source\PSoC6\pdl\drivers/peripheral/gpio/cy_gpio.h **** *
1019:Generated_Source\PSoC6\pdl\drivers/peripheral/gpio/cy_gpio.h **** * \funcusage
1020:Generated_Source\PSoC6\pdl\drivers/peripheral/gpio/cy_gpio.h **** * \snippet gpio/gpio_v1_10_sut_01.cydsn/main_cm4.c snippet_Cy_GPIO_SetVtrip
1021:Generated_Source\PSoC6\pdl\drivers/peripheral/gpio/cy_gpio.h **** *
1022:Generated_Source\PSoC6\pdl\drivers/peripheral/gpio/cy_gpio.h **** *******************************************************************************/
ARM GAS  C:\Users\jlabe\AppData\Local\Temp\ccQBWUqN.s 			page 25


1023:Generated_Source\PSoC6\pdl\drivers/peripheral/gpio/cy_gpio.h **** __STATIC_INLINE void Cy_GPIO_SetVtrip(GPIO_PRT_Type* base, uint32_t pinNum, uint32_t value)
1024:Generated_Source\PSoC6\pdl\drivers/peripheral/gpio/cy_gpio.h **** {
1025:Generated_Source\PSoC6\pdl\drivers/peripheral/gpio/cy_gpio.h ****     uint32_t tempReg;
1026:Generated_Source\PSoC6\pdl\drivers/peripheral/gpio/cy_gpio.h **** 
1027:Generated_Source\PSoC6\pdl\drivers/peripheral/gpio/cy_gpio.h ****     CY_ASSERT_L2(CY_GPIO_IS_PIN_VALID(pinNum));
1028:Generated_Source\PSoC6\pdl\drivers/peripheral/gpio/cy_gpio.h ****     CY_ASSERT_L2(CY_GPIO_IS_VALUE_VALID(value));
1029:Generated_Source\PSoC6\pdl\drivers/peripheral/gpio/cy_gpio.h **** 
1030:Generated_Source\PSoC6\pdl\drivers/peripheral/gpio/cy_gpio.h ****     tempReg = GPIO_PRT_CFG_IN(base) & ~(CY_GPIO_CFG_IN_VTRIP_SEL_MASK << pinNum);
1031:Generated_Source\PSoC6\pdl\drivers/peripheral/gpio/cy_gpio.h ****     GPIO_PRT_CFG_IN(base) = tempReg | ((value & CY_GPIO_CFG_IN_VTRIP_SEL_MASK) << pinNum);
1032:Generated_Source\PSoC6\pdl\drivers/peripheral/gpio/cy_gpio.h **** }
1033:Generated_Source\PSoC6\pdl\drivers/peripheral/gpio/cy_gpio.h **** 
1034:Generated_Source\PSoC6\pdl\drivers/peripheral/gpio/cy_gpio.h **** 
1035:Generated_Source\PSoC6\pdl\drivers/peripheral/gpio/cy_gpio.h **** /*******************************************************************************
1036:Generated_Source\PSoC6\pdl\drivers/peripheral/gpio/cy_gpio.h **** * Function Name: Cy_GPIO_GetVtrip
1037:Generated_Source\PSoC6\pdl\drivers/peripheral/gpio/cy_gpio.h **** ****************************************************************************//**
1038:Generated_Source\PSoC6\pdl\drivers/peripheral/gpio/cy_gpio.h **** *
1039:Generated_Source\PSoC6\pdl\drivers/peripheral/gpio/cy_gpio.h **** * Returns the pin input buffer voltage threshold mode.
1040:Generated_Source\PSoC6\pdl\drivers/peripheral/gpio/cy_gpio.h **** *
1041:Generated_Source\PSoC6\pdl\drivers/peripheral/gpio/cy_gpio.h **** * \param base
1042:Generated_Source\PSoC6\pdl\drivers/peripheral/gpio/cy_gpio.h **** * Pointer to the pin's port register base address
1043:Generated_Source\PSoC6\pdl\drivers/peripheral/gpio/cy_gpio.h **** *
1044:Generated_Source\PSoC6\pdl\drivers/peripheral/gpio/cy_gpio.h **** * \param pinNum
1045:Generated_Source\PSoC6\pdl\drivers/peripheral/gpio/cy_gpio.h **** * Position of the pin bit-field within the port register
1046:Generated_Source\PSoC6\pdl\drivers/peripheral/gpio/cy_gpio.h **** *
1047:Generated_Source\PSoC6\pdl\drivers/peripheral/gpio/cy_gpio.h **** * \return
1048:Generated_Source\PSoC6\pdl\drivers/peripheral/gpio/cy_gpio.h **** * Pin voltage threshold mode. Options are detailed in \ref group_gpio_vtrip macros
1049:Generated_Source\PSoC6\pdl\drivers/peripheral/gpio/cy_gpio.h **** *
1050:Generated_Source\PSoC6\pdl\drivers/peripheral/gpio/cy_gpio.h **** * \funcusage
1051:Generated_Source\PSoC6\pdl\drivers/peripheral/gpio/cy_gpio.h **** * \snippet gpio/gpio_v1_10_sut_01.cydsn/main_cm4.c snippet_Cy_GPIO_SetVtrip
1052:Generated_Source\PSoC6\pdl\drivers/peripheral/gpio/cy_gpio.h **** *
1053:Generated_Source\PSoC6\pdl\drivers/peripheral/gpio/cy_gpio.h **** *******************************************************************************/
1054:Generated_Source\PSoC6\pdl\drivers/peripheral/gpio/cy_gpio.h **** __STATIC_INLINE uint32_t Cy_GPIO_GetVtrip(GPIO_PRT_Type* base, uint32_t pinNum)
1055:Generated_Source\PSoC6\pdl\drivers/peripheral/gpio/cy_gpio.h **** {
1056:Generated_Source\PSoC6\pdl\drivers/peripheral/gpio/cy_gpio.h ****     CY_ASSERT_L2(CY_GPIO_IS_PIN_VALID(pinNum));
1057:Generated_Source\PSoC6\pdl\drivers/peripheral/gpio/cy_gpio.h ****     
1058:Generated_Source\PSoC6\pdl\drivers/peripheral/gpio/cy_gpio.h ****     return (GPIO_PRT_CFG_IN(base) >> pinNum) & CY_GPIO_CFG_IN_VTRIP_SEL_MASK;
1059:Generated_Source\PSoC6\pdl\drivers/peripheral/gpio/cy_gpio.h **** }
1060:Generated_Source\PSoC6\pdl\drivers/peripheral/gpio/cy_gpio.h **** 
1061:Generated_Source\PSoC6\pdl\drivers/peripheral/gpio/cy_gpio.h **** 
1062:Generated_Source\PSoC6\pdl\drivers/peripheral/gpio/cy_gpio.h **** /*******************************************************************************
1063:Generated_Source\PSoC6\pdl\drivers/peripheral/gpio/cy_gpio.h **** * Function Name: Cy_GPIO_SetSlewRate
1064:Generated_Source\PSoC6\pdl\drivers/peripheral/gpio/cy_gpio.h **** ****************************************************************************//**
1065:Generated_Source\PSoC6\pdl\drivers/peripheral/gpio/cy_gpio.h **** *
1066:Generated_Source\PSoC6\pdl\drivers/peripheral/gpio/cy_gpio.h **** * Configures the pin output buffer slew rate.
1067:Generated_Source\PSoC6\pdl\drivers/peripheral/gpio/cy_gpio.h **** *
1068:Generated_Source\PSoC6\pdl\drivers/peripheral/gpio/cy_gpio.h **** * \note 
1069:Generated_Source\PSoC6\pdl\drivers/peripheral/gpio/cy_gpio.h **** * This function has no effect for the GPIO ports, where the slew rate
1070:Generated_Source\PSoC6\pdl\drivers/peripheral/gpio/cy_gpio.h **** * configuration is not available. Refer to device datasheet for details.
1071:Generated_Source\PSoC6\pdl\drivers/peripheral/gpio/cy_gpio.h **** *
1072:Generated_Source\PSoC6\pdl\drivers/peripheral/gpio/cy_gpio.h **** * \param base
1073:Generated_Source\PSoC6\pdl\drivers/peripheral/gpio/cy_gpio.h **** * Pointer to the pin's port register base address
1074:Generated_Source\PSoC6\pdl\drivers/peripheral/gpio/cy_gpio.h **** *
1075:Generated_Source\PSoC6\pdl\drivers/peripheral/gpio/cy_gpio.h **** * \param pinNum
1076:Generated_Source\PSoC6\pdl\drivers/peripheral/gpio/cy_gpio.h **** * Position of the pin bit-field within the port register
1077:Generated_Source\PSoC6\pdl\drivers/peripheral/gpio/cy_gpio.h **** *
1078:Generated_Source\PSoC6\pdl\drivers/peripheral/gpio/cy_gpio.h **** * \param value
1079:Generated_Source\PSoC6\pdl\drivers/peripheral/gpio/cy_gpio.h **** * Pin slew rate. Options are detailed in \ref group_gpio_slewRate macros
ARM GAS  C:\Users\jlabe\AppData\Local\Temp\ccQBWUqN.s 			page 26


1080:Generated_Source\PSoC6\pdl\drivers/peripheral/gpio/cy_gpio.h **** *
1081:Generated_Source\PSoC6\pdl\drivers/peripheral/gpio/cy_gpio.h **** * \note 
1082:Generated_Source\PSoC6\pdl\drivers/peripheral/gpio/cy_gpio.h **** * This function modifies a port register in a read-modify-write operation. It is
1083:Generated_Source\PSoC6\pdl\drivers/peripheral/gpio/cy_gpio.h **** * not thread safe as the resource is shared among multiple pins on a port.
1084:Generated_Source\PSoC6\pdl\drivers/peripheral/gpio/cy_gpio.h **** *
1085:Generated_Source\PSoC6\pdl\drivers/peripheral/gpio/cy_gpio.h **** * \funcusage
1086:Generated_Source\PSoC6\pdl\drivers/peripheral/gpio/cy_gpio.h **** * \snippet gpio/gpio_v1_10_sut_01.cydsn/main_cm4.c snippet_Cy_GPIO_SetSlewRate
1087:Generated_Source\PSoC6\pdl\drivers/peripheral/gpio/cy_gpio.h **** *
1088:Generated_Source\PSoC6\pdl\drivers/peripheral/gpio/cy_gpio.h **** *******************************************************************************/
1089:Generated_Source\PSoC6\pdl\drivers/peripheral/gpio/cy_gpio.h **** __STATIC_INLINE void Cy_GPIO_SetSlewRate(GPIO_PRT_Type* base, uint32_t pinNum, uint32_t value)
1090:Generated_Source\PSoC6\pdl\drivers/peripheral/gpio/cy_gpio.h **** {
1091:Generated_Source\PSoC6\pdl\drivers/peripheral/gpio/cy_gpio.h ****     uint32_t tempReg;
1092:Generated_Source\PSoC6\pdl\drivers/peripheral/gpio/cy_gpio.h **** 
1093:Generated_Source\PSoC6\pdl\drivers/peripheral/gpio/cy_gpio.h ****     CY_ASSERT_L2(CY_GPIO_IS_PIN_VALID(pinNum));
1094:Generated_Source\PSoC6\pdl\drivers/peripheral/gpio/cy_gpio.h ****     CY_ASSERT_L2(CY_GPIO_IS_VALUE_VALID(value));
1095:Generated_Source\PSoC6\pdl\drivers/peripheral/gpio/cy_gpio.h **** 
1096:Generated_Source\PSoC6\pdl\drivers/peripheral/gpio/cy_gpio.h ****     tempReg = GPIO_PRT_CFG_OUT(base) & ~(CY_GPIO_CFG_OUT_SLOW_MASK << pinNum);
1097:Generated_Source\PSoC6\pdl\drivers/peripheral/gpio/cy_gpio.h ****     GPIO_PRT_CFG_OUT(base) = tempReg | ((value & CY_GPIO_CFG_OUT_SLOW_MASK) << pinNum);
1098:Generated_Source\PSoC6\pdl\drivers/peripheral/gpio/cy_gpio.h **** }
1099:Generated_Source\PSoC6\pdl\drivers/peripheral/gpio/cy_gpio.h **** 
1100:Generated_Source\PSoC6\pdl\drivers/peripheral/gpio/cy_gpio.h **** 
1101:Generated_Source\PSoC6\pdl\drivers/peripheral/gpio/cy_gpio.h **** /*******************************************************************************
1102:Generated_Source\PSoC6\pdl\drivers/peripheral/gpio/cy_gpio.h **** * Function Name: Cy_GPIO_GetSlewRate
1103:Generated_Source\PSoC6\pdl\drivers/peripheral/gpio/cy_gpio.h **** ****************************************************************************//**
1104:Generated_Source\PSoC6\pdl\drivers/peripheral/gpio/cy_gpio.h **** *
1105:Generated_Source\PSoC6\pdl\drivers/peripheral/gpio/cy_gpio.h **** * Returns the pin output buffer slew rate.
1106:Generated_Source\PSoC6\pdl\drivers/peripheral/gpio/cy_gpio.h **** *
1107:Generated_Source\PSoC6\pdl\drivers/peripheral/gpio/cy_gpio.h **** * \param base
1108:Generated_Source\PSoC6\pdl\drivers/peripheral/gpio/cy_gpio.h **** * Pointer to the pin's port register base address
1109:Generated_Source\PSoC6\pdl\drivers/peripheral/gpio/cy_gpio.h **** *
1110:Generated_Source\PSoC6\pdl\drivers/peripheral/gpio/cy_gpio.h **** * \param pinNum
1111:Generated_Source\PSoC6\pdl\drivers/peripheral/gpio/cy_gpio.h **** * Position of the pin bit-field within the port register
1112:Generated_Source\PSoC6\pdl\drivers/peripheral/gpio/cy_gpio.h **** *
1113:Generated_Source\PSoC6\pdl\drivers/peripheral/gpio/cy_gpio.h **** * \return
1114:Generated_Source\PSoC6\pdl\drivers/peripheral/gpio/cy_gpio.h **** * Pin slew rate. Options are detailed in \ref group_gpio_slewRate macros
1115:Generated_Source\PSoC6\pdl\drivers/peripheral/gpio/cy_gpio.h **** *
1116:Generated_Source\PSoC6\pdl\drivers/peripheral/gpio/cy_gpio.h **** * \funcusage
1117:Generated_Source\PSoC6\pdl\drivers/peripheral/gpio/cy_gpio.h **** * \snippet gpio/gpio_v1_10_sut_01.cydsn/main_cm4.c snippet_Cy_GPIO_SetSlewRate
1118:Generated_Source\PSoC6\pdl\drivers/peripheral/gpio/cy_gpio.h **** *
1119:Generated_Source\PSoC6\pdl\drivers/peripheral/gpio/cy_gpio.h **** *******************************************************************************/
1120:Generated_Source\PSoC6\pdl\drivers/peripheral/gpio/cy_gpio.h **** __STATIC_INLINE uint32_t Cy_GPIO_GetSlewRate(GPIO_PRT_Type* base, uint32_t pinNum)
1121:Generated_Source\PSoC6\pdl\drivers/peripheral/gpio/cy_gpio.h **** {
1122:Generated_Source\PSoC6\pdl\drivers/peripheral/gpio/cy_gpio.h ****     CY_ASSERT_L2(CY_GPIO_IS_PIN_VALID(pinNum));
1123:Generated_Source\PSoC6\pdl\drivers/peripheral/gpio/cy_gpio.h **** 
1124:Generated_Source\PSoC6\pdl\drivers/peripheral/gpio/cy_gpio.h ****     return (GPIO_PRT_CFG_OUT(base) >> pinNum) & CY_GPIO_CFG_OUT_SLOW_MASK;
1125:Generated_Source\PSoC6\pdl\drivers/peripheral/gpio/cy_gpio.h **** }
1126:Generated_Source\PSoC6\pdl\drivers/peripheral/gpio/cy_gpio.h **** 
1127:Generated_Source\PSoC6\pdl\drivers/peripheral/gpio/cy_gpio.h **** 
1128:Generated_Source\PSoC6\pdl\drivers/peripheral/gpio/cy_gpio.h **** /*******************************************************************************
1129:Generated_Source\PSoC6\pdl\drivers/peripheral/gpio/cy_gpio.h **** * Function Name: Cy_GPIO_SetDriveSel
1130:Generated_Source\PSoC6\pdl\drivers/peripheral/gpio/cy_gpio.h **** ****************************************************************************//**
1131:Generated_Source\PSoC6\pdl\drivers/peripheral/gpio/cy_gpio.h **** *
1132:Generated_Source\PSoC6\pdl\drivers/peripheral/gpio/cy_gpio.h **** * Configures the pin output buffer drive strength.
1133:Generated_Source\PSoC6\pdl\drivers/peripheral/gpio/cy_gpio.h **** *
1134:Generated_Source\PSoC6\pdl\drivers/peripheral/gpio/cy_gpio.h **** * \param base
1135:Generated_Source\PSoC6\pdl\drivers/peripheral/gpio/cy_gpio.h **** * Pointer to the pin's port register base address
1136:Generated_Source\PSoC6\pdl\drivers/peripheral/gpio/cy_gpio.h **** *
ARM GAS  C:\Users\jlabe\AppData\Local\Temp\ccQBWUqN.s 			page 27


1137:Generated_Source\PSoC6\pdl\drivers/peripheral/gpio/cy_gpio.h **** * \param pinNum
1138:Generated_Source\PSoC6\pdl\drivers/peripheral/gpio/cy_gpio.h **** * Position of the pin bit-field within the port register
1139:Generated_Source\PSoC6\pdl\drivers/peripheral/gpio/cy_gpio.h **** *
1140:Generated_Source\PSoC6\pdl\drivers/peripheral/gpio/cy_gpio.h **** * \param value
1141:Generated_Source\PSoC6\pdl\drivers/peripheral/gpio/cy_gpio.h **** * Pin drive strength. Options are detailed in \ref group_gpio_driveStrength macros
1142:Generated_Source\PSoC6\pdl\drivers/peripheral/gpio/cy_gpio.h **** *
1143:Generated_Source\PSoC6\pdl\drivers/peripheral/gpio/cy_gpio.h **** * \note 
1144:Generated_Source\PSoC6\pdl\drivers/peripheral/gpio/cy_gpio.h **** * This function modifies a port register in a read-modify-write operation. It is
1145:Generated_Source\PSoC6\pdl\drivers/peripheral/gpio/cy_gpio.h **** * not thread safe as the resource is shared among multiple pins on a port.
1146:Generated_Source\PSoC6\pdl\drivers/peripheral/gpio/cy_gpio.h **** *
1147:Generated_Source\PSoC6\pdl\drivers/peripheral/gpio/cy_gpio.h **** * \funcusage
1148:Generated_Source\PSoC6\pdl\drivers/peripheral/gpio/cy_gpio.h **** * \snippet gpio/gpio_v1_10_sut_01.cydsn/main_cm4.c snippet_Cy_GPIO_SetDriveSel
1149:Generated_Source\PSoC6\pdl\drivers/peripheral/gpio/cy_gpio.h **** *
1150:Generated_Source\PSoC6\pdl\drivers/peripheral/gpio/cy_gpio.h **** *******************************************************************************/
1151:Generated_Source\PSoC6\pdl\drivers/peripheral/gpio/cy_gpio.h **** __STATIC_INLINE void Cy_GPIO_SetDriveSel(GPIO_PRT_Type* base, uint32_t pinNum, uint32_t value)
1152:Generated_Source\PSoC6\pdl\drivers/peripheral/gpio/cy_gpio.h **** {
1153:Generated_Source\PSoC6\pdl\drivers/peripheral/gpio/cy_gpio.h ****     uint32_t tempReg;
1154:Generated_Source\PSoC6\pdl\drivers/peripheral/gpio/cy_gpio.h ****     uint32_t pinLoc;
1155:Generated_Source\PSoC6\pdl\drivers/peripheral/gpio/cy_gpio.h **** 
1156:Generated_Source\PSoC6\pdl\drivers/peripheral/gpio/cy_gpio.h ****     CY_ASSERT_L2(CY_GPIO_IS_PIN_VALID(pinNum));
1157:Generated_Source\PSoC6\pdl\drivers/peripheral/gpio/cy_gpio.h ****     CY_ASSERT_L2(CY_GPIO_IS_DRIVE_SEL_VALID(value));
1158:Generated_Source\PSoC6\pdl\drivers/peripheral/gpio/cy_gpio.h ****     
1159:Generated_Source\PSoC6\pdl\drivers/peripheral/gpio/cy_gpio.h ****     pinLoc = (uint32_t)(pinNum << 1u) + CY_GPIO_CFG_OUT_DRIVE_OFFSET;
1160:Generated_Source\PSoC6\pdl\drivers/peripheral/gpio/cy_gpio.h ****     tempReg = GPIO_PRT_CFG_OUT(base) & ~(CY_GPIO_CFG_OUT_DRIVE_SEL_MASK << pinLoc);
1161:Generated_Source\PSoC6\pdl\drivers/peripheral/gpio/cy_gpio.h ****     GPIO_PRT_CFG_OUT(base) = tempReg | ((value & CY_GPIO_CFG_OUT_DRIVE_SEL_MASK) << pinLoc);
1162:Generated_Source\PSoC6\pdl\drivers/peripheral/gpio/cy_gpio.h **** }
1163:Generated_Source\PSoC6\pdl\drivers/peripheral/gpio/cy_gpio.h **** 
1164:Generated_Source\PSoC6\pdl\drivers/peripheral/gpio/cy_gpio.h **** 
1165:Generated_Source\PSoC6\pdl\drivers/peripheral/gpio/cy_gpio.h **** /*******************************************************************************
1166:Generated_Source\PSoC6\pdl\drivers/peripheral/gpio/cy_gpio.h **** * Function Name: Cy_GPIO_GetDriveSel
1167:Generated_Source\PSoC6\pdl\drivers/peripheral/gpio/cy_gpio.h **** ****************************************************************************//**
1168:Generated_Source\PSoC6\pdl\drivers/peripheral/gpio/cy_gpio.h **** *
1169:Generated_Source\PSoC6\pdl\drivers/peripheral/gpio/cy_gpio.h **** * Returns the pin output buffer drive strength.
1170:Generated_Source\PSoC6\pdl\drivers/peripheral/gpio/cy_gpio.h **** *
1171:Generated_Source\PSoC6\pdl\drivers/peripheral/gpio/cy_gpio.h **** * \param base
1172:Generated_Source\PSoC6\pdl\drivers/peripheral/gpio/cy_gpio.h **** * Pointer to the pin's port register base address
1173:Generated_Source\PSoC6\pdl\drivers/peripheral/gpio/cy_gpio.h **** *
1174:Generated_Source\PSoC6\pdl\drivers/peripheral/gpio/cy_gpio.h **** * \param pinNum
1175:Generated_Source\PSoC6\pdl\drivers/peripheral/gpio/cy_gpio.h **** * Position of the pin bit-field within the port register
1176:Generated_Source\PSoC6\pdl\drivers/peripheral/gpio/cy_gpio.h **** *
1177:Generated_Source\PSoC6\pdl\drivers/peripheral/gpio/cy_gpio.h **** * \return
1178:Generated_Source\PSoC6\pdl\drivers/peripheral/gpio/cy_gpio.h **** * Pin drive strength. Options are detailed in \ref group_gpio_driveStrength macros
1179:Generated_Source\PSoC6\pdl\drivers/peripheral/gpio/cy_gpio.h **** *
1180:Generated_Source\PSoC6\pdl\drivers/peripheral/gpio/cy_gpio.h **** * \funcusage
1181:Generated_Source\PSoC6\pdl\drivers/peripheral/gpio/cy_gpio.h **** * \snippet gpio/gpio_v1_10_sut_01.cydsn/main_cm4.c snippet_Cy_GPIO_SetDriveSel
1182:Generated_Source\PSoC6\pdl\drivers/peripheral/gpio/cy_gpio.h **** *
1183:Generated_Source\PSoC6\pdl\drivers/peripheral/gpio/cy_gpio.h **** *******************************************************************************/
1184:Generated_Source\PSoC6\pdl\drivers/peripheral/gpio/cy_gpio.h **** __STATIC_INLINE uint32_t Cy_GPIO_GetDriveSel(GPIO_PRT_Type* base, uint32_t pinNum)
1185:Generated_Source\PSoC6\pdl\drivers/peripheral/gpio/cy_gpio.h **** {
1186:Generated_Source\PSoC6\pdl\drivers/peripheral/gpio/cy_gpio.h ****     CY_ASSERT_L2(CY_GPIO_IS_PIN_VALID(pinNum));
1187:Generated_Source\PSoC6\pdl\drivers/peripheral/gpio/cy_gpio.h **** 
1188:Generated_Source\PSoC6\pdl\drivers/peripheral/gpio/cy_gpio.h ****     return ((GPIO_PRT_CFG_OUT(base) >> ((uint32_t)(pinNum << 1u) + CY_GPIO_CFG_OUT_DRIVE_OFFSET)) 
1189:Generated_Source\PSoC6\pdl\drivers/peripheral/gpio/cy_gpio.h ****             & CY_GPIO_CFG_OUT_DRIVE_SEL_MASK);
1190:Generated_Source\PSoC6\pdl\drivers/peripheral/gpio/cy_gpio.h **** }
1191:Generated_Source\PSoC6\pdl\drivers/peripheral/gpio/cy_gpio.h **** 
1192:Generated_Source\PSoC6\pdl\drivers/peripheral/gpio/cy_gpio.h **** /** \} group_gpio_functions_gpio */
1193:Generated_Source\PSoC6\pdl\drivers/peripheral/gpio/cy_gpio.h **** 
ARM GAS  C:\Users\jlabe\AppData\Local\Temp\ccQBWUqN.s 			page 28


1194:Generated_Source\PSoC6\pdl\drivers/peripheral/gpio/cy_gpio.h **** /**
1195:Generated_Source\PSoC6\pdl\drivers/peripheral/gpio/cy_gpio.h **** * \addtogroup group_gpio_functions_sio
1196:Generated_Source\PSoC6\pdl\drivers/peripheral/gpio/cy_gpio.h **** * \{
1197:Generated_Source\PSoC6\pdl\drivers/peripheral/gpio/cy_gpio.h **** */
1198:Generated_Source\PSoC6\pdl\drivers/peripheral/gpio/cy_gpio.h **** 
1199:Generated_Source\PSoC6\pdl\drivers/peripheral/gpio/cy_gpio.h **** /*******************************************************************************
1200:Generated_Source\PSoC6\pdl\drivers/peripheral/gpio/cy_gpio.h **** * Function Name: Cy_GPIO_SetVregEn
1201:Generated_Source\PSoC6\pdl\drivers/peripheral/gpio/cy_gpio.h **** ****************************************************************************//**
1202:Generated_Source\PSoC6\pdl\drivers/peripheral/gpio/cy_gpio.h **** *
1203:Generated_Source\PSoC6\pdl\drivers/peripheral/gpio/cy_gpio.h **** * Configures the SIO pin pair output buffer regulation mode.
1204:Generated_Source\PSoC6\pdl\drivers/peripheral/gpio/cy_gpio.h **** *
1205:Generated_Source\PSoC6\pdl\drivers/peripheral/gpio/cy_gpio.h **** * Note that this function has no effect on non-SIO pins.
1206:Generated_Source\PSoC6\pdl\drivers/peripheral/gpio/cy_gpio.h **** *
1207:Generated_Source\PSoC6\pdl\drivers/peripheral/gpio/cy_gpio.h **** * \param base
1208:Generated_Source\PSoC6\pdl\drivers/peripheral/gpio/cy_gpio.h **** * Pointer to the pin's port register base address
1209:Generated_Source\PSoC6\pdl\drivers/peripheral/gpio/cy_gpio.h **** *
1210:Generated_Source\PSoC6\pdl\drivers/peripheral/gpio/cy_gpio.h **** * \param pinNum
1211:Generated_Source\PSoC6\pdl\drivers/peripheral/gpio/cy_gpio.h **** * Position of the pin bit-field within the port register
1212:Generated_Source\PSoC6\pdl\drivers/peripheral/gpio/cy_gpio.h **** *
1213:Generated_Source\PSoC6\pdl\drivers/peripheral/gpio/cy_gpio.h **** * \param value
1214:Generated_Source\PSoC6\pdl\drivers/peripheral/gpio/cy_gpio.h **** * SIO pair output buffer regulator mode. Options are detailed in \ref group_gpio_sioVreg macros
1215:Generated_Source\PSoC6\pdl\drivers/peripheral/gpio/cy_gpio.h **** *
1216:Generated_Source\PSoC6\pdl\drivers/peripheral/gpio/cy_gpio.h **** * \note 
1217:Generated_Source\PSoC6\pdl\drivers/peripheral/gpio/cy_gpio.h **** * This function modifies a port register in a read-modify-write operation. It is
1218:Generated_Source\PSoC6\pdl\drivers/peripheral/gpio/cy_gpio.h **** * not thread safe as the resource is shared among multiple pins on a port.
1219:Generated_Source\PSoC6\pdl\drivers/peripheral/gpio/cy_gpio.h **** *
1220:Generated_Source\PSoC6\pdl\drivers/peripheral/gpio/cy_gpio.h **** * \funcusage
1221:Generated_Source\PSoC6\pdl\drivers/peripheral/gpio/cy_gpio.h **** * \snippet gpio/gpio_v1_10_sut_01.cydsn/main_cm4.c snippet_Cy_GPIO_SetVregEn
1222:Generated_Source\PSoC6\pdl\drivers/peripheral/gpio/cy_gpio.h **** *
1223:Generated_Source\PSoC6\pdl\drivers/peripheral/gpio/cy_gpio.h **** *******************************************************************************/
1224:Generated_Source\PSoC6\pdl\drivers/peripheral/gpio/cy_gpio.h **** __STATIC_INLINE void Cy_GPIO_SetVregEn(GPIO_PRT_Type* base, uint32_t pinNum, uint32_t value)
1225:Generated_Source\PSoC6\pdl\drivers/peripheral/gpio/cy_gpio.h **** {
1226:Generated_Source\PSoC6\pdl\drivers/peripheral/gpio/cy_gpio.h ****     uint32_t tempReg;
1227:Generated_Source\PSoC6\pdl\drivers/peripheral/gpio/cy_gpio.h ****     uint32_t pinLoc;
1228:Generated_Source\PSoC6\pdl\drivers/peripheral/gpio/cy_gpio.h **** 
1229:Generated_Source\PSoC6\pdl\drivers/peripheral/gpio/cy_gpio.h ****     CY_ASSERT_L2(CY_GPIO_IS_PIN_VALID(pinNum));
1230:Generated_Source\PSoC6\pdl\drivers/peripheral/gpio/cy_gpio.h ****     CY_ASSERT_L2(CY_GPIO_IS_VALUE_VALID(value));
1231:Generated_Source\PSoC6\pdl\drivers/peripheral/gpio/cy_gpio.h **** 
1232:Generated_Source\PSoC6\pdl\drivers/peripheral/gpio/cy_gpio.h ****     pinLoc = (pinNum & CY_GPIO_SIO_ODD_PIN_MASK) << CY_GPIO_CFG_SIO_OFFSET;
1233:Generated_Source\PSoC6\pdl\drivers/peripheral/gpio/cy_gpio.h ****     tempReg = GPIO_PRT_CFG_SIO(base) & ~(CY_GPIO_VREG_EN_MASK << pinLoc);
1234:Generated_Source\PSoC6\pdl\drivers/peripheral/gpio/cy_gpio.h ****     GPIO_PRT_CFG_SIO(base) = tempReg | ((value & CY_GPIO_VREG_EN_MASK) << pinLoc);
1235:Generated_Source\PSoC6\pdl\drivers/peripheral/gpio/cy_gpio.h **** }
1236:Generated_Source\PSoC6\pdl\drivers/peripheral/gpio/cy_gpio.h **** 
1237:Generated_Source\PSoC6\pdl\drivers/peripheral/gpio/cy_gpio.h **** 
1238:Generated_Source\PSoC6\pdl\drivers/peripheral/gpio/cy_gpio.h **** /*******************************************************************************
1239:Generated_Source\PSoC6\pdl\drivers/peripheral/gpio/cy_gpio.h **** * Function Name: Cy_GPIO_GetVregEn
1240:Generated_Source\PSoC6\pdl\drivers/peripheral/gpio/cy_gpio.h **** ****************************************************************************//**
1241:Generated_Source\PSoC6\pdl\drivers/peripheral/gpio/cy_gpio.h **** *
1242:Generated_Source\PSoC6\pdl\drivers/peripheral/gpio/cy_gpio.h **** * Returns the SIO pin pair output buffer regulation mode.
1243:Generated_Source\PSoC6\pdl\drivers/peripheral/gpio/cy_gpio.h **** *
1244:Generated_Source\PSoC6\pdl\drivers/peripheral/gpio/cy_gpio.h **** * Note that this function has no effect on non-SIO pins.
1245:Generated_Source\PSoC6\pdl\drivers/peripheral/gpio/cy_gpio.h **** *
1246:Generated_Source\PSoC6\pdl\drivers/peripheral/gpio/cy_gpio.h **** * \param base
1247:Generated_Source\PSoC6\pdl\drivers/peripheral/gpio/cy_gpio.h **** * Pointer to the pin's port register base address
1248:Generated_Source\PSoC6\pdl\drivers/peripheral/gpio/cy_gpio.h **** *
1249:Generated_Source\PSoC6\pdl\drivers/peripheral/gpio/cy_gpio.h **** * \param pinNum
1250:Generated_Source\PSoC6\pdl\drivers/peripheral/gpio/cy_gpio.h **** * Position of the pin bit-field within the port register
ARM GAS  C:\Users\jlabe\AppData\Local\Temp\ccQBWUqN.s 			page 29


1251:Generated_Source\PSoC6\pdl\drivers/peripheral/gpio/cy_gpio.h **** *
1252:Generated_Source\PSoC6\pdl\drivers/peripheral/gpio/cy_gpio.h **** * \return
1253:Generated_Source\PSoC6\pdl\drivers/peripheral/gpio/cy_gpio.h **** * SIO pair output buffer regulator mode. Options are detailed in \ref group_gpio_sioVreg macros
1254:Generated_Source\PSoC6\pdl\drivers/peripheral/gpio/cy_gpio.h **** *
1255:Generated_Source\PSoC6\pdl\drivers/peripheral/gpio/cy_gpio.h **** * \funcusage
1256:Generated_Source\PSoC6\pdl\drivers/peripheral/gpio/cy_gpio.h **** * \snippet gpio/gpio_v1_10_sut_01.cydsn/main_cm4.c snippet_Cy_GPIO_SetVregEn
1257:Generated_Source\PSoC6\pdl\drivers/peripheral/gpio/cy_gpio.h **** *
1258:Generated_Source\PSoC6\pdl\drivers/peripheral/gpio/cy_gpio.h **** *******************************************************************************/
1259:Generated_Source\PSoC6\pdl\drivers/peripheral/gpio/cy_gpio.h **** __STATIC_INLINE uint32_t Cy_GPIO_GetVregEn(GPIO_PRT_Type* base, uint32_t pinNum)
1260:Generated_Source\PSoC6\pdl\drivers/peripheral/gpio/cy_gpio.h **** {
1261:Generated_Source\PSoC6\pdl\drivers/peripheral/gpio/cy_gpio.h ****     CY_ASSERT_L2(CY_GPIO_IS_PIN_VALID(pinNum));
1262:Generated_Source\PSoC6\pdl\drivers/peripheral/gpio/cy_gpio.h ****     
1263:Generated_Source\PSoC6\pdl\drivers/peripheral/gpio/cy_gpio.h ****     return (GPIO_PRT_CFG_SIO(base) >> ((pinNum & CY_GPIO_SIO_ODD_PIN_MASK) << CY_GPIO_CFG_SIO_OFFSE
1264:Generated_Source\PSoC6\pdl\drivers/peripheral/gpio/cy_gpio.h **** }
1265:Generated_Source\PSoC6\pdl\drivers/peripheral/gpio/cy_gpio.h **** 
1266:Generated_Source\PSoC6\pdl\drivers/peripheral/gpio/cy_gpio.h **** 
1267:Generated_Source\PSoC6\pdl\drivers/peripheral/gpio/cy_gpio.h **** /*******************************************************************************
1268:Generated_Source\PSoC6\pdl\drivers/peripheral/gpio/cy_gpio.h **** * Function Name: Cy_GPIO_SetIbufMode
1269:Generated_Source\PSoC6\pdl\drivers/peripheral/gpio/cy_gpio.h **** ****************************************************************************//**
1270:Generated_Source\PSoC6\pdl\drivers/peripheral/gpio/cy_gpio.h **** *
1271:Generated_Source\PSoC6\pdl\drivers/peripheral/gpio/cy_gpio.h **** * Configures the SIO pin pair input buffer mode.
1272:Generated_Source\PSoC6\pdl\drivers/peripheral/gpio/cy_gpio.h **** *
1273:Generated_Source\PSoC6\pdl\drivers/peripheral/gpio/cy_gpio.h **** * Note that this function has no effect on non-SIO pins.
1274:Generated_Source\PSoC6\pdl\drivers/peripheral/gpio/cy_gpio.h **** *
1275:Generated_Source\PSoC6\pdl\drivers/peripheral/gpio/cy_gpio.h **** * \param base
1276:Generated_Source\PSoC6\pdl\drivers/peripheral/gpio/cy_gpio.h **** * Pointer to the pin's port register base address
1277:Generated_Source\PSoC6\pdl\drivers/peripheral/gpio/cy_gpio.h **** *
1278:Generated_Source\PSoC6\pdl\drivers/peripheral/gpio/cy_gpio.h **** * \param pinNum
1279:Generated_Source\PSoC6\pdl\drivers/peripheral/gpio/cy_gpio.h **** * Position of the pin bit-field within the port register
1280:Generated_Source\PSoC6\pdl\drivers/peripheral/gpio/cy_gpio.h **** *
1281:Generated_Source\PSoC6\pdl\drivers/peripheral/gpio/cy_gpio.h **** * \param value
1282:Generated_Source\PSoC6\pdl\drivers/peripheral/gpio/cy_gpio.h **** * SIO pair input buffer mode. Options are detailed in \ref group_gpio_sioIbuf macros
1283:Generated_Source\PSoC6\pdl\drivers/peripheral/gpio/cy_gpio.h **** *
1284:Generated_Source\PSoC6\pdl\drivers/peripheral/gpio/cy_gpio.h **** * \note 
1285:Generated_Source\PSoC6\pdl\drivers/peripheral/gpio/cy_gpio.h **** * This function modifies a port register in a read-modify-write operation. It is
1286:Generated_Source\PSoC6\pdl\drivers/peripheral/gpio/cy_gpio.h **** * not thread safe as the resource is shared among multiple pins on a port.
1287:Generated_Source\PSoC6\pdl\drivers/peripheral/gpio/cy_gpio.h **** *
1288:Generated_Source\PSoC6\pdl\drivers/peripheral/gpio/cy_gpio.h **** * \funcusage
1289:Generated_Source\PSoC6\pdl\drivers/peripheral/gpio/cy_gpio.h **** * \snippet gpio/gpio_v1_10_sut_01.cydsn/main_cm4.c snippet_Cy_GPIO_SetIbufMode
1290:Generated_Source\PSoC6\pdl\drivers/peripheral/gpio/cy_gpio.h **** *
1291:Generated_Source\PSoC6\pdl\drivers/peripheral/gpio/cy_gpio.h **** *******************************************************************************/
1292:Generated_Source\PSoC6\pdl\drivers/peripheral/gpio/cy_gpio.h **** __STATIC_INLINE void Cy_GPIO_SetIbufMode(GPIO_PRT_Type* base, uint32_t pinNum, uint32_t value)
1293:Generated_Source\PSoC6\pdl\drivers/peripheral/gpio/cy_gpio.h **** {
1294:Generated_Source\PSoC6\pdl\drivers/peripheral/gpio/cy_gpio.h ****     uint32_t tempReg;
1295:Generated_Source\PSoC6\pdl\drivers/peripheral/gpio/cy_gpio.h ****     uint32_t pinLoc;
1296:Generated_Source\PSoC6\pdl\drivers/peripheral/gpio/cy_gpio.h **** 
1297:Generated_Source\PSoC6\pdl\drivers/peripheral/gpio/cy_gpio.h ****     CY_ASSERT_L2(CY_GPIO_IS_PIN_VALID(pinNum));
1298:Generated_Source\PSoC6\pdl\drivers/peripheral/gpio/cy_gpio.h ****     CY_ASSERT_L2(CY_GPIO_IS_VALUE_VALID(value));
1299:Generated_Source\PSoC6\pdl\drivers/peripheral/gpio/cy_gpio.h **** 
1300:Generated_Source\PSoC6\pdl\drivers/peripheral/gpio/cy_gpio.h ****     pinLoc = ((pinNum & CY_GPIO_SIO_ODD_PIN_MASK) << CY_GPIO_CFG_SIO_OFFSET) + CY_GPIO_IBUF_SHIFT;
1301:Generated_Source\PSoC6\pdl\drivers/peripheral/gpio/cy_gpio.h ****     tempReg = (GPIO_PRT_CFG_SIO(base) & ~(CY_GPIO_IBUF_MASK << pinLoc));
1302:Generated_Source\PSoC6\pdl\drivers/peripheral/gpio/cy_gpio.h ****     GPIO_PRT_CFG_SIO(base) = tempReg | ((value & CY_GPIO_IBUF_MASK) << pinLoc);
1303:Generated_Source\PSoC6\pdl\drivers/peripheral/gpio/cy_gpio.h **** }
1304:Generated_Source\PSoC6\pdl\drivers/peripheral/gpio/cy_gpio.h **** 
1305:Generated_Source\PSoC6\pdl\drivers/peripheral/gpio/cy_gpio.h **** 
1306:Generated_Source\PSoC6\pdl\drivers/peripheral/gpio/cy_gpio.h **** /*******************************************************************************
1307:Generated_Source\PSoC6\pdl\drivers/peripheral/gpio/cy_gpio.h **** * Function Name: Cy_GPIO_GetIbufMode
ARM GAS  C:\Users\jlabe\AppData\Local\Temp\ccQBWUqN.s 			page 30


1308:Generated_Source\PSoC6\pdl\drivers/peripheral/gpio/cy_gpio.h **** ****************************************************************************//**
1309:Generated_Source\PSoC6\pdl\drivers/peripheral/gpio/cy_gpio.h **** *
1310:Generated_Source\PSoC6\pdl\drivers/peripheral/gpio/cy_gpio.h **** * Returns the SIO pin pair input buffer mode.
1311:Generated_Source\PSoC6\pdl\drivers/peripheral/gpio/cy_gpio.h **** *
1312:Generated_Source\PSoC6\pdl\drivers/peripheral/gpio/cy_gpio.h **** * Note that this function has no effect on non-SIO pins.
1313:Generated_Source\PSoC6\pdl\drivers/peripheral/gpio/cy_gpio.h **** *
1314:Generated_Source\PSoC6\pdl\drivers/peripheral/gpio/cy_gpio.h **** * \param base
1315:Generated_Source\PSoC6\pdl\drivers/peripheral/gpio/cy_gpio.h **** * Pointer to the pin's port register base address
1316:Generated_Source\PSoC6\pdl\drivers/peripheral/gpio/cy_gpio.h **** *
1317:Generated_Source\PSoC6\pdl\drivers/peripheral/gpio/cy_gpio.h **** * \param pinNum
1318:Generated_Source\PSoC6\pdl\drivers/peripheral/gpio/cy_gpio.h **** * Position of the pin bit-field within the port register
1319:Generated_Source\PSoC6\pdl\drivers/peripheral/gpio/cy_gpio.h **** *
1320:Generated_Source\PSoC6\pdl\drivers/peripheral/gpio/cy_gpio.h **** * \return
1321:Generated_Source\PSoC6\pdl\drivers/peripheral/gpio/cy_gpio.h **** * SIO pair input buffer mode. Options are detailed in \ref group_gpio_sioIbuf macros
1322:Generated_Source\PSoC6\pdl\drivers/peripheral/gpio/cy_gpio.h **** *
1323:Generated_Source\PSoC6\pdl\drivers/peripheral/gpio/cy_gpio.h **** * \funcusage
1324:Generated_Source\PSoC6\pdl\drivers/peripheral/gpio/cy_gpio.h **** * \snippet gpio/gpio_v1_10_sut_01.cydsn/main_cm4.c snippet_Cy_GPIO_SetIbufMode
1325:Generated_Source\PSoC6\pdl\drivers/peripheral/gpio/cy_gpio.h **** *
1326:Generated_Source\PSoC6\pdl\drivers/peripheral/gpio/cy_gpio.h **** *******************************************************************************/
1327:Generated_Source\PSoC6\pdl\drivers/peripheral/gpio/cy_gpio.h **** __STATIC_INLINE uint32_t Cy_GPIO_GetIbufMode(GPIO_PRT_Type* base, uint32_t pinNum)
1328:Generated_Source\PSoC6\pdl\drivers/peripheral/gpio/cy_gpio.h **** {
1329:Generated_Source\PSoC6\pdl\drivers/peripheral/gpio/cy_gpio.h ****     CY_ASSERT_L2(CY_GPIO_IS_PIN_VALID(pinNum));
1330:Generated_Source\PSoC6\pdl\drivers/peripheral/gpio/cy_gpio.h ****     
1331:Generated_Source\PSoC6\pdl\drivers/peripheral/gpio/cy_gpio.h ****     return (GPIO_PRT_CFG_SIO(base) >> (((pinNum & CY_GPIO_SIO_ODD_PIN_MASK) << CY_GPIO_CFG_SIO_OFFS
1332:Generated_Source\PSoC6\pdl\drivers/peripheral/gpio/cy_gpio.h **** }
1333:Generated_Source\PSoC6\pdl\drivers/peripheral/gpio/cy_gpio.h **** 
1334:Generated_Source\PSoC6\pdl\drivers/peripheral/gpio/cy_gpio.h **** 
1335:Generated_Source\PSoC6\pdl\drivers/peripheral/gpio/cy_gpio.h **** /*******************************************************************************
1336:Generated_Source\PSoC6\pdl\drivers/peripheral/gpio/cy_gpio.h **** * Function Name: Cy_GPIO_SetVtripSel
1337:Generated_Source\PSoC6\pdl\drivers/peripheral/gpio/cy_gpio.h **** ****************************************************************************//**
1338:Generated_Source\PSoC6\pdl\drivers/peripheral/gpio/cy_gpio.h **** *
1339:Generated_Source\PSoC6\pdl\drivers/peripheral/gpio/cy_gpio.h **** * Configures the SIO pin pair input buffer trip point.
1340:Generated_Source\PSoC6\pdl\drivers/peripheral/gpio/cy_gpio.h **** *
1341:Generated_Source\PSoC6\pdl\drivers/peripheral/gpio/cy_gpio.h **** * Note that this function has no effect on non-SIO pins.
1342:Generated_Source\PSoC6\pdl\drivers/peripheral/gpio/cy_gpio.h **** *
1343:Generated_Source\PSoC6\pdl\drivers/peripheral/gpio/cy_gpio.h **** * \param base
1344:Generated_Source\PSoC6\pdl\drivers/peripheral/gpio/cy_gpio.h **** * Pointer to the pin's port register base address
1345:Generated_Source\PSoC6\pdl\drivers/peripheral/gpio/cy_gpio.h **** *
1346:Generated_Source\PSoC6\pdl\drivers/peripheral/gpio/cy_gpio.h **** * \param pinNum
1347:Generated_Source\PSoC6\pdl\drivers/peripheral/gpio/cy_gpio.h **** * Position of the pin bit-field within the port register
1348:Generated_Source\PSoC6\pdl\drivers/peripheral/gpio/cy_gpio.h **** *
1349:Generated_Source\PSoC6\pdl\drivers/peripheral/gpio/cy_gpio.h **** * \param value
1350:Generated_Source\PSoC6\pdl\drivers/peripheral/gpio/cy_gpio.h **** * SIO pair input buffer trip point. Options are detailed in \ref group_gpio_sioVtrip macros
1351:Generated_Source\PSoC6\pdl\drivers/peripheral/gpio/cy_gpio.h **** *
1352:Generated_Source\PSoC6\pdl\drivers/peripheral/gpio/cy_gpio.h **** * \note 
1353:Generated_Source\PSoC6\pdl\drivers/peripheral/gpio/cy_gpio.h **** * This function modifies a port register in a read-modify-write operation. It is
1354:Generated_Source\PSoC6\pdl\drivers/peripheral/gpio/cy_gpio.h **** * not thread safe as the resource is shared among multiple pins on a port.
1355:Generated_Source\PSoC6\pdl\drivers/peripheral/gpio/cy_gpio.h **** *
1356:Generated_Source\PSoC6\pdl\drivers/peripheral/gpio/cy_gpio.h **** * \funcusage
1357:Generated_Source\PSoC6\pdl\drivers/peripheral/gpio/cy_gpio.h **** * \snippet gpio/gpio_v1_10_sut_01.cydsn/main_cm4.c snippet_Cy_GPIO_SetVtripSel
1358:Generated_Source\PSoC6\pdl\drivers/peripheral/gpio/cy_gpio.h **** *
1359:Generated_Source\PSoC6\pdl\drivers/peripheral/gpio/cy_gpio.h **** *******************************************************************************/
1360:Generated_Source\PSoC6\pdl\drivers/peripheral/gpio/cy_gpio.h **** __STATIC_INLINE void Cy_GPIO_SetVtripSel(GPIO_PRT_Type* base, uint32_t pinNum, uint32_t value)
1361:Generated_Source\PSoC6\pdl\drivers/peripheral/gpio/cy_gpio.h **** {
1362:Generated_Source\PSoC6\pdl\drivers/peripheral/gpio/cy_gpio.h ****     uint32_t tempReg;
1363:Generated_Source\PSoC6\pdl\drivers/peripheral/gpio/cy_gpio.h ****     uint32_t pinLoc;
1364:Generated_Source\PSoC6\pdl\drivers/peripheral/gpio/cy_gpio.h **** 
ARM GAS  C:\Users\jlabe\AppData\Local\Temp\ccQBWUqN.s 			page 31


1365:Generated_Source\PSoC6\pdl\drivers/peripheral/gpio/cy_gpio.h ****     CY_ASSERT_L2(CY_GPIO_IS_PIN_VALID(pinNum));
1366:Generated_Source\PSoC6\pdl\drivers/peripheral/gpio/cy_gpio.h ****     CY_ASSERT_L2(CY_GPIO_IS_VALUE_VALID(value));
1367:Generated_Source\PSoC6\pdl\drivers/peripheral/gpio/cy_gpio.h **** 
1368:Generated_Source\PSoC6\pdl\drivers/peripheral/gpio/cy_gpio.h ****     pinLoc = ((pinNum & CY_GPIO_SIO_ODD_PIN_MASK) << CY_GPIO_CFG_SIO_OFFSET) + CY_GPIO_VTRIP_SEL_SH
1369:Generated_Source\PSoC6\pdl\drivers/peripheral/gpio/cy_gpio.h ****     tempReg = (GPIO_PRT_CFG_SIO(base) & ~(CY_GPIO_VTRIP_SEL_MASK << pinLoc));
1370:Generated_Source\PSoC6\pdl\drivers/peripheral/gpio/cy_gpio.h ****     GPIO_PRT_CFG_SIO(base) = tempReg | ((value & CY_GPIO_VTRIP_SEL_MASK) << pinLoc);
1371:Generated_Source\PSoC6\pdl\drivers/peripheral/gpio/cy_gpio.h **** }
1372:Generated_Source\PSoC6\pdl\drivers/peripheral/gpio/cy_gpio.h **** 
1373:Generated_Source\PSoC6\pdl\drivers/peripheral/gpio/cy_gpio.h **** 
1374:Generated_Source\PSoC6\pdl\drivers/peripheral/gpio/cy_gpio.h **** /*******************************************************************************
1375:Generated_Source\PSoC6\pdl\drivers/peripheral/gpio/cy_gpio.h **** * Function Name: Cy_GPIO_GetVtripSel
1376:Generated_Source\PSoC6\pdl\drivers/peripheral/gpio/cy_gpio.h **** ****************************************************************************//**
1377:Generated_Source\PSoC6\pdl\drivers/peripheral/gpio/cy_gpio.h **** *
1378:Generated_Source\PSoC6\pdl\drivers/peripheral/gpio/cy_gpio.h **** * Returns the SIO pin pair input buffer trip point.
1379:Generated_Source\PSoC6\pdl\drivers/peripheral/gpio/cy_gpio.h **** *
1380:Generated_Source\PSoC6\pdl\drivers/peripheral/gpio/cy_gpio.h **** * Note that this function has no effect on non-SIO pins.
1381:Generated_Source\PSoC6\pdl\drivers/peripheral/gpio/cy_gpio.h **** *
1382:Generated_Source\PSoC6\pdl\drivers/peripheral/gpio/cy_gpio.h **** * \param base
1383:Generated_Source\PSoC6\pdl\drivers/peripheral/gpio/cy_gpio.h **** * Pointer to the pin's port register base address
1384:Generated_Source\PSoC6\pdl\drivers/peripheral/gpio/cy_gpio.h **** *
1385:Generated_Source\PSoC6\pdl\drivers/peripheral/gpio/cy_gpio.h **** * \param pinNum
1386:Generated_Source\PSoC6\pdl\drivers/peripheral/gpio/cy_gpio.h **** * Position of the pin bit-field within the port register
1387:Generated_Source\PSoC6\pdl\drivers/peripheral/gpio/cy_gpio.h **** *
1388:Generated_Source\PSoC6\pdl\drivers/peripheral/gpio/cy_gpio.h **** * \return
1389:Generated_Source\PSoC6\pdl\drivers/peripheral/gpio/cy_gpio.h **** * SIO pair input buffer trip point. Options are detailed in \ref group_gpio_sioVtrip macros
1390:Generated_Source\PSoC6\pdl\drivers/peripheral/gpio/cy_gpio.h **** *
1391:Generated_Source\PSoC6\pdl\drivers/peripheral/gpio/cy_gpio.h **** * \funcusage
1392:Generated_Source\PSoC6\pdl\drivers/peripheral/gpio/cy_gpio.h **** * \snippet gpio/gpio_v1_10_sut_01.cydsn/main_cm4.c snippet_Cy_GPIO_SetVtripSel
1393:Generated_Source\PSoC6\pdl\drivers/peripheral/gpio/cy_gpio.h **** *
1394:Generated_Source\PSoC6\pdl\drivers/peripheral/gpio/cy_gpio.h **** *******************************************************************************/
1395:Generated_Source\PSoC6\pdl\drivers/peripheral/gpio/cy_gpio.h **** __STATIC_INLINE uint32_t Cy_GPIO_GetVtripSel(GPIO_PRT_Type* base, uint32_t pinNum)
1396:Generated_Source\PSoC6\pdl\drivers/peripheral/gpio/cy_gpio.h **** {
1397:Generated_Source\PSoC6\pdl\drivers/peripheral/gpio/cy_gpio.h ****     CY_ASSERT_L2(CY_GPIO_IS_PIN_VALID(pinNum));
1398:Generated_Source\PSoC6\pdl\drivers/peripheral/gpio/cy_gpio.h **** 
1399:Generated_Source\PSoC6\pdl\drivers/peripheral/gpio/cy_gpio.h ****     return (GPIO_PRT_CFG_SIO(base) >> (((pinNum & CY_GPIO_SIO_ODD_PIN_MASK) << CY_GPIO_CFG_SIO_OFFS
1400:Generated_Source\PSoC6\pdl\drivers/peripheral/gpio/cy_gpio.h **** }
1401:Generated_Source\PSoC6\pdl\drivers/peripheral/gpio/cy_gpio.h **** 
1402:Generated_Source\PSoC6\pdl\drivers/peripheral/gpio/cy_gpio.h **** 
1403:Generated_Source\PSoC6\pdl\drivers/peripheral/gpio/cy_gpio.h **** /*******************************************************************************
1404:Generated_Source\PSoC6\pdl\drivers/peripheral/gpio/cy_gpio.h **** * Function Name: Cy_GPIO_SetVrefSel
1405:Generated_Source\PSoC6\pdl\drivers/peripheral/gpio/cy_gpio.h **** ****************************************************************************//**
1406:Generated_Source\PSoC6\pdl\drivers/peripheral/gpio/cy_gpio.h **** *
1407:Generated_Source\PSoC6\pdl\drivers/peripheral/gpio/cy_gpio.h **** * Configures the SIO reference voltage for the input buffer trip point.
1408:Generated_Source\PSoC6\pdl\drivers/peripheral/gpio/cy_gpio.h **** *
1409:Generated_Source\PSoC6\pdl\drivers/peripheral/gpio/cy_gpio.h **** * Note that this function has no effect on non-SIO pins.
1410:Generated_Source\PSoC6\pdl\drivers/peripheral/gpio/cy_gpio.h **** *
1411:Generated_Source\PSoC6\pdl\drivers/peripheral/gpio/cy_gpio.h **** * \param base
1412:Generated_Source\PSoC6\pdl\drivers/peripheral/gpio/cy_gpio.h **** * Pointer to the pin's port register base address
1413:Generated_Source\PSoC6\pdl\drivers/peripheral/gpio/cy_gpio.h **** *
1414:Generated_Source\PSoC6\pdl\drivers/peripheral/gpio/cy_gpio.h **** * \param pinNum
1415:Generated_Source\PSoC6\pdl\drivers/peripheral/gpio/cy_gpio.h **** * Position of the pin bit-field within the port register
1416:Generated_Source\PSoC6\pdl\drivers/peripheral/gpio/cy_gpio.h **** *
1417:Generated_Source\PSoC6\pdl\drivers/peripheral/gpio/cy_gpio.h **** * \param value
1418:Generated_Source\PSoC6\pdl\drivers/peripheral/gpio/cy_gpio.h **** * SIO pair reference voltage. Options are detailed in \ref group_gpio_sioVref macros
1419:Generated_Source\PSoC6\pdl\drivers/peripheral/gpio/cy_gpio.h **** *
1420:Generated_Source\PSoC6\pdl\drivers/peripheral/gpio/cy_gpio.h **** * \note 
1421:Generated_Source\PSoC6\pdl\drivers/peripheral/gpio/cy_gpio.h **** * This function modifies a port register in a read-modify-write operation. It is
ARM GAS  C:\Users\jlabe\AppData\Local\Temp\ccQBWUqN.s 			page 32


1422:Generated_Source\PSoC6\pdl\drivers/peripheral/gpio/cy_gpio.h **** * not thread safe as the resource is shared among multiple pins on a port.
1423:Generated_Source\PSoC6\pdl\drivers/peripheral/gpio/cy_gpio.h **** *
1424:Generated_Source\PSoC6\pdl\drivers/peripheral/gpio/cy_gpio.h **** * \funcusage
1425:Generated_Source\PSoC6\pdl\drivers/peripheral/gpio/cy_gpio.h **** * \snippet gpio/gpio_v1_10_sut_01.cydsn/main_cm4.c snippet_Cy_GPIO_SetVrefSel
1426:Generated_Source\PSoC6\pdl\drivers/peripheral/gpio/cy_gpio.h **** *
1427:Generated_Source\PSoC6\pdl\drivers/peripheral/gpio/cy_gpio.h **** *******************************************************************************/
1428:Generated_Source\PSoC6\pdl\drivers/peripheral/gpio/cy_gpio.h **** __STATIC_INLINE void Cy_GPIO_SetVrefSel(GPIO_PRT_Type* base, uint32_t pinNum, uint32_t value)
1429:Generated_Source\PSoC6\pdl\drivers/peripheral/gpio/cy_gpio.h **** {
1430:Generated_Source\PSoC6\pdl\drivers/peripheral/gpio/cy_gpio.h ****     uint32_t tempReg;
1431:Generated_Source\PSoC6\pdl\drivers/peripheral/gpio/cy_gpio.h ****     uint32_t pinLoc;
1432:Generated_Source\PSoC6\pdl\drivers/peripheral/gpio/cy_gpio.h **** 
1433:Generated_Source\PSoC6\pdl\drivers/peripheral/gpio/cy_gpio.h ****     CY_ASSERT_L2(CY_GPIO_IS_PIN_VALID(pinNum));
1434:Generated_Source\PSoC6\pdl\drivers/peripheral/gpio/cy_gpio.h ****     CY_ASSERT_L2(CY_GPIO_IS_VREF_SEL_VALID(value));
1435:Generated_Source\PSoC6\pdl\drivers/peripheral/gpio/cy_gpio.h ****     
1436:Generated_Source\PSoC6\pdl\drivers/peripheral/gpio/cy_gpio.h ****     pinLoc = ((pinNum & CY_GPIO_SIO_ODD_PIN_MASK) << CY_GPIO_CFG_SIO_OFFSET) + CY_GPIO_VREF_SEL_SHI
1437:Generated_Source\PSoC6\pdl\drivers/peripheral/gpio/cy_gpio.h ****     tempReg = (GPIO_PRT_CFG_SIO(base) & ~(CY_GPIO_VREF_SEL_MASK << pinLoc));
1438:Generated_Source\PSoC6\pdl\drivers/peripheral/gpio/cy_gpio.h ****     GPIO_PRT_CFG_SIO(base) = tempReg | ((value & CY_GPIO_VREF_SEL_MASK) << pinLoc);
1439:Generated_Source\PSoC6\pdl\drivers/peripheral/gpio/cy_gpio.h **** }
1440:Generated_Source\PSoC6\pdl\drivers/peripheral/gpio/cy_gpio.h **** 
1441:Generated_Source\PSoC6\pdl\drivers/peripheral/gpio/cy_gpio.h **** 
1442:Generated_Source\PSoC6\pdl\drivers/peripheral/gpio/cy_gpio.h **** /*******************************************************************************
1443:Generated_Source\PSoC6\pdl\drivers/peripheral/gpio/cy_gpio.h **** * Function Name: Cy_GPIO_GetVrefSel
1444:Generated_Source\PSoC6\pdl\drivers/peripheral/gpio/cy_gpio.h **** ****************************************************************************//**
1445:Generated_Source\PSoC6\pdl\drivers/peripheral/gpio/cy_gpio.h **** *
1446:Generated_Source\PSoC6\pdl\drivers/peripheral/gpio/cy_gpio.h **** * Returns the SIO reference voltage for the input buffer trip point.
1447:Generated_Source\PSoC6\pdl\drivers/peripheral/gpio/cy_gpio.h **** *
1448:Generated_Source\PSoC6\pdl\drivers/peripheral/gpio/cy_gpio.h **** * Note that this function has no effect on non-SIO pins.
1449:Generated_Source\PSoC6\pdl\drivers/peripheral/gpio/cy_gpio.h **** *
1450:Generated_Source\PSoC6\pdl\drivers/peripheral/gpio/cy_gpio.h **** * \param base
1451:Generated_Source\PSoC6\pdl\drivers/peripheral/gpio/cy_gpio.h **** * Pointer to the pin's port register base address
1452:Generated_Source\PSoC6\pdl\drivers/peripheral/gpio/cy_gpio.h **** *
1453:Generated_Source\PSoC6\pdl\drivers/peripheral/gpio/cy_gpio.h **** * \param pinNum
1454:Generated_Source\PSoC6\pdl\drivers/peripheral/gpio/cy_gpio.h **** * Position of the pin bit-field within the port register
1455:Generated_Source\PSoC6\pdl\drivers/peripheral/gpio/cy_gpio.h **** *
1456:Generated_Source\PSoC6\pdl\drivers/peripheral/gpio/cy_gpio.h **** * \return
1457:Generated_Source\PSoC6\pdl\drivers/peripheral/gpio/cy_gpio.h **** * SIO pair reference voltage. Options are detailed in \ref group_gpio_sioVref macros
1458:Generated_Source\PSoC6\pdl\drivers/peripheral/gpio/cy_gpio.h **** *
1459:Generated_Source\PSoC6\pdl\drivers/peripheral/gpio/cy_gpio.h **** * \funcusage
1460:Generated_Source\PSoC6\pdl\drivers/peripheral/gpio/cy_gpio.h **** * \snippet gpio/gpio_v1_10_sut_01.cydsn/main_cm4.c snippet_Cy_GPIO_SetVrefSel
1461:Generated_Source\PSoC6\pdl\drivers/peripheral/gpio/cy_gpio.h **** *
1462:Generated_Source\PSoC6\pdl\drivers/peripheral/gpio/cy_gpio.h **** *******************************************************************************/
1463:Generated_Source\PSoC6\pdl\drivers/peripheral/gpio/cy_gpio.h **** __STATIC_INLINE uint32_t Cy_GPIO_GetVrefSel(GPIO_PRT_Type* base, uint32_t pinNum)
1464:Generated_Source\PSoC6\pdl\drivers/peripheral/gpio/cy_gpio.h **** {
1465:Generated_Source\PSoC6\pdl\drivers/peripheral/gpio/cy_gpio.h ****     CY_ASSERT_L2(CY_GPIO_IS_PIN_VALID(pinNum));
1466:Generated_Source\PSoC6\pdl\drivers/peripheral/gpio/cy_gpio.h ****     
1467:Generated_Source\PSoC6\pdl\drivers/peripheral/gpio/cy_gpio.h ****     return (GPIO_PRT_CFG_SIO(base) >> (((pinNum & CY_GPIO_SIO_ODD_PIN_MASK) << CY_GPIO_CFG_SIO_OFFS
1468:Generated_Source\PSoC6\pdl\drivers/peripheral/gpio/cy_gpio.h **** }
1469:Generated_Source\PSoC6\pdl\drivers/peripheral/gpio/cy_gpio.h **** 
1470:Generated_Source\PSoC6\pdl\drivers/peripheral/gpio/cy_gpio.h **** 
1471:Generated_Source\PSoC6\pdl\drivers/peripheral/gpio/cy_gpio.h **** /*******************************************************************************
1472:Generated_Source\PSoC6\pdl\drivers/peripheral/gpio/cy_gpio.h **** * Function Name: Cy_GPIO_SetVohSel
1473:Generated_Source\PSoC6\pdl\drivers/peripheral/gpio/cy_gpio.h **** ****************************************************************************//**
1474:Generated_Source\PSoC6\pdl\drivers/peripheral/gpio/cy_gpio.h **** *
1475:Generated_Source\PSoC6\pdl\drivers/peripheral/gpio/cy_gpio.h **** * Configures the regulated output reference multiplier for the SIO pin pair.
1476:Generated_Source\PSoC6\pdl\drivers/peripheral/gpio/cy_gpio.h **** *
1477:Generated_Source\PSoC6\pdl\drivers/peripheral/gpio/cy_gpio.h **** * The regulated output reference controls both the output level of digital output
1478:Generated_Source\PSoC6\pdl\drivers/peripheral/gpio/cy_gpio.h **** * pin and the input trip point of digital input pin in the SIO pair.
ARM GAS  C:\Users\jlabe\AppData\Local\Temp\ccQBWUqN.s 			page 33


1479:Generated_Source\PSoC6\pdl\drivers/peripheral/gpio/cy_gpio.h **** *
1480:Generated_Source\PSoC6\pdl\drivers/peripheral/gpio/cy_gpio.h **** * Note that this function has no effect on non-SIO pins.
1481:Generated_Source\PSoC6\pdl\drivers/peripheral/gpio/cy_gpio.h **** *
1482:Generated_Source\PSoC6\pdl\drivers/peripheral/gpio/cy_gpio.h **** * \param base
1483:Generated_Source\PSoC6\pdl\drivers/peripheral/gpio/cy_gpio.h **** * Pointer to the pin's port register base address
1484:Generated_Source\PSoC6\pdl\drivers/peripheral/gpio/cy_gpio.h **** *
1485:Generated_Source\PSoC6\pdl\drivers/peripheral/gpio/cy_gpio.h **** * \param pinNum
1486:Generated_Source\PSoC6\pdl\drivers/peripheral/gpio/cy_gpio.h **** * Position of the pin bit-field within the port register
1487:Generated_Source\PSoC6\pdl\drivers/peripheral/gpio/cy_gpio.h **** *
1488:Generated_Source\PSoC6\pdl\drivers/peripheral/gpio/cy_gpio.h **** * \param value
1489:Generated_Source\PSoC6\pdl\drivers/peripheral/gpio/cy_gpio.h **** * SIO pair reference voltage. Options are detailed in \ref group_gpio_sioVoh macros
1490:Generated_Source\PSoC6\pdl\drivers/peripheral/gpio/cy_gpio.h **** *
1491:Generated_Source\PSoC6\pdl\drivers/peripheral/gpio/cy_gpio.h **** * \note 
1492:Generated_Source\PSoC6\pdl\drivers/peripheral/gpio/cy_gpio.h **** * This function modifies a port register in a read-modify-write operation. It is
1493:Generated_Source\PSoC6\pdl\drivers/peripheral/gpio/cy_gpio.h **** * not thread safe as the resource is shared among multiple pins on a port.
1494:Generated_Source\PSoC6\pdl\drivers/peripheral/gpio/cy_gpio.h **** *
1495:Generated_Source\PSoC6\pdl\drivers/peripheral/gpio/cy_gpio.h **** * \funcusage
1496:Generated_Source\PSoC6\pdl\drivers/peripheral/gpio/cy_gpio.h **** * \snippet gpio/gpio_v1_10_sut_01.cydsn/main_cm4.c snippet_Cy_GPIO_SetVohSel
1497:Generated_Source\PSoC6\pdl\drivers/peripheral/gpio/cy_gpio.h **** *
1498:Generated_Source\PSoC6\pdl\drivers/peripheral/gpio/cy_gpio.h **** *******************************************************************************/
1499:Generated_Source\PSoC6\pdl\drivers/peripheral/gpio/cy_gpio.h **** __STATIC_INLINE void Cy_GPIO_SetVohSel(GPIO_PRT_Type* base, uint32_t pinNum, uint32_t value)
1500:Generated_Source\PSoC6\pdl\drivers/peripheral/gpio/cy_gpio.h **** {
1501:Generated_Source\PSoC6\pdl\drivers/peripheral/gpio/cy_gpio.h ****     uint32_t tempReg;
1502:Generated_Source\PSoC6\pdl\drivers/peripheral/gpio/cy_gpio.h ****     uint32_t pinLoc;
1503:Generated_Source\PSoC6\pdl\drivers/peripheral/gpio/cy_gpio.h **** 
1504:Generated_Source\PSoC6\pdl\drivers/peripheral/gpio/cy_gpio.h ****     CY_ASSERT_L2(CY_GPIO_IS_PIN_VALID(pinNum));
1505:Generated_Source\PSoC6\pdl\drivers/peripheral/gpio/cy_gpio.h ****     CY_ASSERT_L2(CY_GPIO_IS_VOH_SEL_VALID(value));
1506:Generated_Source\PSoC6\pdl\drivers/peripheral/gpio/cy_gpio.h **** 
1507:Generated_Source\PSoC6\pdl\drivers/peripheral/gpio/cy_gpio.h ****     pinLoc = ((pinNum & CY_GPIO_SIO_ODD_PIN_MASK) << CY_GPIO_CFG_SIO_OFFSET) + CY_GPIO_VOH_SEL_SHIF
1508:Generated_Source\PSoC6\pdl\drivers/peripheral/gpio/cy_gpio.h ****     tempReg = (GPIO_PRT_CFG_SIO(base) & ~(CY_GPIO_VOH_SEL_MASK << pinLoc));
1509:Generated_Source\PSoC6\pdl\drivers/peripheral/gpio/cy_gpio.h ****     GPIO_PRT_CFG_SIO(base) = tempReg | ((value & CY_GPIO_VOH_SEL_MASK) << pinLoc);
1510:Generated_Source\PSoC6\pdl\drivers/peripheral/gpio/cy_gpio.h **** }
1511:Generated_Source\PSoC6\pdl\drivers/peripheral/gpio/cy_gpio.h **** 
1512:Generated_Source\PSoC6\pdl\drivers/peripheral/gpio/cy_gpio.h **** 
1513:Generated_Source\PSoC6\pdl\drivers/peripheral/gpio/cy_gpio.h **** /*******************************************************************************
1514:Generated_Source\PSoC6\pdl\drivers/peripheral/gpio/cy_gpio.h **** * Function Name: Cy_GPIO_GetVohSel
1515:Generated_Source\PSoC6\pdl\drivers/peripheral/gpio/cy_gpio.h **** ****************************************************************************//**
1516:Generated_Source\PSoC6\pdl\drivers/peripheral/gpio/cy_gpio.h **** *
1517:Generated_Source\PSoC6\pdl\drivers/peripheral/gpio/cy_gpio.h **** * Returns the regulated output reference multiplier for the SIO pin pair.
1518:Generated_Source\PSoC6\pdl\drivers/peripheral/gpio/cy_gpio.h **** *
1519:Generated_Source\PSoC6\pdl\drivers/peripheral/gpio/cy_gpio.h **** * Note that this function has no effect on non-SIO pins.
1520:Generated_Source\PSoC6\pdl\drivers/peripheral/gpio/cy_gpio.h **** *
1521:Generated_Source\PSoC6\pdl\drivers/peripheral/gpio/cy_gpio.h **** * \param base
1522:Generated_Source\PSoC6\pdl\drivers/peripheral/gpio/cy_gpio.h **** * Pointer to the pin's port register base address
1523:Generated_Source\PSoC6\pdl\drivers/peripheral/gpio/cy_gpio.h **** *
1524:Generated_Source\PSoC6\pdl\drivers/peripheral/gpio/cy_gpio.h **** * \param pinNum
1525:Generated_Source\PSoC6\pdl\drivers/peripheral/gpio/cy_gpio.h **** * Position of the pin bit-field within the port register
1526:Generated_Source\PSoC6\pdl\drivers/peripheral/gpio/cy_gpio.h **** *
1527:Generated_Source\PSoC6\pdl\drivers/peripheral/gpio/cy_gpio.h **** * \return
1528:Generated_Source\PSoC6\pdl\drivers/peripheral/gpio/cy_gpio.h **** * SIO pair reference voltage. Options are detailed in \ref group_gpio_sioVoh macros
1529:Generated_Source\PSoC6\pdl\drivers/peripheral/gpio/cy_gpio.h **** *
1530:Generated_Source\PSoC6\pdl\drivers/peripheral/gpio/cy_gpio.h **** * \funcusage
1531:Generated_Source\PSoC6\pdl\drivers/peripheral/gpio/cy_gpio.h **** * \snippet gpio/gpio_v1_10_sut_01.cydsn/main_cm4.c snippet_Cy_GPIO_SetVohSel
1532:Generated_Source\PSoC6\pdl\drivers/peripheral/gpio/cy_gpio.h **** *
1533:Generated_Source\PSoC6\pdl\drivers/peripheral/gpio/cy_gpio.h **** *******************************************************************************/
1534:Generated_Source\PSoC6\pdl\drivers/peripheral/gpio/cy_gpio.h **** __STATIC_INLINE uint32_t Cy_GPIO_GetVohSel(GPIO_PRT_Type* base, uint32_t pinNum)
1535:Generated_Source\PSoC6\pdl\drivers/peripheral/gpio/cy_gpio.h **** {
ARM GAS  C:\Users\jlabe\AppData\Local\Temp\ccQBWUqN.s 			page 34


1536:Generated_Source\PSoC6\pdl\drivers/peripheral/gpio/cy_gpio.h ****     CY_ASSERT_L2(CY_GPIO_IS_PIN_VALID(pinNum));
1537:Generated_Source\PSoC6\pdl\drivers/peripheral/gpio/cy_gpio.h ****     
1538:Generated_Source\PSoC6\pdl\drivers/peripheral/gpio/cy_gpio.h ****     return (GPIO_PRT_CFG_SIO(base) >> (((pinNum & CY_GPIO_SIO_ODD_PIN_MASK) << CY_GPIO_CFG_SIO_OFFS
1539:Generated_Source\PSoC6\pdl\drivers/peripheral/gpio/cy_gpio.h **** }
1540:Generated_Source\PSoC6\pdl\drivers/peripheral/gpio/cy_gpio.h **** 
1541:Generated_Source\PSoC6\pdl\drivers/peripheral/gpio/cy_gpio.h **** /** \} group_gpio_functions_sio */
1542:Generated_Source\PSoC6\pdl\drivers/peripheral/gpio/cy_gpio.h **** 
1543:Generated_Source\PSoC6\pdl\drivers/peripheral/gpio/cy_gpio.h **** /**
1544:Generated_Source\PSoC6\pdl\drivers/peripheral/gpio/cy_gpio.h **** * \addtogroup group_gpio_functions_interrupt
1545:Generated_Source\PSoC6\pdl\drivers/peripheral/gpio/cy_gpio.h **** * \{
1546:Generated_Source\PSoC6\pdl\drivers/peripheral/gpio/cy_gpio.h **** */
1547:Generated_Source\PSoC6\pdl\drivers/peripheral/gpio/cy_gpio.h **** 
1548:Generated_Source\PSoC6\pdl\drivers/peripheral/gpio/cy_gpio.h **** /*******************************************************************************
1549:Generated_Source\PSoC6\pdl\drivers/peripheral/gpio/cy_gpio.h **** * Function Name: Cy_GPIO_GetInterruptStatus
1550:Generated_Source\PSoC6\pdl\drivers/peripheral/gpio/cy_gpio.h **** ****************************************************************************//**
1551:Generated_Source\PSoC6\pdl\drivers/peripheral/gpio/cy_gpio.h **** *
1552:Generated_Source\PSoC6\pdl\drivers/peripheral/gpio/cy_gpio.h **** * Returns the current unmasked interrupt state of the pin.
1553:Generated_Source\PSoC6\pdl\drivers/peripheral/gpio/cy_gpio.h **** *
1554:Generated_Source\PSoC6\pdl\drivers/peripheral/gpio/cy_gpio.h **** * The core processor's NVIC is triggered by the masked interrupt bits. This 
1555:Generated_Source\PSoC6\pdl\drivers/peripheral/gpio/cy_gpio.h **** * function allows reading the unmasked interrupt state. Whether the bit
1556:Generated_Source\PSoC6\pdl\drivers/peripheral/gpio/cy_gpio.h **** * positions actually trigger the interrupt are defined by the interrupt mask bits.
1557:Generated_Source\PSoC6\pdl\drivers/peripheral/gpio/cy_gpio.h **** *
1558:Generated_Source\PSoC6\pdl\drivers/peripheral/gpio/cy_gpio.h **** * \param base
1559:Generated_Source\PSoC6\pdl\drivers/peripheral/gpio/cy_gpio.h **** * Pointer to the pin's port register base address
1560:Generated_Source\PSoC6\pdl\drivers/peripheral/gpio/cy_gpio.h **** *
1561:Generated_Source\PSoC6\pdl\drivers/peripheral/gpio/cy_gpio.h **** * \param pinNum
1562:Generated_Source\PSoC6\pdl\drivers/peripheral/gpio/cy_gpio.h **** * Position of the pin bit-field within the port register
1563:Generated_Source\PSoC6\pdl\drivers/peripheral/gpio/cy_gpio.h **** * Bit position 8 is the routed pin through the port glitch filter.
1564:Generated_Source\PSoC6\pdl\drivers/peripheral/gpio/cy_gpio.h **** *
1565:Generated_Source\PSoC6\pdl\drivers/peripheral/gpio/cy_gpio.h **** * \return
1566:Generated_Source\PSoC6\pdl\drivers/peripheral/gpio/cy_gpio.h **** * 0 = Pin interrupt condition not detected
1567:Generated_Source\PSoC6\pdl\drivers/peripheral/gpio/cy_gpio.h **** * 1 = Pin interrupt condition detected
1568:Generated_Source\PSoC6\pdl\drivers/peripheral/gpio/cy_gpio.h **** *
1569:Generated_Source\PSoC6\pdl\drivers/peripheral/gpio/cy_gpio.h **** * \funcusage
1570:Generated_Source\PSoC6\pdl\drivers/peripheral/gpio/cy_gpio.h **** * \snippet gpio/gpio_v1_10_sut_01.cydsn/main_cm4.c snippet_Cy_GPIO_GetInterruptStatus
1571:Generated_Source\PSoC6\pdl\drivers/peripheral/gpio/cy_gpio.h **** *
1572:Generated_Source\PSoC6\pdl\drivers/peripheral/gpio/cy_gpio.h **** *******************************************************************************/
1573:Generated_Source\PSoC6\pdl\drivers/peripheral/gpio/cy_gpio.h **** __STATIC_INLINE uint32_t Cy_GPIO_GetInterruptStatus(GPIO_PRT_Type* base, uint32_t pinNum)
1574:Generated_Source\PSoC6\pdl\drivers/peripheral/gpio/cy_gpio.h **** {
1575:Generated_Source\PSoC6\pdl\drivers/peripheral/gpio/cy_gpio.h ****     CY_ASSERT_L2(CY_GPIO_IS_FILTER_PIN_VALID(pinNum));
1576:Generated_Source\PSoC6\pdl\drivers/peripheral/gpio/cy_gpio.h ****     
1577:Generated_Source\PSoC6\pdl\drivers/peripheral/gpio/cy_gpio.h ****     return (GPIO_PRT_INTR(base) >> pinNum) & CY_GPIO_INTR_STATUS_MASK;
1578:Generated_Source\PSoC6\pdl\drivers/peripheral/gpio/cy_gpio.h **** }
1579:Generated_Source\PSoC6\pdl\drivers/peripheral/gpio/cy_gpio.h **** 
1580:Generated_Source\PSoC6\pdl\drivers/peripheral/gpio/cy_gpio.h **** 
1581:Generated_Source\PSoC6\pdl\drivers/peripheral/gpio/cy_gpio.h **** /*******************************************************************************
1582:Generated_Source\PSoC6\pdl\drivers/peripheral/gpio/cy_gpio.h **** * Function Name: Cy_GPIO_ClearInterrupt
1583:Generated_Source\PSoC6\pdl\drivers/peripheral/gpio/cy_gpio.h **** ****************************************************************************//**
1584:Generated_Source\PSoC6\pdl\drivers/peripheral/gpio/cy_gpio.h **** *
1585:Generated_Source\PSoC6\pdl\drivers/peripheral/gpio/cy_gpio.h **** * Clears the triggered pin interrupt.
1586:Generated_Source\PSoC6\pdl\drivers/peripheral/gpio/cy_gpio.h **** *
1587:Generated_Source\PSoC6\pdl\drivers/peripheral/gpio/cy_gpio.h **** * \param base
1588:Generated_Source\PSoC6\pdl\drivers/peripheral/gpio/cy_gpio.h **** * Pointer to the pin's port register base address
1589:Generated_Source\PSoC6\pdl\drivers/peripheral/gpio/cy_gpio.h **** *
1590:Generated_Source\PSoC6\pdl\drivers/peripheral/gpio/cy_gpio.h **** * \param pinNum
1591:Generated_Source\PSoC6\pdl\drivers/peripheral/gpio/cy_gpio.h **** * Position of the pin bit-field within the port register
1592:Generated_Source\PSoC6\pdl\drivers/peripheral/gpio/cy_gpio.h **** * Bit position 8 is the routed pin through the port glitch filter.
ARM GAS  C:\Users\jlabe\AppData\Local\Temp\ccQBWUqN.s 			page 35


1593:Generated_Source\PSoC6\pdl\drivers/peripheral/gpio/cy_gpio.h **** *
1594:Generated_Source\PSoC6\pdl\drivers/peripheral/gpio/cy_gpio.h **** * \funcusage
1595:Generated_Source\PSoC6\pdl\drivers/peripheral/gpio/cy_gpio.h **** * \snippet gpio/gpio_v1_10_sut_01.cydsn/main_cm4.c snippet_Cy_GPIO_ClearInterrupt
1596:Generated_Source\PSoC6\pdl\drivers/peripheral/gpio/cy_gpio.h **** *
1597:Generated_Source\PSoC6\pdl\drivers/peripheral/gpio/cy_gpio.h **** *******************************************************************************/
1598:Generated_Source\PSoC6\pdl\drivers/peripheral/gpio/cy_gpio.h **** __STATIC_INLINE void Cy_GPIO_ClearInterrupt(GPIO_PRT_Type* base, uint32_t pinNum)
1599:Generated_Source\PSoC6\pdl\drivers/peripheral/gpio/cy_gpio.h **** {
1600:Generated_Source\PSoC6\pdl\drivers/peripheral/gpio/cy_gpio.h ****     CY_ASSERT_L2(CY_GPIO_IS_FILTER_PIN_VALID(pinNum));
1601:Generated_Source\PSoC6\pdl\drivers/peripheral/gpio/cy_gpio.h ****     
1602:Generated_Source\PSoC6\pdl\drivers/peripheral/gpio/cy_gpio.h ****     /* Any INTR MMIO registers AHB clearing must be preceded with an AHB read access */
1603:Generated_Source\PSoC6\pdl\drivers/peripheral/gpio/cy_gpio.h ****     (void)GPIO_PRT_INTR(base);
 219              		.loc 2 1603 0
 220 000c 0B4B     		ldr	r3, .L13+4
 221 000e 5A69     		ldr	r2, [r3, #20]
1604:Generated_Source\PSoC6\pdl\drivers/peripheral/gpio/cy_gpio.h **** 
1605:Generated_Source\PSoC6\pdl\drivers/peripheral/gpio/cy_gpio.h ****     GPIO_PRT_INTR(base) = CY_GPIO_INTR_STATUS_MASK << pinNum;
 222              		.loc 2 1605 0
 223 0010 1022     		movs	r2, #16
 224 0012 5A61     		str	r2, [r3, #20]
1606:Generated_Source\PSoC6\pdl\drivers/peripheral/gpio/cy_gpio.h **** 
1607:Generated_Source\PSoC6\pdl\drivers/peripheral/gpio/cy_gpio.h ****     /* This read ensures that the initial write has been flushed out to the hardware */
1608:Generated_Source\PSoC6\pdl\drivers/peripheral/gpio/cy_gpio.h ****     (void)GPIO_PRT_INTR(base);
 225              		.loc 2 1608 0
 226 0014 5B69     		ldr	r3, [r3, #20]
 227              	.LVL12:
 228              	.LBE13:
 229              	.LBE12:
 129:Interface.c   ****     Cy_GPIO_ClearInterrupt(BOUTON_0_PORT, BOUTON_0_NUM);
 130:Interface.c   ****     NVIC_ClearPendingIRQ(Bouton_ISR_cfg.intrSrc);
 230              		.loc 1 130 0
 231 0016 0A4B     		ldr	r3, .L13+8
 232 0018 B3F90030 		ldrsh	r3, [r3]
 233              	.LVL13:
 234              	.LBB14:
 235              	.LBB15:
 236              		.file 3 ".\\CMSIS\\Core\\Include/core_cm4.h"
   1:.\CMSIS\Core\Include/core_cm4.h **** /**************************************************************************//**
   2:.\CMSIS\Core\Include/core_cm4.h ****  * @file     core_cm4.h
   3:.\CMSIS\Core\Include/core_cm4.h ****  * @brief    CMSIS Cortex-M4 Core Peripheral Access Layer Header File
   4:.\CMSIS\Core\Include/core_cm4.h ****  * @version  V5.0.7
   5:.\CMSIS\Core\Include/core_cm4.h ****  * @date     28. May 2018
   6:.\CMSIS\Core\Include/core_cm4.h ****  ******************************************************************************/
   7:.\CMSIS\Core\Include/core_cm4.h **** /*
   8:.\CMSIS\Core\Include/core_cm4.h ****  * Copyright (c) 2009-2017 ARM Limited. All rights reserved.
   9:.\CMSIS\Core\Include/core_cm4.h ****  *
  10:.\CMSIS\Core\Include/core_cm4.h ****  * SPDX-License-Identifier: Apache-2.0
  11:.\CMSIS\Core\Include/core_cm4.h ****  *
  12:.\CMSIS\Core\Include/core_cm4.h ****  * Licensed under the Apache License, Version 2.0 (the License); you may
  13:.\CMSIS\Core\Include/core_cm4.h ****  * not use this file except in compliance with the License.
  14:.\CMSIS\Core\Include/core_cm4.h ****  * You may obtain a copy of the License at
  15:.\CMSIS\Core\Include/core_cm4.h ****  *
  16:.\CMSIS\Core\Include/core_cm4.h ****  * www.apache.org/licenses/LICENSE-2.0
  17:.\CMSIS\Core\Include/core_cm4.h ****  *
  18:.\CMSIS\Core\Include/core_cm4.h ****  * Unless required by applicable law or agreed to in writing, software
  19:.\CMSIS\Core\Include/core_cm4.h ****  * distributed under the License is distributed on an AS IS BASIS, WITHOUT
  20:.\CMSIS\Core\Include/core_cm4.h ****  * WARRANTIES OR CONDITIONS OF ANY KIND, either express or implied.
  21:.\CMSIS\Core\Include/core_cm4.h ****  * See the License for the specific language governing permissions and
ARM GAS  C:\Users\jlabe\AppData\Local\Temp\ccQBWUqN.s 			page 36


  22:.\CMSIS\Core\Include/core_cm4.h ****  * limitations under the License.
  23:.\CMSIS\Core\Include/core_cm4.h ****  */
  24:.\CMSIS\Core\Include/core_cm4.h **** 
  25:.\CMSIS\Core\Include/core_cm4.h **** #if   defined ( __ICCARM__ )
  26:.\CMSIS\Core\Include/core_cm4.h ****   #pragma system_include         /* treat file as system include file for MISRA check */
  27:.\CMSIS\Core\Include/core_cm4.h **** #elif defined (__clang__)
  28:.\CMSIS\Core\Include/core_cm4.h ****   #pragma clang system_header   /* treat file as system include file */
  29:.\CMSIS\Core\Include/core_cm4.h **** #endif
  30:.\CMSIS\Core\Include/core_cm4.h **** 
  31:.\CMSIS\Core\Include/core_cm4.h **** #ifndef __CORE_CM4_H_GENERIC
  32:.\CMSIS\Core\Include/core_cm4.h **** #define __CORE_CM4_H_GENERIC
  33:.\CMSIS\Core\Include/core_cm4.h **** 
  34:.\CMSIS\Core\Include/core_cm4.h **** #include <stdint.h>
  35:.\CMSIS\Core\Include/core_cm4.h **** 
  36:.\CMSIS\Core\Include/core_cm4.h **** #ifdef __cplusplus
  37:.\CMSIS\Core\Include/core_cm4.h ****  extern "C" {
  38:.\CMSIS\Core\Include/core_cm4.h **** #endif
  39:.\CMSIS\Core\Include/core_cm4.h **** 
  40:.\CMSIS\Core\Include/core_cm4.h **** /**
  41:.\CMSIS\Core\Include/core_cm4.h ****   \page CMSIS_MISRA_Exceptions  MISRA-C:2004 Compliance Exceptions
  42:.\CMSIS\Core\Include/core_cm4.h ****   CMSIS violates the following MISRA-C:2004 rules:
  43:.\CMSIS\Core\Include/core_cm4.h **** 
  44:.\CMSIS\Core\Include/core_cm4.h ****    \li Required Rule 8.5, object/function definition in header file.<br>
  45:.\CMSIS\Core\Include/core_cm4.h ****      Function definitions in header files are used to allow 'inlining'.
  46:.\CMSIS\Core\Include/core_cm4.h **** 
  47:.\CMSIS\Core\Include/core_cm4.h ****    \li Required Rule 18.4, declaration of union type or object of union type: '{...}'.<br>
  48:.\CMSIS\Core\Include/core_cm4.h ****      Unions are used for effective representation of core registers.
  49:.\CMSIS\Core\Include/core_cm4.h **** 
  50:.\CMSIS\Core\Include/core_cm4.h ****    \li Advisory Rule 19.7, Function-like macro defined.<br>
  51:.\CMSIS\Core\Include/core_cm4.h ****      Function-like macros are used to allow more efficient code.
  52:.\CMSIS\Core\Include/core_cm4.h ****  */
  53:.\CMSIS\Core\Include/core_cm4.h **** 
  54:.\CMSIS\Core\Include/core_cm4.h **** 
  55:.\CMSIS\Core\Include/core_cm4.h **** /*******************************************************************************
  56:.\CMSIS\Core\Include/core_cm4.h ****  *                 CMSIS definitions
  57:.\CMSIS\Core\Include/core_cm4.h ****  ******************************************************************************/
  58:.\CMSIS\Core\Include/core_cm4.h **** /**
  59:.\CMSIS\Core\Include/core_cm4.h ****   \ingroup Cortex_M4
  60:.\CMSIS\Core\Include/core_cm4.h ****   @{
  61:.\CMSIS\Core\Include/core_cm4.h ****  */
  62:.\CMSIS\Core\Include/core_cm4.h **** 
  63:.\CMSIS\Core\Include/core_cm4.h **** #include "cmsis_version.h"
  64:.\CMSIS\Core\Include/core_cm4.h ****  
  65:.\CMSIS\Core\Include/core_cm4.h **** /* CMSIS CM4 definitions */
  66:.\CMSIS\Core\Include/core_cm4.h **** #define __CM4_CMSIS_VERSION_MAIN  (__CM_CMSIS_VERSION_MAIN)              /*!< \deprecated [31:16] C
  67:.\CMSIS\Core\Include/core_cm4.h **** #define __CM4_CMSIS_VERSION_SUB   (__CM_CMSIS_VERSION_SUB)               /*!< \deprecated [15:0]  C
  68:.\CMSIS\Core\Include/core_cm4.h **** #define __CM4_CMSIS_VERSION       ((__CM4_CMSIS_VERSION_MAIN << 16U) | \
  69:.\CMSIS\Core\Include/core_cm4.h ****                                     __CM4_CMSIS_VERSION_SUB           )  /*!< \deprecated CMSIS HAL
  70:.\CMSIS\Core\Include/core_cm4.h **** 
  71:.\CMSIS\Core\Include/core_cm4.h **** #define __CORTEX_M                (4U)                                   /*!< Cortex-M Core */
  72:.\CMSIS\Core\Include/core_cm4.h **** 
  73:.\CMSIS\Core\Include/core_cm4.h **** /** __FPU_USED indicates whether an FPU is used or not.
  74:.\CMSIS\Core\Include/core_cm4.h ****     For this, __FPU_PRESENT has to be checked prior to making use of FPU specific registers and fun
  75:.\CMSIS\Core\Include/core_cm4.h **** */
  76:.\CMSIS\Core\Include/core_cm4.h **** #if defined ( __CC_ARM )
  77:.\CMSIS\Core\Include/core_cm4.h ****   #if defined __TARGET_FPU_VFP
  78:.\CMSIS\Core\Include/core_cm4.h ****     #if defined (__FPU_PRESENT) && (__FPU_PRESENT == 1U)
ARM GAS  C:\Users\jlabe\AppData\Local\Temp\ccQBWUqN.s 			page 37


  79:.\CMSIS\Core\Include/core_cm4.h ****       #define __FPU_USED       1U
  80:.\CMSIS\Core\Include/core_cm4.h ****     #else
  81:.\CMSIS\Core\Include/core_cm4.h ****       #error "Compiler generates FPU instructions for a device without an FPU (check __FPU_PRESENT)
  82:.\CMSIS\Core\Include/core_cm4.h ****       #define __FPU_USED       0U
  83:.\CMSIS\Core\Include/core_cm4.h ****     #endif
  84:.\CMSIS\Core\Include/core_cm4.h ****   #else
  85:.\CMSIS\Core\Include/core_cm4.h ****     #define __FPU_USED         0U
  86:.\CMSIS\Core\Include/core_cm4.h ****   #endif
  87:.\CMSIS\Core\Include/core_cm4.h **** 
  88:.\CMSIS\Core\Include/core_cm4.h **** #elif defined (__ARMCC_VERSION) && (__ARMCC_VERSION >= 6010050)
  89:.\CMSIS\Core\Include/core_cm4.h ****   #if defined __ARM_PCS_VFP
  90:.\CMSIS\Core\Include/core_cm4.h ****     #if defined (__FPU_PRESENT) && (__FPU_PRESENT == 1U)
  91:.\CMSIS\Core\Include/core_cm4.h ****       #define __FPU_USED       1U
  92:.\CMSIS\Core\Include/core_cm4.h ****     #else
  93:.\CMSIS\Core\Include/core_cm4.h ****       #warning "Compiler generates FPU instructions for a device without an FPU (check __FPU_PRESEN
  94:.\CMSIS\Core\Include/core_cm4.h ****       #define __FPU_USED       0U
  95:.\CMSIS\Core\Include/core_cm4.h ****     #endif
  96:.\CMSIS\Core\Include/core_cm4.h ****   #else
  97:.\CMSIS\Core\Include/core_cm4.h ****     #define __FPU_USED         0U
  98:.\CMSIS\Core\Include/core_cm4.h ****   #endif
  99:.\CMSIS\Core\Include/core_cm4.h **** 
 100:.\CMSIS\Core\Include/core_cm4.h **** #elif defined ( __GNUC__ )
 101:.\CMSIS\Core\Include/core_cm4.h ****   #if defined (__VFP_FP__) && !defined(__SOFTFP__)
 102:.\CMSIS\Core\Include/core_cm4.h ****     #if defined (__FPU_PRESENT) && (__FPU_PRESENT == 1U)
 103:.\CMSIS\Core\Include/core_cm4.h ****       #define __FPU_USED       1U
 104:.\CMSIS\Core\Include/core_cm4.h ****     #else
 105:.\CMSIS\Core\Include/core_cm4.h ****       #error "Compiler generates FPU instructions for a device without an FPU (check __FPU_PRESENT)
 106:.\CMSIS\Core\Include/core_cm4.h ****       #define __FPU_USED       0U
 107:.\CMSIS\Core\Include/core_cm4.h ****     #endif
 108:.\CMSIS\Core\Include/core_cm4.h ****   #else
 109:.\CMSIS\Core\Include/core_cm4.h ****     #define __FPU_USED         0U
 110:.\CMSIS\Core\Include/core_cm4.h ****   #endif
 111:.\CMSIS\Core\Include/core_cm4.h **** 
 112:.\CMSIS\Core\Include/core_cm4.h **** #elif defined ( __ICCARM__ )
 113:.\CMSIS\Core\Include/core_cm4.h ****   #if defined __ARMVFP__
 114:.\CMSIS\Core\Include/core_cm4.h ****     #if defined (__FPU_PRESENT) && (__FPU_PRESENT == 1U)
 115:.\CMSIS\Core\Include/core_cm4.h ****       #define __FPU_USED       1U
 116:.\CMSIS\Core\Include/core_cm4.h ****     #else
 117:.\CMSIS\Core\Include/core_cm4.h ****       #error "Compiler generates FPU instructions for a device without an FPU (check __FPU_PRESENT)
 118:.\CMSIS\Core\Include/core_cm4.h ****       #define __FPU_USED       0U
 119:.\CMSIS\Core\Include/core_cm4.h ****     #endif
 120:.\CMSIS\Core\Include/core_cm4.h ****   #else
 121:.\CMSIS\Core\Include/core_cm4.h ****     #define __FPU_USED         0U
 122:.\CMSIS\Core\Include/core_cm4.h ****   #endif
 123:.\CMSIS\Core\Include/core_cm4.h **** 
 124:.\CMSIS\Core\Include/core_cm4.h **** #elif defined ( __TI_ARM__ )
 125:.\CMSIS\Core\Include/core_cm4.h ****   #if defined __TI_VFP_SUPPORT__
 126:.\CMSIS\Core\Include/core_cm4.h ****     #if defined (__FPU_PRESENT) && (__FPU_PRESENT == 1U)
 127:.\CMSIS\Core\Include/core_cm4.h ****       #define __FPU_USED       1U
 128:.\CMSIS\Core\Include/core_cm4.h ****     #else
 129:.\CMSIS\Core\Include/core_cm4.h ****       #error "Compiler generates FPU instructions for a device without an FPU (check __FPU_PRESENT)
 130:.\CMSIS\Core\Include/core_cm4.h ****       #define __FPU_USED       0U
 131:.\CMSIS\Core\Include/core_cm4.h ****     #endif
 132:.\CMSIS\Core\Include/core_cm4.h ****   #else
 133:.\CMSIS\Core\Include/core_cm4.h ****     #define __FPU_USED         0U
 134:.\CMSIS\Core\Include/core_cm4.h ****   #endif
 135:.\CMSIS\Core\Include/core_cm4.h **** 
ARM GAS  C:\Users\jlabe\AppData\Local\Temp\ccQBWUqN.s 			page 38


 136:.\CMSIS\Core\Include/core_cm4.h **** #elif defined ( __TASKING__ )
 137:.\CMSIS\Core\Include/core_cm4.h ****   #if defined __FPU_VFP__
 138:.\CMSIS\Core\Include/core_cm4.h ****     #if defined (__FPU_PRESENT) && (__FPU_PRESENT == 1U)
 139:.\CMSIS\Core\Include/core_cm4.h ****       #define __FPU_USED       1U
 140:.\CMSIS\Core\Include/core_cm4.h ****     #else
 141:.\CMSIS\Core\Include/core_cm4.h ****       #error "Compiler generates FPU instructions for a device without an FPU (check __FPU_PRESENT)
 142:.\CMSIS\Core\Include/core_cm4.h ****       #define __FPU_USED       0U
 143:.\CMSIS\Core\Include/core_cm4.h ****     #endif
 144:.\CMSIS\Core\Include/core_cm4.h ****   #else
 145:.\CMSIS\Core\Include/core_cm4.h ****     #define __FPU_USED         0U
 146:.\CMSIS\Core\Include/core_cm4.h ****   #endif
 147:.\CMSIS\Core\Include/core_cm4.h **** 
 148:.\CMSIS\Core\Include/core_cm4.h **** #elif defined ( __CSMC__ )
 149:.\CMSIS\Core\Include/core_cm4.h ****   #if ( __CSMC__ & 0x400U)
 150:.\CMSIS\Core\Include/core_cm4.h ****     #if defined (__FPU_PRESENT) && (__FPU_PRESENT == 1U)
 151:.\CMSIS\Core\Include/core_cm4.h ****       #define __FPU_USED       1U
 152:.\CMSIS\Core\Include/core_cm4.h ****     #else
 153:.\CMSIS\Core\Include/core_cm4.h ****       #error "Compiler generates FPU instructions for a device without an FPU (check __FPU_PRESENT)
 154:.\CMSIS\Core\Include/core_cm4.h ****       #define __FPU_USED       0U
 155:.\CMSIS\Core\Include/core_cm4.h ****     #endif
 156:.\CMSIS\Core\Include/core_cm4.h ****   #else
 157:.\CMSIS\Core\Include/core_cm4.h ****     #define __FPU_USED         0U
 158:.\CMSIS\Core\Include/core_cm4.h ****   #endif
 159:.\CMSIS\Core\Include/core_cm4.h **** 
 160:.\CMSIS\Core\Include/core_cm4.h **** #endif
 161:.\CMSIS\Core\Include/core_cm4.h **** 
 162:.\CMSIS\Core\Include/core_cm4.h **** #include "cmsis_compiler.h"               /* CMSIS compiler specific defines */
 163:.\CMSIS\Core\Include/core_cm4.h **** 
 164:.\CMSIS\Core\Include/core_cm4.h **** 
 165:.\CMSIS\Core\Include/core_cm4.h **** #ifdef __cplusplus
 166:.\CMSIS\Core\Include/core_cm4.h **** }
 167:.\CMSIS\Core\Include/core_cm4.h **** #endif
 168:.\CMSIS\Core\Include/core_cm4.h **** 
 169:.\CMSIS\Core\Include/core_cm4.h **** #endif /* __CORE_CM4_H_GENERIC */
 170:.\CMSIS\Core\Include/core_cm4.h **** 
 171:.\CMSIS\Core\Include/core_cm4.h **** #ifndef __CMSIS_GENERIC
 172:.\CMSIS\Core\Include/core_cm4.h **** 
 173:.\CMSIS\Core\Include/core_cm4.h **** #ifndef __CORE_CM4_H_DEPENDANT
 174:.\CMSIS\Core\Include/core_cm4.h **** #define __CORE_CM4_H_DEPENDANT
 175:.\CMSIS\Core\Include/core_cm4.h **** 
 176:.\CMSIS\Core\Include/core_cm4.h **** #ifdef __cplusplus
 177:.\CMSIS\Core\Include/core_cm4.h ****  extern "C" {
 178:.\CMSIS\Core\Include/core_cm4.h **** #endif
 179:.\CMSIS\Core\Include/core_cm4.h **** 
 180:.\CMSIS\Core\Include/core_cm4.h **** /* check device defines and use defaults */
 181:.\CMSIS\Core\Include/core_cm4.h **** #if defined __CHECK_DEVICE_DEFINES
 182:.\CMSIS\Core\Include/core_cm4.h ****   #ifndef __CM4_REV
 183:.\CMSIS\Core\Include/core_cm4.h ****     #define __CM4_REV               0x0000U
 184:.\CMSIS\Core\Include/core_cm4.h ****     #warning "__CM4_REV not defined in device header file; using default!"
 185:.\CMSIS\Core\Include/core_cm4.h ****   #endif
 186:.\CMSIS\Core\Include/core_cm4.h **** 
 187:.\CMSIS\Core\Include/core_cm4.h ****   #ifndef __FPU_PRESENT
 188:.\CMSIS\Core\Include/core_cm4.h ****     #define __FPU_PRESENT             0U
 189:.\CMSIS\Core\Include/core_cm4.h ****     #warning "__FPU_PRESENT not defined in device header file; using default!"
 190:.\CMSIS\Core\Include/core_cm4.h ****   #endif
 191:.\CMSIS\Core\Include/core_cm4.h **** 
 192:.\CMSIS\Core\Include/core_cm4.h ****   #ifndef __MPU_PRESENT
ARM GAS  C:\Users\jlabe\AppData\Local\Temp\ccQBWUqN.s 			page 39


 193:.\CMSIS\Core\Include/core_cm4.h ****     #define __MPU_PRESENT             0U
 194:.\CMSIS\Core\Include/core_cm4.h ****     #warning "__MPU_PRESENT not defined in device header file; using default!"
 195:.\CMSIS\Core\Include/core_cm4.h ****   #endif
 196:.\CMSIS\Core\Include/core_cm4.h **** 
 197:.\CMSIS\Core\Include/core_cm4.h ****   #ifndef __NVIC_PRIO_BITS
 198:.\CMSIS\Core\Include/core_cm4.h ****     #define __NVIC_PRIO_BITS          3U
 199:.\CMSIS\Core\Include/core_cm4.h ****     #warning "__NVIC_PRIO_BITS not defined in device header file; using default!"
 200:.\CMSIS\Core\Include/core_cm4.h ****   #endif
 201:.\CMSIS\Core\Include/core_cm4.h **** 
 202:.\CMSIS\Core\Include/core_cm4.h ****   #ifndef __Vendor_SysTickConfig
 203:.\CMSIS\Core\Include/core_cm4.h ****     #define __Vendor_SysTickConfig    0U
 204:.\CMSIS\Core\Include/core_cm4.h ****     #warning "__Vendor_SysTickConfig not defined in device header file; using default!"
 205:.\CMSIS\Core\Include/core_cm4.h ****   #endif
 206:.\CMSIS\Core\Include/core_cm4.h **** #endif
 207:.\CMSIS\Core\Include/core_cm4.h **** 
 208:.\CMSIS\Core\Include/core_cm4.h **** /* IO definitions (access restrictions to peripheral registers) */
 209:.\CMSIS\Core\Include/core_cm4.h **** /**
 210:.\CMSIS\Core\Include/core_cm4.h ****     \defgroup CMSIS_glob_defs CMSIS Global Defines
 211:.\CMSIS\Core\Include/core_cm4.h **** 
 212:.\CMSIS\Core\Include/core_cm4.h ****     <strong>IO Type Qualifiers</strong> are used
 213:.\CMSIS\Core\Include/core_cm4.h ****     \li to specify the access to peripheral variables.
 214:.\CMSIS\Core\Include/core_cm4.h ****     \li for automatic generation of peripheral register debug information.
 215:.\CMSIS\Core\Include/core_cm4.h **** */
 216:.\CMSIS\Core\Include/core_cm4.h **** #ifdef __cplusplus
 217:.\CMSIS\Core\Include/core_cm4.h ****   #define   __I     volatile             /*!< Defines 'read only' permissions */
 218:.\CMSIS\Core\Include/core_cm4.h **** #else
 219:.\CMSIS\Core\Include/core_cm4.h ****   #define   __I     volatile const       /*!< Defines 'read only' permissions */
 220:.\CMSIS\Core\Include/core_cm4.h **** #endif
 221:.\CMSIS\Core\Include/core_cm4.h **** #define     __O     volatile             /*!< Defines 'write only' permissions */
 222:.\CMSIS\Core\Include/core_cm4.h **** #define     __IO    volatile             /*!< Defines 'read / write' permissions */
 223:.\CMSIS\Core\Include/core_cm4.h **** 
 224:.\CMSIS\Core\Include/core_cm4.h **** /* following defines should be used for structure members */
 225:.\CMSIS\Core\Include/core_cm4.h **** #define     __IM     volatile const      /*! Defines 'read only' structure member permissions */
 226:.\CMSIS\Core\Include/core_cm4.h **** #define     __OM     volatile            /*! Defines 'write only' structure member permissions */
 227:.\CMSIS\Core\Include/core_cm4.h **** #define     __IOM    volatile            /*! Defines 'read / write' structure member permissions */
 228:.\CMSIS\Core\Include/core_cm4.h **** 
 229:.\CMSIS\Core\Include/core_cm4.h **** /*@} end of group Cortex_M4 */
 230:.\CMSIS\Core\Include/core_cm4.h **** 
 231:.\CMSIS\Core\Include/core_cm4.h **** 
 232:.\CMSIS\Core\Include/core_cm4.h **** 
 233:.\CMSIS\Core\Include/core_cm4.h **** /*******************************************************************************
 234:.\CMSIS\Core\Include/core_cm4.h ****  *                 Register Abstraction
 235:.\CMSIS\Core\Include/core_cm4.h ****   Core Register contain:
 236:.\CMSIS\Core\Include/core_cm4.h ****   - Core Register
 237:.\CMSIS\Core\Include/core_cm4.h ****   - Core NVIC Register
 238:.\CMSIS\Core\Include/core_cm4.h ****   - Core SCB Register
 239:.\CMSIS\Core\Include/core_cm4.h ****   - Core SysTick Register
 240:.\CMSIS\Core\Include/core_cm4.h ****   - Core Debug Register
 241:.\CMSIS\Core\Include/core_cm4.h ****   - Core MPU Register
 242:.\CMSIS\Core\Include/core_cm4.h ****   - Core FPU Register
 243:.\CMSIS\Core\Include/core_cm4.h ****  ******************************************************************************/
 244:.\CMSIS\Core\Include/core_cm4.h **** /**
 245:.\CMSIS\Core\Include/core_cm4.h ****   \defgroup CMSIS_core_register Defines and Type Definitions
 246:.\CMSIS\Core\Include/core_cm4.h ****   \brief Type definitions and defines for Cortex-M processor based devices.
 247:.\CMSIS\Core\Include/core_cm4.h **** */
 248:.\CMSIS\Core\Include/core_cm4.h **** 
 249:.\CMSIS\Core\Include/core_cm4.h **** /**
ARM GAS  C:\Users\jlabe\AppData\Local\Temp\ccQBWUqN.s 			page 40


 250:.\CMSIS\Core\Include/core_cm4.h ****   \ingroup    CMSIS_core_register
 251:.\CMSIS\Core\Include/core_cm4.h ****   \defgroup   CMSIS_CORE  Status and Control Registers
 252:.\CMSIS\Core\Include/core_cm4.h ****   \brief      Core Register type definitions.
 253:.\CMSIS\Core\Include/core_cm4.h ****   @{
 254:.\CMSIS\Core\Include/core_cm4.h ****  */
 255:.\CMSIS\Core\Include/core_cm4.h **** 
 256:.\CMSIS\Core\Include/core_cm4.h **** /**
 257:.\CMSIS\Core\Include/core_cm4.h ****   \brief  Union type to access the Application Program Status Register (APSR).
 258:.\CMSIS\Core\Include/core_cm4.h ****  */
 259:.\CMSIS\Core\Include/core_cm4.h **** typedef union
 260:.\CMSIS\Core\Include/core_cm4.h **** {
 261:.\CMSIS\Core\Include/core_cm4.h ****   struct
 262:.\CMSIS\Core\Include/core_cm4.h ****   {
 263:.\CMSIS\Core\Include/core_cm4.h ****     uint32_t _reserved0:16;              /*!< bit:  0..15  Reserved */
 264:.\CMSIS\Core\Include/core_cm4.h ****     uint32_t GE:4;                       /*!< bit: 16..19  Greater than or Equal flags */
 265:.\CMSIS\Core\Include/core_cm4.h ****     uint32_t _reserved1:7;               /*!< bit: 20..26  Reserved */
 266:.\CMSIS\Core\Include/core_cm4.h ****     uint32_t Q:1;                        /*!< bit:     27  Saturation condition flag */
 267:.\CMSIS\Core\Include/core_cm4.h ****     uint32_t V:1;                        /*!< bit:     28  Overflow condition code flag */
 268:.\CMSIS\Core\Include/core_cm4.h ****     uint32_t C:1;                        /*!< bit:     29  Carry condition code flag */
 269:.\CMSIS\Core\Include/core_cm4.h ****     uint32_t Z:1;                        /*!< bit:     30  Zero condition code flag */
 270:.\CMSIS\Core\Include/core_cm4.h ****     uint32_t N:1;                        /*!< bit:     31  Negative condition code flag */
 271:.\CMSIS\Core\Include/core_cm4.h ****   } b;                                   /*!< Structure used for bit  access */
 272:.\CMSIS\Core\Include/core_cm4.h ****   uint32_t w;                            /*!< Type      used for word access */
 273:.\CMSIS\Core\Include/core_cm4.h **** } APSR_Type;
 274:.\CMSIS\Core\Include/core_cm4.h **** 
 275:.\CMSIS\Core\Include/core_cm4.h **** /* APSR Register Definitions */
 276:.\CMSIS\Core\Include/core_cm4.h **** #define APSR_N_Pos                         31U                                            /*!< APSR
 277:.\CMSIS\Core\Include/core_cm4.h **** #define APSR_N_Msk                         (1UL << APSR_N_Pos)                            /*!< APSR
 278:.\CMSIS\Core\Include/core_cm4.h **** 
 279:.\CMSIS\Core\Include/core_cm4.h **** #define APSR_Z_Pos                         30U                                            /*!< APSR
 280:.\CMSIS\Core\Include/core_cm4.h **** #define APSR_Z_Msk                         (1UL << APSR_Z_Pos)                            /*!< APSR
 281:.\CMSIS\Core\Include/core_cm4.h **** 
 282:.\CMSIS\Core\Include/core_cm4.h **** #define APSR_C_Pos                         29U                                            /*!< APSR
 283:.\CMSIS\Core\Include/core_cm4.h **** #define APSR_C_Msk                         (1UL << APSR_C_Pos)                            /*!< APSR
 284:.\CMSIS\Core\Include/core_cm4.h **** 
 285:.\CMSIS\Core\Include/core_cm4.h **** #define APSR_V_Pos                         28U                                            /*!< APSR
 286:.\CMSIS\Core\Include/core_cm4.h **** #define APSR_V_Msk                         (1UL << APSR_V_Pos)                            /*!< APSR
 287:.\CMSIS\Core\Include/core_cm4.h **** 
 288:.\CMSIS\Core\Include/core_cm4.h **** #define APSR_Q_Pos                         27U                                            /*!< APSR
 289:.\CMSIS\Core\Include/core_cm4.h **** #define APSR_Q_Msk                         (1UL << APSR_Q_Pos)                            /*!< APSR
 290:.\CMSIS\Core\Include/core_cm4.h **** 
 291:.\CMSIS\Core\Include/core_cm4.h **** #define APSR_GE_Pos                        16U                                            /*!< APSR
 292:.\CMSIS\Core\Include/core_cm4.h **** #define APSR_GE_Msk                        (0xFUL << APSR_GE_Pos)                         /*!< APSR
 293:.\CMSIS\Core\Include/core_cm4.h **** 
 294:.\CMSIS\Core\Include/core_cm4.h **** 
 295:.\CMSIS\Core\Include/core_cm4.h **** /**
 296:.\CMSIS\Core\Include/core_cm4.h ****   \brief  Union type to access the Interrupt Program Status Register (IPSR).
 297:.\CMSIS\Core\Include/core_cm4.h ****  */
 298:.\CMSIS\Core\Include/core_cm4.h **** typedef union
 299:.\CMSIS\Core\Include/core_cm4.h **** {
 300:.\CMSIS\Core\Include/core_cm4.h ****   struct
 301:.\CMSIS\Core\Include/core_cm4.h ****   {
 302:.\CMSIS\Core\Include/core_cm4.h ****     uint32_t ISR:9;                      /*!< bit:  0.. 8  Exception number */
 303:.\CMSIS\Core\Include/core_cm4.h ****     uint32_t _reserved0:23;              /*!< bit:  9..31  Reserved */
 304:.\CMSIS\Core\Include/core_cm4.h ****   } b;                                   /*!< Structure used for bit  access */
 305:.\CMSIS\Core\Include/core_cm4.h ****   uint32_t w;                            /*!< Type      used for word access */
 306:.\CMSIS\Core\Include/core_cm4.h **** } IPSR_Type;
ARM GAS  C:\Users\jlabe\AppData\Local\Temp\ccQBWUqN.s 			page 41


 307:.\CMSIS\Core\Include/core_cm4.h **** 
 308:.\CMSIS\Core\Include/core_cm4.h **** /* IPSR Register Definitions */
 309:.\CMSIS\Core\Include/core_cm4.h **** #define IPSR_ISR_Pos                        0U                                            /*!< IPSR
 310:.\CMSIS\Core\Include/core_cm4.h **** #define IPSR_ISR_Msk                       (0x1FFUL /*<< IPSR_ISR_Pos*/)                  /*!< IPSR
 311:.\CMSIS\Core\Include/core_cm4.h **** 
 312:.\CMSIS\Core\Include/core_cm4.h **** 
 313:.\CMSIS\Core\Include/core_cm4.h **** /**
 314:.\CMSIS\Core\Include/core_cm4.h ****   \brief  Union type to access the Special-Purpose Program Status Registers (xPSR).
 315:.\CMSIS\Core\Include/core_cm4.h ****  */
 316:.\CMSIS\Core\Include/core_cm4.h **** typedef union
 317:.\CMSIS\Core\Include/core_cm4.h **** {
 318:.\CMSIS\Core\Include/core_cm4.h ****   struct
 319:.\CMSIS\Core\Include/core_cm4.h ****   {
 320:.\CMSIS\Core\Include/core_cm4.h ****     uint32_t ISR:9;                      /*!< bit:  0.. 8  Exception number */
 321:.\CMSIS\Core\Include/core_cm4.h ****     uint32_t _reserved0:1;               /*!< bit:      9  Reserved */
 322:.\CMSIS\Core\Include/core_cm4.h ****     uint32_t ICI_IT_1:6;                 /*!< bit: 10..15  ICI/IT part 1 */
 323:.\CMSIS\Core\Include/core_cm4.h ****     uint32_t GE:4;                       /*!< bit: 16..19  Greater than or Equal flags */
 324:.\CMSIS\Core\Include/core_cm4.h ****     uint32_t _reserved1:4;               /*!< bit: 20..23  Reserved */
 325:.\CMSIS\Core\Include/core_cm4.h ****     uint32_t T:1;                        /*!< bit:     24  Thumb bit */
 326:.\CMSIS\Core\Include/core_cm4.h ****     uint32_t ICI_IT_2:2;                 /*!< bit: 25..26  ICI/IT part 2 */
 327:.\CMSIS\Core\Include/core_cm4.h ****     uint32_t Q:1;                        /*!< bit:     27  Saturation condition flag */
 328:.\CMSIS\Core\Include/core_cm4.h ****     uint32_t V:1;                        /*!< bit:     28  Overflow condition code flag */
 329:.\CMSIS\Core\Include/core_cm4.h ****     uint32_t C:1;                        /*!< bit:     29  Carry condition code flag */
 330:.\CMSIS\Core\Include/core_cm4.h ****     uint32_t Z:1;                        /*!< bit:     30  Zero condition code flag */
 331:.\CMSIS\Core\Include/core_cm4.h ****     uint32_t N:1;                        /*!< bit:     31  Negative condition code flag */
 332:.\CMSIS\Core\Include/core_cm4.h ****   } b;                                   /*!< Structure used for bit  access */
 333:.\CMSIS\Core\Include/core_cm4.h ****   uint32_t w;                            /*!< Type      used for word access */
 334:.\CMSIS\Core\Include/core_cm4.h **** } xPSR_Type;
 335:.\CMSIS\Core\Include/core_cm4.h **** 
 336:.\CMSIS\Core\Include/core_cm4.h **** /* xPSR Register Definitions */
 337:.\CMSIS\Core\Include/core_cm4.h **** #define xPSR_N_Pos                         31U                                            /*!< xPSR
 338:.\CMSIS\Core\Include/core_cm4.h **** #define xPSR_N_Msk                         (1UL << xPSR_N_Pos)                            /*!< xPSR
 339:.\CMSIS\Core\Include/core_cm4.h **** 
 340:.\CMSIS\Core\Include/core_cm4.h **** #define xPSR_Z_Pos                         30U                                            /*!< xPSR
 341:.\CMSIS\Core\Include/core_cm4.h **** #define xPSR_Z_Msk                         (1UL << xPSR_Z_Pos)                            /*!< xPSR
 342:.\CMSIS\Core\Include/core_cm4.h **** 
 343:.\CMSIS\Core\Include/core_cm4.h **** #define xPSR_C_Pos                         29U                                            /*!< xPSR
 344:.\CMSIS\Core\Include/core_cm4.h **** #define xPSR_C_Msk                         (1UL << xPSR_C_Pos)                            /*!< xPSR
 345:.\CMSIS\Core\Include/core_cm4.h **** 
 346:.\CMSIS\Core\Include/core_cm4.h **** #define xPSR_V_Pos                         28U                                            /*!< xPSR
 347:.\CMSIS\Core\Include/core_cm4.h **** #define xPSR_V_Msk                         (1UL << xPSR_V_Pos)                            /*!< xPSR
 348:.\CMSIS\Core\Include/core_cm4.h **** 
 349:.\CMSIS\Core\Include/core_cm4.h **** #define xPSR_Q_Pos                         27U                                            /*!< xPSR
 350:.\CMSIS\Core\Include/core_cm4.h **** #define xPSR_Q_Msk                         (1UL << xPSR_Q_Pos)                            /*!< xPSR
 351:.\CMSIS\Core\Include/core_cm4.h **** 
 352:.\CMSIS\Core\Include/core_cm4.h **** #define xPSR_ICI_IT_2_Pos                  25U                                            /*!< xPSR
 353:.\CMSIS\Core\Include/core_cm4.h **** #define xPSR_ICI_IT_2_Msk                  (3UL << xPSR_ICI_IT_2_Pos)                     /*!< xPSR
 354:.\CMSIS\Core\Include/core_cm4.h **** 
 355:.\CMSIS\Core\Include/core_cm4.h **** #define xPSR_T_Pos                         24U                                            /*!< xPSR
 356:.\CMSIS\Core\Include/core_cm4.h **** #define xPSR_T_Msk                         (1UL << xPSR_T_Pos)                            /*!< xPSR
 357:.\CMSIS\Core\Include/core_cm4.h **** 
 358:.\CMSIS\Core\Include/core_cm4.h **** #define xPSR_GE_Pos                        16U                                            /*!< xPSR
 359:.\CMSIS\Core\Include/core_cm4.h **** #define xPSR_GE_Msk                        (0xFUL << xPSR_GE_Pos)                         /*!< xPSR
 360:.\CMSIS\Core\Include/core_cm4.h **** 
 361:.\CMSIS\Core\Include/core_cm4.h **** #define xPSR_ICI_IT_1_Pos                  10U                                            /*!< xPSR
 362:.\CMSIS\Core\Include/core_cm4.h **** #define xPSR_ICI_IT_1_Msk                  (0x3FUL << xPSR_ICI_IT_1_Pos)                  /*!< xPSR
 363:.\CMSIS\Core\Include/core_cm4.h **** 
ARM GAS  C:\Users\jlabe\AppData\Local\Temp\ccQBWUqN.s 			page 42


 364:.\CMSIS\Core\Include/core_cm4.h **** #define xPSR_ISR_Pos                        0U                                            /*!< xPSR
 365:.\CMSIS\Core\Include/core_cm4.h **** #define xPSR_ISR_Msk                       (0x1FFUL /*<< xPSR_ISR_Pos*/)                  /*!< xPSR
 366:.\CMSIS\Core\Include/core_cm4.h **** 
 367:.\CMSIS\Core\Include/core_cm4.h **** 
 368:.\CMSIS\Core\Include/core_cm4.h **** /**
 369:.\CMSIS\Core\Include/core_cm4.h ****   \brief  Union type to access the Control Registers (CONTROL).
 370:.\CMSIS\Core\Include/core_cm4.h ****  */
 371:.\CMSIS\Core\Include/core_cm4.h **** typedef union
 372:.\CMSIS\Core\Include/core_cm4.h **** {
 373:.\CMSIS\Core\Include/core_cm4.h ****   struct
 374:.\CMSIS\Core\Include/core_cm4.h ****   {
 375:.\CMSIS\Core\Include/core_cm4.h ****     uint32_t nPRIV:1;                    /*!< bit:      0  Execution privilege in Thread mode */
 376:.\CMSIS\Core\Include/core_cm4.h ****     uint32_t SPSEL:1;                    /*!< bit:      1  Stack to be used */
 377:.\CMSIS\Core\Include/core_cm4.h ****     uint32_t FPCA:1;                     /*!< bit:      2  FP extension active flag */
 378:.\CMSIS\Core\Include/core_cm4.h ****     uint32_t _reserved0:29;              /*!< bit:  3..31  Reserved */
 379:.\CMSIS\Core\Include/core_cm4.h ****   } b;                                   /*!< Structure used for bit  access */
 380:.\CMSIS\Core\Include/core_cm4.h ****   uint32_t w;                            /*!< Type      used for word access */
 381:.\CMSIS\Core\Include/core_cm4.h **** } CONTROL_Type;
 382:.\CMSIS\Core\Include/core_cm4.h **** 
 383:.\CMSIS\Core\Include/core_cm4.h **** /* CONTROL Register Definitions */
 384:.\CMSIS\Core\Include/core_cm4.h **** #define CONTROL_FPCA_Pos                    2U                                            /*!< CONT
 385:.\CMSIS\Core\Include/core_cm4.h **** #define CONTROL_FPCA_Msk                   (1UL << CONTROL_FPCA_Pos)                      /*!< CONT
 386:.\CMSIS\Core\Include/core_cm4.h **** 
 387:.\CMSIS\Core\Include/core_cm4.h **** #define CONTROL_SPSEL_Pos                   1U                                            /*!< CONT
 388:.\CMSIS\Core\Include/core_cm4.h **** #define CONTROL_SPSEL_Msk                  (1UL << CONTROL_SPSEL_Pos)                     /*!< CONT
 389:.\CMSIS\Core\Include/core_cm4.h **** 
 390:.\CMSIS\Core\Include/core_cm4.h **** #define CONTROL_nPRIV_Pos                   0U                                            /*!< CONT
 391:.\CMSIS\Core\Include/core_cm4.h **** #define CONTROL_nPRIV_Msk                  (1UL /*<< CONTROL_nPRIV_Pos*/)                 /*!< CONT
 392:.\CMSIS\Core\Include/core_cm4.h **** 
 393:.\CMSIS\Core\Include/core_cm4.h **** /*@} end of group CMSIS_CORE */
 394:.\CMSIS\Core\Include/core_cm4.h **** 
 395:.\CMSIS\Core\Include/core_cm4.h **** 
 396:.\CMSIS\Core\Include/core_cm4.h **** /**
 397:.\CMSIS\Core\Include/core_cm4.h ****   \ingroup    CMSIS_core_register
 398:.\CMSIS\Core\Include/core_cm4.h ****   \defgroup   CMSIS_NVIC  Nested Vectored Interrupt Controller (NVIC)
 399:.\CMSIS\Core\Include/core_cm4.h ****   \brief      Type definitions for the NVIC Registers
 400:.\CMSIS\Core\Include/core_cm4.h ****   @{
 401:.\CMSIS\Core\Include/core_cm4.h ****  */
 402:.\CMSIS\Core\Include/core_cm4.h **** 
 403:.\CMSIS\Core\Include/core_cm4.h **** /**
 404:.\CMSIS\Core\Include/core_cm4.h ****   \brief  Structure type to access the Nested Vectored Interrupt Controller (NVIC).
 405:.\CMSIS\Core\Include/core_cm4.h ****  */
 406:.\CMSIS\Core\Include/core_cm4.h **** typedef struct
 407:.\CMSIS\Core\Include/core_cm4.h **** {
 408:.\CMSIS\Core\Include/core_cm4.h ****   __IOM uint32_t ISER[8U];               /*!< Offset: 0x000 (R/W)  Interrupt Set Enable Register */
 409:.\CMSIS\Core\Include/core_cm4.h ****         uint32_t RESERVED0[24U];
 410:.\CMSIS\Core\Include/core_cm4.h ****   __IOM uint32_t ICER[8U];               /*!< Offset: 0x080 (R/W)  Interrupt Clear Enable Register 
 411:.\CMSIS\Core\Include/core_cm4.h ****         uint32_t RSERVED1[24U];
 412:.\CMSIS\Core\Include/core_cm4.h ****   __IOM uint32_t ISPR[8U];               /*!< Offset: 0x100 (R/W)  Interrupt Set Pending Register *
 413:.\CMSIS\Core\Include/core_cm4.h ****         uint32_t RESERVED2[24U];
 414:.\CMSIS\Core\Include/core_cm4.h ****   __IOM uint32_t ICPR[8U];               /*!< Offset: 0x180 (R/W)  Interrupt Clear Pending Register
 415:.\CMSIS\Core\Include/core_cm4.h ****         uint32_t RESERVED3[24U];
 416:.\CMSIS\Core\Include/core_cm4.h ****   __IOM uint32_t IABR[8U];               /*!< Offset: 0x200 (R/W)  Interrupt Active bit Register */
 417:.\CMSIS\Core\Include/core_cm4.h ****         uint32_t RESERVED4[56U];
 418:.\CMSIS\Core\Include/core_cm4.h ****   __IOM uint8_t  IP[240U];               /*!< Offset: 0x300 (R/W)  Interrupt Priority Register (8Bi
 419:.\CMSIS\Core\Include/core_cm4.h ****         uint32_t RESERVED5[644U];
 420:.\CMSIS\Core\Include/core_cm4.h ****   __OM  uint32_t STIR;                   /*!< Offset: 0xE00 ( /W)  Software Trigger Interrupt Regis
ARM GAS  C:\Users\jlabe\AppData\Local\Temp\ccQBWUqN.s 			page 43


 421:.\CMSIS\Core\Include/core_cm4.h **** }  NVIC_Type;
 422:.\CMSIS\Core\Include/core_cm4.h **** 
 423:.\CMSIS\Core\Include/core_cm4.h **** /* Software Triggered Interrupt Register Definitions */
 424:.\CMSIS\Core\Include/core_cm4.h **** #define NVIC_STIR_INTID_Pos                 0U                                         /*!< STIR: I
 425:.\CMSIS\Core\Include/core_cm4.h **** #define NVIC_STIR_INTID_Msk                (0x1FFUL /*<< NVIC_STIR_INTID_Pos*/)        /*!< STIR: I
 426:.\CMSIS\Core\Include/core_cm4.h **** 
 427:.\CMSIS\Core\Include/core_cm4.h **** /*@} end of group CMSIS_NVIC */
 428:.\CMSIS\Core\Include/core_cm4.h **** 
 429:.\CMSIS\Core\Include/core_cm4.h **** 
 430:.\CMSIS\Core\Include/core_cm4.h **** /**
 431:.\CMSIS\Core\Include/core_cm4.h ****   \ingroup  CMSIS_core_register
 432:.\CMSIS\Core\Include/core_cm4.h ****   \defgroup CMSIS_SCB     System Control Block (SCB)
 433:.\CMSIS\Core\Include/core_cm4.h ****   \brief    Type definitions for the System Control Block Registers
 434:.\CMSIS\Core\Include/core_cm4.h ****   @{
 435:.\CMSIS\Core\Include/core_cm4.h ****  */
 436:.\CMSIS\Core\Include/core_cm4.h **** 
 437:.\CMSIS\Core\Include/core_cm4.h **** /**
 438:.\CMSIS\Core\Include/core_cm4.h ****   \brief  Structure type to access the System Control Block (SCB).
 439:.\CMSIS\Core\Include/core_cm4.h ****  */
 440:.\CMSIS\Core\Include/core_cm4.h **** typedef struct
 441:.\CMSIS\Core\Include/core_cm4.h **** {
 442:.\CMSIS\Core\Include/core_cm4.h ****   __IM  uint32_t CPUID;                  /*!< Offset: 0x000 (R/ )  CPUID Base Register */
 443:.\CMSIS\Core\Include/core_cm4.h ****   __IOM uint32_t ICSR;                   /*!< Offset: 0x004 (R/W)  Interrupt Control and State Regi
 444:.\CMSIS\Core\Include/core_cm4.h ****   __IOM uint32_t VTOR;                   /*!< Offset: 0x008 (R/W)  Vector Table Offset Register */
 445:.\CMSIS\Core\Include/core_cm4.h ****   __IOM uint32_t AIRCR;                  /*!< Offset: 0x00C (R/W)  Application Interrupt and Reset 
 446:.\CMSIS\Core\Include/core_cm4.h ****   __IOM uint32_t SCR;                    /*!< Offset: 0x010 (R/W)  System Control Register */
 447:.\CMSIS\Core\Include/core_cm4.h ****   __IOM uint32_t CCR;                    /*!< Offset: 0x014 (R/W)  Configuration Control Register *
 448:.\CMSIS\Core\Include/core_cm4.h ****   __IOM uint8_t  SHP[12U];               /*!< Offset: 0x018 (R/W)  System Handlers Priority Registe
 449:.\CMSIS\Core\Include/core_cm4.h ****   __IOM uint32_t SHCSR;                  /*!< Offset: 0x024 (R/W)  System Handler Control and State
 450:.\CMSIS\Core\Include/core_cm4.h ****   __IOM uint32_t CFSR;                   /*!< Offset: 0x028 (R/W)  Configurable Fault Status Regist
 451:.\CMSIS\Core\Include/core_cm4.h ****   __IOM uint32_t HFSR;                   /*!< Offset: 0x02C (R/W)  HardFault Status Register */
 452:.\CMSIS\Core\Include/core_cm4.h ****   __IOM uint32_t DFSR;                   /*!< Offset: 0x030 (R/W)  Debug Fault Status Register */
 453:.\CMSIS\Core\Include/core_cm4.h ****   __IOM uint32_t MMFAR;                  /*!< Offset: 0x034 (R/W)  MemManage Fault Address Register
 454:.\CMSIS\Core\Include/core_cm4.h ****   __IOM uint32_t BFAR;                   /*!< Offset: 0x038 (R/W)  BusFault Address Register */
 455:.\CMSIS\Core\Include/core_cm4.h ****   __IOM uint32_t AFSR;                   /*!< Offset: 0x03C (R/W)  Auxiliary Fault Status Register 
 456:.\CMSIS\Core\Include/core_cm4.h ****   __IM  uint32_t PFR[2U];                /*!< Offset: 0x040 (R/ )  Processor Feature Register */
 457:.\CMSIS\Core\Include/core_cm4.h ****   __IM  uint32_t DFR;                    /*!< Offset: 0x048 (R/ )  Debug Feature Register */
 458:.\CMSIS\Core\Include/core_cm4.h ****   __IM  uint32_t ADR;                    /*!< Offset: 0x04C (R/ )  Auxiliary Feature Register */
 459:.\CMSIS\Core\Include/core_cm4.h ****   __IM  uint32_t MMFR[4U];               /*!< Offset: 0x050 (R/ )  Memory Model Feature Register */
 460:.\CMSIS\Core\Include/core_cm4.h ****   __IM  uint32_t ISAR[5U];               /*!< Offset: 0x060 (R/ )  Instruction Set Attributes Regis
 461:.\CMSIS\Core\Include/core_cm4.h ****         uint32_t RESERVED0[5U];
 462:.\CMSIS\Core\Include/core_cm4.h ****   __IOM uint32_t CPACR;                  /*!< Offset: 0x088 (R/W)  Coprocessor Access Control Regis
 463:.\CMSIS\Core\Include/core_cm4.h **** } SCB_Type;
 464:.\CMSIS\Core\Include/core_cm4.h **** 
 465:.\CMSIS\Core\Include/core_cm4.h **** /* SCB CPUID Register Definitions */
 466:.\CMSIS\Core\Include/core_cm4.h **** #define SCB_CPUID_IMPLEMENTER_Pos          24U                                            /*!< SCB 
 467:.\CMSIS\Core\Include/core_cm4.h **** #define SCB_CPUID_IMPLEMENTER_Msk          (0xFFUL << SCB_CPUID_IMPLEMENTER_Pos)          /*!< SCB 
 468:.\CMSIS\Core\Include/core_cm4.h **** 
 469:.\CMSIS\Core\Include/core_cm4.h **** #define SCB_CPUID_VARIANT_Pos              20U                                            /*!< SCB 
 470:.\CMSIS\Core\Include/core_cm4.h **** #define SCB_CPUID_VARIANT_Msk              (0xFUL << SCB_CPUID_VARIANT_Pos)               /*!< SCB 
 471:.\CMSIS\Core\Include/core_cm4.h **** 
 472:.\CMSIS\Core\Include/core_cm4.h **** #define SCB_CPUID_ARCHITECTURE_Pos         16U                                            /*!< SCB 
 473:.\CMSIS\Core\Include/core_cm4.h **** #define SCB_CPUID_ARCHITECTURE_Msk         (0xFUL << SCB_CPUID_ARCHITECTURE_Pos)          /*!< SCB 
 474:.\CMSIS\Core\Include/core_cm4.h **** 
 475:.\CMSIS\Core\Include/core_cm4.h **** #define SCB_CPUID_PARTNO_Pos                4U                                            /*!< SCB 
 476:.\CMSIS\Core\Include/core_cm4.h **** #define SCB_CPUID_PARTNO_Msk               (0xFFFUL << SCB_CPUID_PARTNO_Pos)              /*!< SCB 
 477:.\CMSIS\Core\Include/core_cm4.h **** 
ARM GAS  C:\Users\jlabe\AppData\Local\Temp\ccQBWUqN.s 			page 44


 478:.\CMSIS\Core\Include/core_cm4.h **** #define SCB_CPUID_REVISION_Pos              0U                                            /*!< SCB 
 479:.\CMSIS\Core\Include/core_cm4.h **** #define SCB_CPUID_REVISION_Msk             (0xFUL /*<< SCB_CPUID_REVISION_Pos*/)          /*!< SCB 
 480:.\CMSIS\Core\Include/core_cm4.h **** 
 481:.\CMSIS\Core\Include/core_cm4.h **** /* SCB Interrupt Control State Register Definitions */
 482:.\CMSIS\Core\Include/core_cm4.h **** #define SCB_ICSR_NMIPENDSET_Pos            31U                                            /*!< SCB 
 483:.\CMSIS\Core\Include/core_cm4.h **** #define SCB_ICSR_NMIPENDSET_Msk            (1UL << SCB_ICSR_NMIPENDSET_Pos)               /*!< SCB 
 484:.\CMSIS\Core\Include/core_cm4.h **** 
 485:.\CMSIS\Core\Include/core_cm4.h **** #define SCB_ICSR_PENDSVSET_Pos             28U                                            /*!< SCB 
 486:.\CMSIS\Core\Include/core_cm4.h **** #define SCB_ICSR_PENDSVSET_Msk             (1UL << SCB_ICSR_PENDSVSET_Pos)                /*!< SCB 
 487:.\CMSIS\Core\Include/core_cm4.h **** 
 488:.\CMSIS\Core\Include/core_cm4.h **** #define SCB_ICSR_PENDSVCLR_Pos             27U                                            /*!< SCB 
 489:.\CMSIS\Core\Include/core_cm4.h **** #define SCB_ICSR_PENDSVCLR_Msk             (1UL << SCB_ICSR_PENDSVCLR_Pos)                /*!< SCB 
 490:.\CMSIS\Core\Include/core_cm4.h **** 
 491:.\CMSIS\Core\Include/core_cm4.h **** #define SCB_ICSR_PENDSTSET_Pos             26U                                            /*!< SCB 
 492:.\CMSIS\Core\Include/core_cm4.h **** #define SCB_ICSR_PENDSTSET_Msk             (1UL << SCB_ICSR_PENDSTSET_Pos)                /*!< SCB 
 493:.\CMSIS\Core\Include/core_cm4.h **** 
 494:.\CMSIS\Core\Include/core_cm4.h **** #define SCB_ICSR_PENDSTCLR_Pos             25U                                            /*!< SCB 
 495:.\CMSIS\Core\Include/core_cm4.h **** #define SCB_ICSR_PENDSTCLR_Msk             (1UL << SCB_ICSR_PENDSTCLR_Pos)                /*!< SCB 
 496:.\CMSIS\Core\Include/core_cm4.h **** 
 497:.\CMSIS\Core\Include/core_cm4.h **** #define SCB_ICSR_ISRPREEMPT_Pos            23U                                            /*!< SCB 
 498:.\CMSIS\Core\Include/core_cm4.h **** #define SCB_ICSR_ISRPREEMPT_Msk            (1UL << SCB_ICSR_ISRPREEMPT_Pos)               /*!< SCB 
 499:.\CMSIS\Core\Include/core_cm4.h **** 
 500:.\CMSIS\Core\Include/core_cm4.h **** #define SCB_ICSR_ISRPENDING_Pos            22U                                            /*!< SCB 
 501:.\CMSIS\Core\Include/core_cm4.h **** #define SCB_ICSR_ISRPENDING_Msk            (1UL << SCB_ICSR_ISRPENDING_Pos)               /*!< SCB 
 502:.\CMSIS\Core\Include/core_cm4.h **** 
 503:.\CMSIS\Core\Include/core_cm4.h **** #define SCB_ICSR_VECTPENDING_Pos           12U                                            /*!< SCB 
 504:.\CMSIS\Core\Include/core_cm4.h **** #define SCB_ICSR_VECTPENDING_Msk           (0x1FFUL << SCB_ICSR_VECTPENDING_Pos)          /*!< SCB 
 505:.\CMSIS\Core\Include/core_cm4.h **** 
 506:.\CMSIS\Core\Include/core_cm4.h **** #define SCB_ICSR_RETTOBASE_Pos             11U                                            /*!< SCB 
 507:.\CMSIS\Core\Include/core_cm4.h **** #define SCB_ICSR_RETTOBASE_Msk             (1UL << SCB_ICSR_RETTOBASE_Pos)                /*!< SCB 
 508:.\CMSIS\Core\Include/core_cm4.h **** 
 509:.\CMSIS\Core\Include/core_cm4.h **** #define SCB_ICSR_VECTACTIVE_Pos             0U                                            /*!< SCB 
 510:.\CMSIS\Core\Include/core_cm4.h **** #define SCB_ICSR_VECTACTIVE_Msk            (0x1FFUL /*<< SCB_ICSR_VECTACTIVE_Pos*/)       /*!< SCB 
 511:.\CMSIS\Core\Include/core_cm4.h **** 
 512:.\CMSIS\Core\Include/core_cm4.h **** /* SCB Vector Table Offset Register Definitions */
 513:.\CMSIS\Core\Include/core_cm4.h **** #define SCB_VTOR_TBLOFF_Pos                 7U                                            /*!< SCB 
 514:.\CMSIS\Core\Include/core_cm4.h **** #define SCB_VTOR_TBLOFF_Msk                (0x1FFFFFFUL << SCB_VTOR_TBLOFF_Pos)           /*!< SCB 
 515:.\CMSIS\Core\Include/core_cm4.h **** 
 516:.\CMSIS\Core\Include/core_cm4.h **** /* SCB Application Interrupt and Reset Control Register Definitions */
 517:.\CMSIS\Core\Include/core_cm4.h **** #define SCB_AIRCR_VECTKEY_Pos              16U                                            /*!< SCB 
 518:.\CMSIS\Core\Include/core_cm4.h **** #define SCB_AIRCR_VECTKEY_Msk              (0xFFFFUL << SCB_AIRCR_VECTKEY_Pos)            /*!< SCB 
 519:.\CMSIS\Core\Include/core_cm4.h **** 
 520:.\CMSIS\Core\Include/core_cm4.h **** #define SCB_AIRCR_VECTKEYSTAT_Pos          16U                                            /*!< SCB 
 521:.\CMSIS\Core\Include/core_cm4.h **** #define SCB_AIRCR_VECTKEYSTAT_Msk          (0xFFFFUL << SCB_AIRCR_VECTKEYSTAT_Pos)        /*!< SCB 
 522:.\CMSIS\Core\Include/core_cm4.h **** 
 523:.\CMSIS\Core\Include/core_cm4.h **** #define SCB_AIRCR_ENDIANESS_Pos            15U                                            /*!< SCB 
 524:.\CMSIS\Core\Include/core_cm4.h **** #define SCB_AIRCR_ENDIANESS_Msk            (1UL << SCB_AIRCR_ENDIANESS_Pos)               /*!< SCB 
 525:.\CMSIS\Core\Include/core_cm4.h **** 
 526:.\CMSIS\Core\Include/core_cm4.h **** #define SCB_AIRCR_PRIGROUP_Pos              8U                                            /*!< SCB 
 527:.\CMSIS\Core\Include/core_cm4.h **** #define SCB_AIRCR_PRIGROUP_Msk             (7UL << SCB_AIRCR_PRIGROUP_Pos)                /*!< SCB 
 528:.\CMSIS\Core\Include/core_cm4.h **** 
 529:.\CMSIS\Core\Include/core_cm4.h **** #define SCB_AIRCR_SYSRESETREQ_Pos           2U                                            /*!< SCB 
 530:.\CMSIS\Core\Include/core_cm4.h **** #define SCB_AIRCR_SYSRESETREQ_Msk          (1UL << SCB_AIRCR_SYSRESETREQ_Pos)             /*!< SCB 
 531:.\CMSIS\Core\Include/core_cm4.h **** 
 532:.\CMSIS\Core\Include/core_cm4.h **** #define SCB_AIRCR_VECTCLRACTIVE_Pos         1U                                            /*!< SCB 
 533:.\CMSIS\Core\Include/core_cm4.h **** #define SCB_AIRCR_VECTCLRACTIVE_Msk        (1UL << SCB_AIRCR_VECTCLRACTIVE_Pos)           /*!< SCB 
 534:.\CMSIS\Core\Include/core_cm4.h **** 
ARM GAS  C:\Users\jlabe\AppData\Local\Temp\ccQBWUqN.s 			page 45


 535:.\CMSIS\Core\Include/core_cm4.h **** #define SCB_AIRCR_VECTRESET_Pos             0U                                            /*!< SCB 
 536:.\CMSIS\Core\Include/core_cm4.h **** #define SCB_AIRCR_VECTRESET_Msk            (1UL /*<< SCB_AIRCR_VECTRESET_Pos*/)           /*!< SCB 
 537:.\CMSIS\Core\Include/core_cm4.h **** 
 538:.\CMSIS\Core\Include/core_cm4.h **** /* SCB System Control Register Definitions */
 539:.\CMSIS\Core\Include/core_cm4.h **** #define SCB_SCR_SEVONPEND_Pos               4U                                            /*!< SCB 
 540:.\CMSIS\Core\Include/core_cm4.h **** #define SCB_SCR_SEVONPEND_Msk              (1UL << SCB_SCR_SEVONPEND_Pos)                 /*!< SCB 
 541:.\CMSIS\Core\Include/core_cm4.h **** 
 542:.\CMSIS\Core\Include/core_cm4.h **** #define SCB_SCR_SLEEPDEEP_Pos               2U                                            /*!< SCB 
 543:.\CMSIS\Core\Include/core_cm4.h **** #define SCB_SCR_SLEEPDEEP_Msk              (1UL << SCB_SCR_SLEEPDEEP_Pos)                 /*!< SCB 
 544:.\CMSIS\Core\Include/core_cm4.h **** 
 545:.\CMSIS\Core\Include/core_cm4.h **** #define SCB_SCR_SLEEPONEXIT_Pos             1U                                            /*!< SCB 
 546:.\CMSIS\Core\Include/core_cm4.h **** #define SCB_SCR_SLEEPONEXIT_Msk            (1UL << SCB_SCR_SLEEPONEXIT_Pos)               /*!< SCB 
 547:.\CMSIS\Core\Include/core_cm4.h **** 
 548:.\CMSIS\Core\Include/core_cm4.h **** /* SCB Configuration Control Register Definitions */
 549:.\CMSIS\Core\Include/core_cm4.h **** #define SCB_CCR_STKALIGN_Pos                9U                                            /*!< SCB 
 550:.\CMSIS\Core\Include/core_cm4.h **** #define SCB_CCR_STKALIGN_Msk               (1UL << SCB_CCR_STKALIGN_Pos)                  /*!< SCB 
 551:.\CMSIS\Core\Include/core_cm4.h **** 
 552:.\CMSIS\Core\Include/core_cm4.h **** #define SCB_CCR_BFHFNMIGN_Pos               8U                                            /*!< SCB 
 553:.\CMSIS\Core\Include/core_cm4.h **** #define SCB_CCR_BFHFNMIGN_Msk              (1UL << SCB_CCR_BFHFNMIGN_Pos)                 /*!< SCB 
 554:.\CMSIS\Core\Include/core_cm4.h **** 
 555:.\CMSIS\Core\Include/core_cm4.h **** #define SCB_CCR_DIV_0_TRP_Pos               4U                                            /*!< SCB 
 556:.\CMSIS\Core\Include/core_cm4.h **** #define SCB_CCR_DIV_0_TRP_Msk              (1UL << SCB_CCR_DIV_0_TRP_Pos)                 /*!< SCB 
 557:.\CMSIS\Core\Include/core_cm4.h **** 
 558:.\CMSIS\Core\Include/core_cm4.h **** #define SCB_CCR_UNALIGN_TRP_Pos             3U                                            /*!< SCB 
 559:.\CMSIS\Core\Include/core_cm4.h **** #define SCB_CCR_UNALIGN_TRP_Msk            (1UL << SCB_CCR_UNALIGN_TRP_Pos)               /*!< SCB 
 560:.\CMSIS\Core\Include/core_cm4.h **** 
 561:.\CMSIS\Core\Include/core_cm4.h **** #define SCB_CCR_USERSETMPEND_Pos            1U                                            /*!< SCB 
 562:.\CMSIS\Core\Include/core_cm4.h **** #define SCB_CCR_USERSETMPEND_Msk           (1UL << SCB_CCR_USERSETMPEND_Pos)              /*!< SCB 
 563:.\CMSIS\Core\Include/core_cm4.h **** 
 564:.\CMSIS\Core\Include/core_cm4.h **** #define SCB_CCR_NONBASETHRDENA_Pos          0U                                            /*!< SCB 
 565:.\CMSIS\Core\Include/core_cm4.h **** #define SCB_CCR_NONBASETHRDENA_Msk         (1UL /*<< SCB_CCR_NONBASETHRDENA_Pos*/)        /*!< SCB 
 566:.\CMSIS\Core\Include/core_cm4.h **** 
 567:.\CMSIS\Core\Include/core_cm4.h **** /* SCB System Handler Control and State Register Definitions */
 568:.\CMSIS\Core\Include/core_cm4.h **** #define SCB_SHCSR_USGFAULTENA_Pos          18U                                            /*!< SCB 
 569:.\CMSIS\Core\Include/core_cm4.h **** #define SCB_SHCSR_USGFAULTENA_Msk          (1UL << SCB_SHCSR_USGFAULTENA_Pos)             /*!< SCB 
 570:.\CMSIS\Core\Include/core_cm4.h **** 
 571:.\CMSIS\Core\Include/core_cm4.h **** #define SCB_SHCSR_BUSFAULTENA_Pos          17U                                            /*!< SCB 
 572:.\CMSIS\Core\Include/core_cm4.h **** #define SCB_SHCSR_BUSFAULTENA_Msk          (1UL << SCB_SHCSR_BUSFAULTENA_Pos)             /*!< SCB 
 573:.\CMSIS\Core\Include/core_cm4.h **** 
 574:.\CMSIS\Core\Include/core_cm4.h **** #define SCB_SHCSR_MEMFAULTENA_Pos          16U                                            /*!< SCB 
 575:.\CMSIS\Core\Include/core_cm4.h **** #define SCB_SHCSR_MEMFAULTENA_Msk          (1UL << SCB_SHCSR_MEMFAULTENA_Pos)             /*!< SCB 
 576:.\CMSIS\Core\Include/core_cm4.h **** 
 577:.\CMSIS\Core\Include/core_cm4.h **** #define SCB_SHCSR_SVCALLPENDED_Pos         15U                                            /*!< SCB 
 578:.\CMSIS\Core\Include/core_cm4.h **** #define SCB_SHCSR_SVCALLPENDED_Msk         (1UL << SCB_SHCSR_SVCALLPENDED_Pos)            /*!< SCB 
 579:.\CMSIS\Core\Include/core_cm4.h **** 
 580:.\CMSIS\Core\Include/core_cm4.h **** #define SCB_SHCSR_BUSFAULTPENDED_Pos       14U                                            /*!< SCB 
 581:.\CMSIS\Core\Include/core_cm4.h **** #define SCB_SHCSR_BUSFAULTPENDED_Msk       (1UL << SCB_SHCSR_BUSFAULTPENDED_Pos)          /*!< SCB 
 582:.\CMSIS\Core\Include/core_cm4.h **** 
 583:.\CMSIS\Core\Include/core_cm4.h **** #define SCB_SHCSR_MEMFAULTPENDED_Pos       13U                                            /*!< SCB 
 584:.\CMSIS\Core\Include/core_cm4.h **** #define SCB_SHCSR_MEMFAULTPENDED_Msk       (1UL << SCB_SHCSR_MEMFAULTPENDED_Pos)          /*!< SCB 
 585:.\CMSIS\Core\Include/core_cm4.h **** 
 586:.\CMSIS\Core\Include/core_cm4.h **** #define SCB_SHCSR_USGFAULTPENDED_Pos       12U                                            /*!< SCB 
 587:.\CMSIS\Core\Include/core_cm4.h **** #define SCB_SHCSR_USGFAULTPENDED_Msk       (1UL << SCB_SHCSR_USGFAULTPENDED_Pos)          /*!< SCB 
 588:.\CMSIS\Core\Include/core_cm4.h **** 
 589:.\CMSIS\Core\Include/core_cm4.h **** #define SCB_SHCSR_SYSTICKACT_Pos           11U                                            /*!< SCB 
 590:.\CMSIS\Core\Include/core_cm4.h **** #define SCB_SHCSR_SYSTICKACT_Msk           (1UL << SCB_SHCSR_SYSTICKACT_Pos)              /*!< SCB 
 591:.\CMSIS\Core\Include/core_cm4.h **** 
ARM GAS  C:\Users\jlabe\AppData\Local\Temp\ccQBWUqN.s 			page 46


 592:.\CMSIS\Core\Include/core_cm4.h **** #define SCB_SHCSR_PENDSVACT_Pos            10U                                            /*!< SCB 
 593:.\CMSIS\Core\Include/core_cm4.h **** #define SCB_SHCSR_PENDSVACT_Msk            (1UL << SCB_SHCSR_PENDSVACT_Pos)               /*!< SCB 
 594:.\CMSIS\Core\Include/core_cm4.h **** 
 595:.\CMSIS\Core\Include/core_cm4.h **** #define SCB_SHCSR_MONITORACT_Pos            8U                                            /*!< SCB 
 596:.\CMSIS\Core\Include/core_cm4.h **** #define SCB_SHCSR_MONITORACT_Msk           (1UL << SCB_SHCSR_MONITORACT_Pos)              /*!< SCB 
 597:.\CMSIS\Core\Include/core_cm4.h **** 
 598:.\CMSIS\Core\Include/core_cm4.h **** #define SCB_SHCSR_SVCALLACT_Pos             7U                                            /*!< SCB 
 599:.\CMSIS\Core\Include/core_cm4.h **** #define SCB_SHCSR_SVCALLACT_Msk            (1UL << SCB_SHCSR_SVCALLACT_Pos)               /*!< SCB 
 600:.\CMSIS\Core\Include/core_cm4.h **** 
 601:.\CMSIS\Core\Include/core_cm4.h **** #define SCB_SHCSR_USGFAULTACT_Pos           3U                                            /*!< SCB 
 602:.\CMSIS\Core\Include/core_cm4.h **** #define SCB_SHCSR_USGFAULTACT_Msk          (1UL << SCB_SHCSR_USGFAULTACT_Pos)             /*!< SCB 
 603:.\CMSIS\Core\Include/core_cm4.h **** 
 604:.\CMSIS\Core\Include/core_cm4.h **** #define SCB_SHCSR_BUSFAULTACT_Pos           1U                                            /*!< SCB 
