ARM GAS  C:\Users\jlabe\AppData\Local\Temp\cccbc497.s 			page 1


   1              		.syntax unified
   2              		.cpu cortex-m4
   3              		.eabi_attribute 27, 1
   4              		.fpu fpv4-sp-d16
   5              		.eabi_attribute 20, 1
   6              		.eabi_attribute 21, 1
   7              		.eabi_attribute 23, 3
   8              		.eabi_attribute 24, 1
   9              		.eabi_attribute 25, 1
  10              		.eabi_attribute 26, 1
  11              		.eabi_attribute 30, 1
  12              		.eabi_attribute 34, 1
  13              		.eabi_attribute 18, 4
  14              		.thumb
  15              		.syntax unified
  16              		.file	"Traitement.c"
  17              		.text
  18              	.Ltext0:
  19              		.cfi_sections	.debug_frame
  20              		.section	.text.FilterLP,"ax",%progbits
  21              		.align	2
  22              		.global	FilterLP
  23              		.thumb
  24              		.thumb_func
  25              		.type	FilterLP, %function
  26              	FilterLP:
  27              	.LFB721:
  28              		.file 1 "Traitement.c"
   1:Traitement.c  **** /*******************************************************************************
   2:Traitement.c  **** * File name : Traitement.c
   3:Traitement.c  **** *
   4:Traitement.c  **** * Function Name: void traitement(void)
   5:Traitement.c  **** * Summary: 
   6:Traitement.c  **** *
   7:Traitement.c  **** * Parameters:
   8:Traitement.c  **** *  None
   9:Traitement.c  **** *
  10:Traitement.c  **** * Return:
  11:Traitement.c  **** *  None
  12:Traitement.c  **** *
  13:Traitement.c  **** * Authors : 
  14:Traitement.c  **** * Date of Creation : 24 mars 2021
  15:Traitement.c  **** *
  16:Traitement.c  **** ********************************************************************************/
  17:Traitement.c  **** 
  18:Traitement.c  **** 
  19:Traitement.c  **** #include <project.h>
  20:Traitement.c  **** #include <Traitement.h>
  21:Traitement.c  **** #include <Commun.h>
  22:Traitement.c  **** #include <arm_math.h>
  23:Traitement.c  **** #include <core_cm4.h>
  24:Traitement.c  **** 
  25:Traitement.c  **** #define DATA_LENGTH 2000 
  26:Traitement.c  **** #define BLOCK_SIZE  500 
  27:Traitement.c  **** #define NUM_COEFF   61
  28:Traitement.c  **** 
  29:Traitement.c  **** static float32_t firStateF32[BLOCK_SIZE + NUM_COEFF - 1];
ARM GAS  C:\Users\jlabe\AppData\Local\Temp\cccbc497.s 			page 2


  30:Traitement.c  **** const float32_t firCoeffsLPF[NUM_COEFF] = {0,-0.0005335467,-0.0009757422,-0.0011519104,-0.00086374,
  31:Traitement.c  **** const float32_t firCoeffsHPF[NUM_COEFF] = {-0.0005813984,-0.0006035935,-0.0006627953,-0.0007590446,
  32:Traitement.c  **** 
  33:Traitement.c  **** uint32_t blockSize  = BLOCK_SIZE; 
  34:Traitement.c  **** uint32_t numBlocks  = DATA_LENGTH/BLOCK_SIZE; 
  35:Traitement.c  **** uint32_t dataLength = DATA_LENGTH;
  36:Traitement.c  **** uint32_t Fs = 100;
  37:Traitement.c  **** 
  38:Traitement.c  **** 
  39:Traitement.c  **** /* Fonction filtre passe-bas pour avoir la composante DC signal rouge et infrarouge */
  40:Traitement.c  **** void FilterLP(uint32_t* buffer, float* filteredSignal){
  29              		.loc 1 40 0
  30              		.cfi_startproc
  31              		@ args = 0, pretend = 0, frame = 16
  32              		@ frame_needed = 0, uses_anonymous_args = 0
  33              	.LVL0:
  34 0000 70B5     		push	{r4, r5, r6, lr}
  35              		.cfi_def_cfa_offset 16
  36              		.cfi_offset 4, -16
  37              		.cfi_offset 5, -12
  38              		.cfi_offset 6, -8
  39              		.cfi_offset 14, -4
  40 0002 86B0     		sub	sp, sp, #24
  41              		.cfi_def_cfa_offset 40
  42 0004 0646     		mov	r6, r0
  43 0006 0D46     		mov	r5, r1
  41:Traitement.c  ****     
  42:Traitement.c  ****     uint32_t i; 
  43:Traitement.c  ****     arm_fir_instance_f32 S; 
  44:Traitement.c  ****     arm_fir_init_f32(&S, NUM_COEFF, (float32_t *)&firCoeffsLPF[0], &firStateF32[0], blockSize);   
  44              		.loc 1 44 0
  45 0008 0D4B     		ldr	r3, .L5
  46 000a 1B68     		ldr	r3, [r3]
  47 000c 0093     		str	r3, [sp]
  48 000e 0D4B     		ldr	r3, .L5+4
  49 0010 0D4A     		ldr	r2, .L5+8
  50 0012 3D21     		movs	r1, #61
  51              	.LVL1:
  52 0014 03A8     		add	r0, sp, #12
  53              	.LVL2:
  54 0016 FFF7FEFF 		bl	arm_fir_init_f32
  55              	.LVL3:
  45:Traitement.c  **** 
  46:Traitement.c  ****     for(i=0; i < numBlocks; i++)  
  56              		.loc 1 46 0
  57 001a 0024     		movs	r4, #0
  58 001c 0AE0     		b	.L2
  59              	.LVL4:
  60              	.L3:
  47:Traitement.c  ****     {    
  48:Traitement.c  ****       arm_fir_f32(&S, (float32_t *)buffer + (i * blockSize), filteredSignal + (i * blockSize), bloc
  61              		.loc 1 48 0 discriminator 3
  62 001e 084B     		ldr	r3, .L5
  63 0020 1B68     		ldr	r3, [r3]
  64 0022 03FB04F1 		mul	r1, r3, r4
  65 0026 8900     		lsls	r1, r1, #2
  66 0028 6A18     		adds	r2, r5, r1
ARM GAS  C:\Users\jlabe\AppData\Local\Temp\cccbc497.s 			page 3


  67 002a 3144     		add	r1, r1, r6
  68 002c 03A8     		add	r0, sp, #12
  69 002e FFF7FEFF 		bl	arm_fir_f32
  70              	.LVL5:
  46:Traitement.c  ****     {    
  71              		.loc 1 46 0 discriminator 3
  72 0032 0134     		adds	r4, r4, #1
  73              	.LVL6:
  74              	.L2:
  46:Traitement.c  ****     {    
  75              		.loc 1 46 0 is_stmt 0 discriminator 1
  76 0034 024B     		ldr	r3, .L5
  77 0036 5B68     		ldr	r3, [r3, #4]
  78 0038 9C42     		cmp	r4, r3
  79 003a F0D3     		bcc	.L3
  49:Traitement.c  ****     } 
  50:Traitement.c  **** }
  80              		.loc 1 50 0 is_stmt 1
  81 003c 06B0     		add	sp, sp, #24
  82              		.cfi_def_cfa_offset 16
  83              		@ sp needed
  84 003e 70BD     		pop	{r4, r5, r6, pc}
  85              	.LVL7:
  86              	.L6:
  87              		.align	2
  88              	.L5:
  89 0040 00000000 		.word	.LANCHOR2
  90 0044 00000000 		.word	.LANCHOR0
  91 0048 00000000 		.word	.LANCHOR1
  92              		.cfi_endproc
  93              	.LFE721:
  94              		.size	FilterLP, .-FilterLP
  95              		.section	.text.FilterHP,"ax",%progbits
  96              		.align	2
  97              		.global	FilterHP
  98              		.thumb
  99              		.thumb_func
 100              		.type	FilterHP, %function
 101              	FilterHP:
 102              	.LFB722:
  51:Traitement.c  **** 
  52:Traitement.c  **** /* Fonction filtre passe-haut pour avoir la composante AC signal rouge et infrarouge */
  53:Traitement.c  **** void FilterHP(float* buffer, float* filteredSignal){
 103              		.loc 1 53 0
 104              		.cfi_startproc
 105              		@ args = 0, pretend = 0, frame = 16
 106              		@ frame_needed = 0, uses_anonymous_args = 0
 107              	.LVL8:
 108 0000 70B5     		push	{r4, r5, r6, lr}
 109              		.cfi_def_cfa_offset 16
 110              		.cfi_offset 4, -16
 111              		.cfi_offset 5, -12
 112              		.cfi_offset 6, -8
 113              		.cfi_offset 14, -4
 114 0002 86B0     		sub	sp, sp, #24
 115              		.cfi_def_cfa_offset 40
 116 0004 0646     		mov	r6, r0
ARM GAS  C:\Users\jlabe\AppData\Local\Temp\cccbc497.s 			page 4


 117 0006 0D46     		mov	r5, r1
  54:Traitement.c  ****     uint32_t i; 
  55:Traitement.c  ****     arm_fir_instance_f32 S; 
  56:Traitement.c  ****     arm_fir_init_f32(&S, NUM_COEFF, (float32_t *)&firCoeffsHPF[0], &firStateF32[0], blockSize);   
 118              		.loc 1 56 0
 119 0008 0D4B     		ldr	r3, .L11
 120 000a 1B68     		ldr	r3, [r3]
 121 000c 0093     		str	r3, [sp]
 122 000e 0D4B     		ldr	r3, .L11+4
 123 0010 0D4A     		ldr	r2, .L11+8
 124 0012 3D21     		movs	r1, #61
 125              	.LVL9:
 126 0014 03A8     		add	r0, sp, #12
 127              	.LVL10:
 128 0016 FFF7FEFF 		bl	arm_fir_init_f32
 129              	.LVL11:
  57:Traitement.c  **** 
  58:Traitement.c  ****     for(i=0; i < numBlocks; i++)  
 130              		.loc 1 58 0
 131 001a 0024     		movs	r4, #0
 132 001c 0AE0     		b	.L8
 133              	.LVL12:
 134              	.L9:
  59:Traitement.c  ****     {    
  60:Traitement.c  ****       arm_fir_f32(&S, buffer + (i * blockSize), filteredSignal + (i * blockSize), blockSize);  
 135              		.loc 1 60 0 discriminator 3
 136 001e 084B     		ldr	r3, .L11
 137 0020 1B68     		ldr	r3, [r3]
 138 0022 03FB04F1 		mul	r1, r3, r4
 139 0026 8900     		lsls	r1, r1, #2
 140 0028 6A18     		adds	r2, r5, r1
 141 002a 3144     		add	r1, r1, r6
 142 002c 03A8     		add	r0, sp, #12
 143 002e FFF7FEFF 		bl	arm_fir_f32
 144              	.LVL13:
  58:Traitement.c  ****     {    
 145              		.loc 1 58 0 discriminator 3
 146 0032 0134     		adds	r4, r4, #1
 147              	.LVL14:
 148              	.L8:
  58:Traitement.c  ****     {    
 149              		.loc 1 58 0 is_stmt 0 discriminator 1
 150 0034 024B     		ldr	r3, .L11
 151 0036 5B68     		ldr	r3, [r3, #4]
 152 0038 9C42     		cmp	r4, r3
 153 003a F0D3     		bcc	.L9
  61:Traitement.c  ****     } 
  62:Traitement.c  **** }
 154              		.loc 1 62 0 is_stmt 1
 155 003c 06B0     		add	sp, sp, #24
 156              		.cfi_def_cfa_offset 16
 157              		@ sp needed
 158 003e 70BD     		pop	{r4, r5, r6, pc}
 159              	.LVL15:
 160              	.L12:
 161              		.align	2
 162              	.L11:
ARM GAS  C:\Users\jlabe\AppData\Local\Temp\cccbc497.s 			page 5


 163 0040 00000000 		.word	.LANCHOR2
 164 0044 00000000 		.word	.LANCHOR0
 165 0048 F4000000 		.word	.LANCHOR1+244
 166              		.cfi_endproc
 167              	.LFE722:
 168              		.size	FilterHP, .-FilterHP
 169              		.global	__aeabi_f2d
 170              		.global	__aeabi_dmul
 171              		.global	__aeabi_dadd
 172              		.global	__aeabi_d2uiz
 173              		.section	.text.CalculSpO2,"ax",%progbits
 174              		.align	2
 175              		.global	CalculSpO2
 176              		.thumb
 177              		.thumb_func
 178              		.type	CalculSpO2, %function
 179              	CalculSpO2:
 180              	.LFB723:
  63:Traitement.c  **** 
  64:Traitement.c  **** /* Fonction pour calculer le SpO2 */
  65:Traitement.c  **** uint16_t CalculSpO2(float* signalRedDC, float* signalIRDC, float* signalRedAC, float* signalIRAC) {
 181              		.loc 1 65 0
 182              		.cfi_startproc
 183              		@ args = 0, pretend = 0, frame = 40
 184              		@ frame_needed = 0, uses_anonymous_args = 0
 185              	.LVL16:
 186 0000 F0B5     		push	{r4, r5, r6, r7, lr}
 187              		.cfi_def_cfa_offset 20
 188              		.cfi_offset 4, -20
 189              		.cfi_offset 5, -16
 190              		.cfi_offset 6, -12
 191              		.cfi_offset 7, -8
 192              		.cfi_offset 14, -4
 193 0002 2DED028B 		vpush.64	{d8}
 194              		.cfi_def_cfa_offset 28
 195              		.cfi_offset 80, -28
 196              		.cfi_offset 81, -24
 197 0006 8BB0     		sub	sp, sp, #44
 198              		.cfi_def_cfa_offset 72
 199 0008 0746     		mov	r7, r0
 200 000a 0E46     		mov	r6, r1
 201 000c 1546     		mov	r5, r2
 202 000e 1C46     		mov	r4, r3
 203              	.LVL17:
  66:Traitement.c  ****     uint16_t  SpO2 = 0;
  67:Traitement.c  ****     float32_t R = 0;
  68:Traitement.c  ****     float32_t ACred = 0;
  69:Traitement.c  ****     float32_t ACinfrared = 0;
  70:Traitement.c  ****     float32_t DCred = 0;
 204              		.loc 1 70 0
 205 0010 0023     		movs	r3, #0
 206              	.LVL18:
 207 0012 0993     		str	r3, [sp, #36]	@ float
  71:Traitement.c  ****     float32_t DCinfrared = 0;
 208              		.loc 1 71 0
 209 0014 0893     		str	r3, [sp, #32]	@ float
  72:Traitement.c  ****     
ARM GAS  C:\Users\jlabe\AppData\Local\Temp\cccbc497.s 			page 6


  73:Traitement.c  ****     float32_t maxSignalRedAC = 0, minSignalRedAC = 0, maxSignalIRAC = 0, minSignalIRAC = 0;
 210              		.loc 1 73 0
 211 0016 0793     		str	r3, [sp, #28]	@ float
 212 0018 0693     		str	r3, [sp, #24]	@ float
 213 001a 0593     		str	r3, [sp, #20]	@ float
 214 001c 0493     		str	r3, [sp, #16]	@ float
  74:Traitement.c  ****     uint32_t indexMaxSignalRedAC = 0, indexMinSignalRedAC = 0, indexMaxSignalIRAC = 0, indexMinSign
 215              		.loc 1 74 0
 216 001e 0023     		movs	r3, #0
 217 0020 0393     		str	r3, [sp, #12]
 218 0022 0293     		str	r3, [sp, #8]
 219 0024 0193     		str	r3, [sp, #4]
 220 0026 0093     		str	r3, [sp]
  75:Traitement.c  ****     
  76:Traitement.c  ****     arm_max_f32(signalRedAC,1000,&maxSignalRedAC,&indexMaxSignalRedAC);
 221              		.loc 1 76 0
 222 0028 03AB     		add	r3, sp, #12
 223 002a 07AA     		add	r2, sp, #28
 224              	.LVL19:
 225 002c 4FF47A71 		mov	r1, #1000
 226              	.LVL20:
 227 0030 2846     		mov	r0, r5
 228              	.LVL21:
 229 0032 FFF7FEFF 		bl	arm_max_f32
 230              	.LVL22:
  77:Traitement.c  ****     arm_min_f32(signalRedAC,1000,&minSignalRedAC,&indexMinSignalRedAC);
 231              		.loc 1 77 0
 232 0036 02AB     		add	r3, sp, #8
 233 0038 06AA     		add	r2, sp, #24
 234 003a 4FF47A71 		mov	r1, #1000
 235 003e 2846     		mov	r0, r5
 236 0040 FFF7FEFF 		bl	arm_min_f32
 237              	.LVL23:
  78:Traitement.c  ****     arm_max_f32(signalIRAC,1000,&maxSignalIRAC,&indexMaxSignalIRAC);
 238              		.loc 1 78 0
 239 0044 01AB     		add	r3, sp, #4
 240 0046 05AA     		add	r2, sp, #20
 241 0048 4FF47A71 		mov	r1, #1000
 242 004c 2046     		mov	r0, r4
 243 004e FFF7FEFF 		bl	arm_max_f32
 244              	.LVL24:
  79:Traitement.c  ****     arm_min_f32(signalIRAC,1000,&minSignalIRAC,&indexMinSignalIRAC);
 245              		.loc 1 79 0
 246 0052 6B46     		mov	r3, sp
 247 0054 04AA     		add	r2, sp, #16
 248 0056 4FF47A71 		mov	r1, #1000
 249 005a 2046     		mov	r0, r4
 250 005c FFF7FEFF 		bl	arm_min_f32
 251              	.LVL25:
  80:Traitement.c  ****     
  81:Traitement.c  ****     ACred = maxSignalRedAC - minSignalRedAC;
 252              		.loc 1 81 0
 253 0060 DDED068A 		vldr.32	s17, [sp, #24]
 254 0064 DDED077A 		vldr.32	s15, [sp, #28]
 255 0068 77EEE88A 		vsub.f32	s17, s15, s17
 256              	.LVL26:
  82:Traitement.c  ****     ACinfrared = maxSignalIRAC - minSignalIRAC;
ARM GAS  C:\Users\jlabe\AppData\Local\Temp\cccbc497.s 			page 7


 257              		.loc 1 82 0
 258 006c 9DED048A 		vldr.32	s16, [sp, #16]
 259 0070 DDED057A 		vldr.32	s15, [sp, #20]
 260 0074 37EEC88A 		vsub.f32	s16, s15, s16
 261              	.LVL27:
  83:Traitement.c  ****     
  84:Traitement.c  ****     arm_mean_f32(signalRedDC,1000,&DCred);
 262              		.loc 1 84 0
 263 0078 09AA     		add	r2, sp, #36
 264 007a 4FF47A71 		mov	r1, #1000
 265 007e 3846     		mov	r0, r7
 266 0080 FFF7FEFF 		bl	arm_mean_f32
 267              	.LVL28:
  85:Traitement.c  ****     arm_mean_f32(signalIRDC,1000,&DCinfrared);
 268              		.loc 1 85 0
 269 0084 08AA     		add	r2, sp, #32
 270 0086 4FF47A71 		mov	r1, #1000
 271 008a 3046     		mov	r0, r6
 272 008c FFF7FEFF 		bl	arm_mean_f32
 273              	.LVL29:
  86:Traitement.c  ****     
  87:Traitement.c  ****     R = (ACred/DCred)/(ACinfrared/DCinfrared);
 274              		.loc 1 87 0
 275 0090 DDED097A 		vldr.32	s15, [sp, #36]
 276 0094 88EEA77A 		vdiv.f32	s14, s17, s15
 277 0098 DDED086A 		vldr.32	s13, [sp, #32]
 278 009c C8EE267A 		vdiv.f32	s15, s16, s13
 279              	.LVL30:
  88:Traitement.c  ****     SpO2 = round(-45.060*R*R + 30.354*R + 97.845);
 280              		.loc 1 88 0
 281 00a0 C7EE276A 		vdiv.f32	s13, s14, s15
 282              	.LVL31:
 283 00a4 16EE900A 		vmov	r0, s13
 284 00a8 FFF7FEFF 		bl	__aeabi_f2d
 285              	.LVL32:
 286 00ac 0446     		mov	r4, r0
 287              	.LVL33:
 288 00ae 0D46     		mov	r5, r1
 289              	.LVL34:
 290 00b0 13A3     		adr	r3, .L15
 291 00b2 D3E90023 		ldrd	r2, [r3]
 292 00b6 FFF7FEFF 		bl	__aeabi_dmul
 293              	.LVL35:
 294 00ba 0246     		mov	r2, r0
 295 00bc 0B46     		mov	r3, r1
 296 00be 2046     		mov	r0, r4
 297 00c0 2946     		mov	r1, r5
 298 00c2 FFF7FEFF 		bl	__aeabi_dmul
 299              	.LVL36:
 300 00c6 0646     		mov	r6, r0
 301              	.LVL37:
 302 00c8 0F46     		mov	r7, r1
 303              	.LVL38:
 304 00ca 0FA3     		adr	r3, .L15+8
 305 00cc D3E90023 		ldrd	r2, [r3]
 306 00d0 2046     		mov	r0, r4
 307 00d2 2946     		mov	r1, r5
ARM GAS  C:\Users\jlabe\AppData\Local\Temp\cccbc497.s 			page 8


 308 00d4 FFF7FEFF 		bl	__aeabi_dmul
 309              	.LVL39:
 310 00d8 0246     		mov	r2, r0
 311 00da 0B46     		mov	r3, r1
 312 00dc 3046     		mov	r0, r6
 313 00de 3946     		mov	r1, r7
 314 00e0 FFF7FEFF 		bl	__aeabi_dadd
 315              	.LVL40:
 316 00e4 0AA3     		adr	r3, .L15+16
 317 00e6 D3E90023 		ldrd	r2, [r3]
 318 00ea FFF7FEFF 		bl	__aeabi_dadd
 319              	.LVL41:
 320 00ee FFF7FEFF 		bl	round
 321              	.LVL42:
 322 00f2 FFF7FEFF 		bl	__aeabi_d2uiz
 323              	.LVL43:
  89:Traitement.c  ****     
  90:Traitement.c  ****     return SpO2;
  91:Traitement.c  **** }
 324              		.loc 1 91 0
 325 00f6 80B2     		uxth	r0, r0
 326 00f8 0BB0     		add	sp, sp, #44
 327              		.cfi_def_cfa_offset 28
 328              		@ sp needed
 329 00fa BDEC028B 		vldm	sp!, {d8}
 330              		.cfi_restore 80
 331              		.cfi_restore 81
 332              		.cfi_def_cfa_offset 20
 333              	.LVL44:
 334 00fe F0BD     		pop	{r4, r5, r6, r7, pc}
 335              	.L16:
 336              		.align	3
 337              	.L15:
 338 0100 48E17A14 		.word	343597384
 339 0104 AE8746C0 		.word	-1069119570
 340 0108 B4C876BE 		.word	-1099511628
 341 010c 9F5A3E40 		.word	1077828255
 342 0110 AE47E17A 		.word	2061584302
 343 0114 14765840 		.word	1079539220
 344              		.cfi_endproc
 345              	.LFE723:
 346              		.size	CalculSpO2, .-CalculSpO2
 347              		.global	__aeabi_ui2d
 348              		.section	.text.CalculBPM,"ax",%progbits
 349              		.align	2
 350              		.global	CalculBPM
 351              		.thumb
 352              		.thumb_func
 353              		.type	CalculBPM, %function
 354              	CalculBPM:
 355              	.LFB724:
  92:Traitement.c  **** 
  93:Traitement.c  **** /* Fonction pour calculer le BPM */
  94:Traitement.c  **** uint16_t CalculBPM(float* signalRedAC) {
 356              		.loc 1 94 0
 357              		.cfi_startproc
 358              		@ args = 0, pretend = 0, frame = 0
ARM GAS  C:\Users\jlabe\AppData\Local\Temp\cccbc497.s 			page 9


 359              		@ frame_needed = 0, uses_anonymous_args = 0
 360              	.LVL45:
 361 0000 70B5     		push	{r4, r5, r6, lr}
 362              		.cfi_def_cfa_offset 16
 363              		.cfi_offset 4, -16
 364              		.cfi_offset 5, -12
 365              		.cfi_offset 6, -8
 366              		.cfi_offset 14, -4
 367              	.LVL46:
 368              	.LBB2:
  95:Traitement.c  ****     uint16_t indexLastPeak = 0;
  96:Traitement.c  ****     uint16_t indexFirstPeak = 0;
  97:Traitement.c  ****     uint16_t nPeak = 0;
  98:Traitement.c  ****     uint16_t BPM = 0;
  99:Traitement.c  ****     
 100:Traitement.c  ****     
 101:Traitement.c  ****     for(uint16_t i=1; i < dataLength; i++){
 369              		.loc 1 101 0
 370 0002 0123     		movs	r3, #1
 371              	.LBE2:
  97:Traitement.c  ****     uint16_t BPM = 0;
 372              		.loc 1 97 0
 373 0004 0024     		movs	r4, #0
  96:Traitement.c  ****     uint16_t nPeak = 0;
 374              		.loc 1 96 0
 375 0006 2646     		mov	r6, r4
  95:Traitement.c  ****     uint16_t indexLastPeak = 0;
 376              		.loc 1 95 0
 377 0008 2546     		mov	r5, r4
 378              	.LBB3:
 379              		.loc 1 101 0
 380 000a 2BE0     		b	.L18
 381              	.LVL47:
 382              	.L23:
 102:Traitement.c  ****         if(signalRedAC[i-1]<signalRedAC[i] && signalRedAC[i]<signalRedAC[i+1] && signalRedAC[i]>300
 383              		.loc 1 102 0
 384 000c 03F18042 		add	r2, r3, #1073741824
 385 0010 013A     		subs	r2, r2, #1
 386 0012 00EB8202 		add	r2, r0, r2, lsl #2
 387 0016 92ED007A 		vldr.32	s14, [r2]
 388 001a 00EB8302 		add	r2, r0, r3, lsl #2
 389 001e D2ED007A 		vldr.32	s15, [r2]
 390 0022 B4EEE77A 		vcmpe.f32	s14, s15
 391 0026 F1EE10FA 		vmrs	APSR_nzcv, FPSCR
 392 002a 19D5     		bpl	.L19
 393              		.loc 1 102 0 is_stmt 0 discriminator 1
 394 002c 0131     		adds	r1, r1, #1
 395 002e 00EB8101 		add	r1, r0, r1, lsl #2
 396 0032 91ED007A 		vldr.32	s14, [r1]
 397 0036 F4EEC77A 		vcmpe.f32	s15, s14
 398 003a F1EE10FA 		vmrs	APSR_nzcv, FPSCR
 399 003e 0FD5     		bpl	.L19
 400              		.loc 1 102 0 discriminator 2
 401 0040 9FED137A 		vldr.32	s14, .L30
 402 0044 F4EEC77A 		vcmpe.f32	s15, s14
 403 0048 F1EE10FA 		vmrs	APSR_nzcv, FPSCR
 404 004c 08DD     		ble	.L19
ARM GAS  C:\Users\jlabe\AppData\Local\Temp\cccbc497.s 			page 10


 103:Traitement.c  ****             nPeak++;
 405              		.loc 1 103 0 is_stmt 1
 406 004e 0134     		adds	r4, r4, #1
 407              	.LVL48:
 408 0050 A4B2     		uxth	r4, r4
 409              	.LVL49:
 104:Traitement.c  ****             if (nPeak == 1){
 410              		.loc 1 104 0
 411 0052 012C     		cmp	r4, #1
 412 0054 01D0     		beq	.L24
 105:Traitement.c  ****                 indexFirstPeak = i;
 106:Traitement.c  ****             }            
 107:Traitement.c  ****             else if (nPeak >=2){
 413              		.loc 1 107 0
 414 0056 02D8     		bhi	.L25
 415 0058 02E0     		b	.L19
 416              	.L24:
 105:Traitement.c  ****                 indexFirstPeak = i;
 417              		.loc 1 105 0
 418 005a 1E46     		mov	r6, r3
 419              	.LVL50:
 420 005c 00E0     		b	.L19
 421              	.LVL51:
 422              	.L25:
 108:Traitement.c  ****                 indexLastPeak = i;                
 423              		.loc 1 108 0
 424 005e 1D46     		mov	r5, r3
 425              	.LVL52:
 426              	.L19:
 101:Traitement.c  ****         if(signalRedAC[i-1]<signalRedAC[i] && signalRedAC[i]<signalRedAC[i+1] && signalRedAC[i]>300
 427              		.loc 1 101 0 discriminator 2
 428 0060 0133     		adds	r3, r3, #1
 429              	.LVL53:
 430 0062 9BB2     		uxth	r3, r3
 431              	.LVL54:
 432              	.L18:
 101:Traitement.c  ****         if(signalRedAC[i-1]<signalRedAC[i] && signalRedAC[i]<signalRedAC[i+1] && signalRedAC[i]>300
 433              		.loc 1 101 0 is_stmt 0 discriminator 1
 434 0064 1946     		mov	r1, r3
 435 0066 0B4A     		ldr	r2, .L30+4
 436 0068 9268     		ldr	r2, [r2, #8]
 437 006a 9342     		cmp	r3, r2
 438 006c CED3     		bcc	.L23
 439              	.LBE3:
 109:Traitement.c  ****             }
 110:Traitement.c  ****         }
 111:Traitement.c  ****     }
 112:Traitement.c  ****     BPM = round(60/((indexLastPeak-indexFirstPeak)/Fs));
 440              		.loc 1 112 0 is_stmt 1
 441 006e AD1B     		subs	r5, r5, r6
 442              	.LVL55:
 443 0070 084B     		ldr	r3, .L30+4
 444              	.LVL56:
 445 0072 DE68     		ldr	r6, [r3, #12]
 446              	.LVL57:
 447 0074 B5FBF6F5 		udiv	r5, r5, r6
 448 0078 3C20     		movs	r0, #60
ARM GAS  C:\Users\jlabe\AppData\Local\Temp\cccbc497.s 			page 11


 449              	.LVL58:
 450 007a B0FBF5F0 		udiv	r0, r0, r5
 451 007e FFF7FEFF 		bl	__aeabi_ui2d
 452              	.LVL59:
 453 0082 FFF7FEFF 		bl	round
 454              	.LVL60:
 455 0086 FFF7FEFF 		bl	__aeabi_d2uiz
 456              	.LVL61:
 113:Traitement.c  ****     return BPM;
 114:Traitement.c  **** }
 457              		.loc 1 114 0
 458 008a 80B2     		uxth	r0, r0
 459 008c 70BD     		pop	{r4, r5, r6, pc}
 460              	.LVL62:
 461              	.L31:
 462 008e 00BF     		.align	2
 463              	.L30:
 464 0090 00803B45 		.word	1161527296
 465 0094 00000000 		.word	.LANCHOR2
 466              		.cfi_endproc
 467              	.LFE724:
 468              		.size	CalculBPM, .-CalculBPM
 469              		.section	.text.traitement_task,"ax",%progbits
 470              		.align	2
 471              		.global	traitement_task
 472              		.thumb
 473              		.thumb_func
 474              		.type	traitement_task, %function
 475              	traitement_task:
 476              	.LFB725:
 115:Traitement.c  **** 
 116:Traitement.c  **** 
 117:Traitement.c  **** /*******************************************************************************
 118:Traitement.c  **** * Function Name: void traitement(void)
 119:Traitement.c  **** ********************************************************************************
 120:Traitement.c  **** *
 121:Traitement.c  **** * Summary:  Fonction effectuant le traitement du signal et retournant le signal 
 122:Traitement.c  **** *           rouge et infrarouge filtré, le SpO2 et le BPM.
 123:Traitement.c  **** *
 124:Traitement.c  **** * Parameters:
 125:Traitement.c  **** *  
 126:Traitement.c  **** *  float* bufferRed, float* bufferIR, float* signalRedDC, float* signalIRDC, float* signalRedAC, fl
 127:Traitement.c  **** *
 128:Traitement.c  **** * Return:
 129:Traitement.c  **** *  None
 130:Traitement.c  **** *
 131:Traitement.c  **** *******************************************************************************/
 132:Traitement.c  **** /**/
 133:Traitement.c  **** void traitement_task(void * arg){
 477              		.loc 1 133 0
 478              		.cfi_startproc
 479              		@ Volatile: function does not return.
 480              		@ args = 0, pretend = 0, frame = 0
 481              		@ frame_needed = 0, uses_anonymous_args = 0
 482              	.LVL63:
 483 0000 80B5     		push	{r7, lr}
 484              		.cfi_def_cfa_offset 8
ARM GAS  C:\Users\jlabe\AppData\Local\Temp\cccbc497.s 			page 12


 485              		.cfi_offset 7, -8
 486              		.cfi_offset 14, -4
 134:Traitement.c  ****     (void) arg;
 135:Traitement.c  ****     BPM = 0;
 487              		.loc 1 135 0
 488 0002 0023     		movs	r3, #0
 489 0004 154A     		ldr	r2, .L36
 490 0006 1380     		strh	r3, [r2]	@ movhi
 136:Traitement.c  ****     SpO2 = 0;
 491              		.loc 1 136 0
 492 0008 154A     		ldr	r2, .L36+4
 493 000a 1380     		strh	r3, [r2]	@ movhi
 137:Traitement.c  ****     flagTraitement =  false;
 494              		.loc 1 137 0
 495 000c 154A     		ldr	r2, .L36+8
 496 000e 1370     		strb	r3, [r2]
 497              	.LVL64:
 498              	.L33:
 138:Traitement.c  ****     
 139:Traitement.c  ****     for(;;){
 140:Traitement.c  ****         if(flagTraitement){
 499              		.loc 1 140 0
 500 0010 144B     		ldr	r3, .L36+8
 501 0012 1B78     		ldrb	r3, [r3]	@ zero_extendqisi2
 502 0014 002B     		cmp	r3, #0
 503 0016 FBD0     		beq	.L33
 141:Traitement.c  ****             FilterLP(buffer_Red, signal_Red_DC);
 504              		.loc 1 141 0
 505 0018 134C     		ldr	r4, .L36+12
 506 001a 2146     		mov	r1, r4
 507 001c 1348     		ldr	r0, .L36+16
 508 001e FFF7FEFF 		bl	FilterLP
 509              	.LVL65:
 142:Traitement.c  ****             FilterLP(buffer_IR, signal_IR_DC);
 510              		.loc 1 142 0
 511 0022 134D     		ldr	r5, .L36+20
 512 0024 2946     		mov	r1, r5
 513 0026 1348     		ldr	r0, .L36+24
 514 0028 FFF7FEFF 		bl	FilterLP
 515              	.LVL66:
 143:Traitement.c  ****             FilterHP(signal_Red_DC,signal_Red_AC);
 516              		.loc 1 143 0
 517 002c 124E     		ldr	r6, .L36+28
 518 002e 3146     		mov	r1, r6
 519 0030 2046     		mov	r0, r4
 520 0032 FFF7FEFF 		bl	FilterHP
 521              	.LVL67:
 144:Traitement.c  ****             FilterHP(signal_IR_DC,signal_IR_AC);
 522              		.loc 1 144 0
 523 0036 114F     		ldr	r7, .L36+32
 524 0038 3946     		mov	r1, r7
 525 003a 2846     		mov	r0, r5
 526 003c FFF7FEFF 		bl	FilterHP
 527              	.LVL68:
 145:Traitement.c  ****             
 146:Traitement.c  ****             BPM = CalculBPM(signal_Red_AC);
 528              		.loc 1 146 0
ARM GAS  C:\Users\jlabe\AppData\Local\Temp\cccbc497.s 			page 13


 529 0040 3046     		mov	r0, r6
 530 0042 FFF7FEFF 		bl	CalculBPM
 531              	.LVL69:
 532 0046 054B     		ldr	r3, .L36
 533 0048 1880     		strh	r0, [r3]	@ movhi
 147:Traitement.c  ****             SpO2 = CalculSpO2(signal_Red_DC, signal_IR_DC, signal_Red_AC, signal_IR_AC);
 534              		.loc 1 147 0
 535 004a 3B46     		mov	r3, r7
 536 004c 3246     		mov	r2, r6
 537 004e 2946     		mov	r1, r5
 538 0050 2046     		mov	r0, r4
 539 0052 FFF7FEFF 		bl	CalculSpO2
 540              	.LVL70:
 541 0056 024B     		ldr	r3, .L36+4
 542 0058 1880     		strh	r0, [r3]	@ movhi
 543 005a D9E7     		b	.L33
 544              	.L37:
 545              		.align	2
 546              	.L36:
 547 005c 00000000 		.word	BPM
 548 0060 00000000 		.word	SpO2
 549 0064 00000000 		.word	flagTraitement
 550 0068 00000000 		.word	signal_Red_DC
 551 006c 00000000 		.word	buffer_Red
 552 0070 00000000 		.word	signal_IR_DC
 553 0074 00000000 		.word	buffer_IR
 554 0078 00000000 		.word	signal_Red_AC
 555 007c 00000000 		.word	signal_IR_AC
 556              		.cfi_endproc
 557              	.LFE725:
 558              		.size	traitement_task, .-traitement_task
 559              		.global	Fs
 560              		.global	dataLength
 561              		.global	numBlocks
 562              		.global	blockSize
 563              		.global	firCoeffsHPF
 564              		.global	firCoeffsLPF
 565              		.comm	IntensiteDELs,4,4
 566              		.comm	indexCommunication,2,2
 567              		.comm	flagTraitement,1,1
 568              		.comm	signal_IR_DC,2000,4
 569              		.comm	signal_Red_DC,2000,4
 570              		.comm	signal_IR_AC,2000,4
 571              		.comm	signal_Red_AC,2000,4
 572              		.comm	buffer_IR,4000,4
 573              		.comm	buffer_Red,4000,4
 574              		.comm	SpO2,2,2
 575              		.comm	BPM,2,2
 576              		.section	.rodata
 577              		.align	2
 578              		.set	.LANCHOR1,. + 0
 579              		.type	firCoeffsLPF, %object
 580              		.size	firCoeffsLPF, 244
 581              	firCoeffsLPF:
 582 0000 00000000 		.word	0
 583 0004 B7DD0BBA 		.word	-1173627465
 584 0008 F3C87FBA 		.word	-1166030605
ARM GAS  C:\Users\jlabe\AppData\Local\Temp\cccbc497.s 			page 14


 585 000c B3FB96BA 		.word	-1164510285
 586 0010 9C6C62BA 		.word	-1167954788
 587 0014 00000000 		.word	0
 588 0018 7EE2AB3A 		.word	984343166
 589 001c 584C2B3B 		.word	992693336
 590 0020 CADA513B 		.word	995220170
 591 0024 EEC41D3B 		.word	991806702
 592 0028 00000000 		.word	0
 593 002c 573D64BB 		.word	-1151058601
 594 0030 0EBCDBBB 		.word	-1143227378
 595 0034 CEED01BC 		.word	-1140724274
 596 0038 8DE6BCBB 		.word	-1145248115
 597 003c 00000000 		.word	0
 598 0040 990B013C 		.word	1006701465
 599 0044 830B733C 		.word	1014172547
 600 0048 29488D3C 		.word	1015892009
 601 004c 50104B3C 		.word	1011552336
 602 0050 00000000 		.word	0
 603 0054 F04E8ABC 		.word	-1131786512
 604 0058 68B103BD 		.word	-1123831448
 605 005c E88C1CBD 		.word	-1122202392
 606 0060 F183E9BC 		.word	-1125547023
 607 0064 00000000 		.word	0
 608 0068 655E383D 		.word	1027104357
 609 006c 4973CA3D 		.word	1036677961
 610 0070 05C6193E 		.word	1041876485
 611 0074 4F853F3E 		.word	1044350287
 612 0078 BE3E4D3E 		.word	1045249726
 613 007c 4F853F3E 		.word	1044350287
 614 0080 05C6193E 		.word	1041876485
 615 0084 4973CA3D 		.word	1036677961
 616 0088 655E383D 		.word	1027104357
 617 008c 00000000 		.word	0
 618 0090 F183E9BC 		.word	-1125547023
 619 0094 E88C1CBD 		.word	-1122202392
 620 0098 68B103BD 		.word	-1123831448
 621 009c F04E8ABC 		.word	-1131786512
 622 00a0 00000000 		.word	0
 623 00a4 50104B3C 		.word	1011552336
 624 00a8 29488D3C 		.word	1015892009
 625 00ac 830B733C 		.word	1014172547
 626 00b0 990B013C 		.word	1006701465
 627 00b4 00000000 		.word	0
 628 00b8 8DE6BCBB 		.word	-1145248115
 629 00bc CEED01BC 		.word	-1140724274
 630 00c0 0EBCDBBB 		.word	-1143227378
 631 00c4 573D64BB 		.word	-1151058601
 632 00c8 00000000 		.word	0
 633 00cc EEC41D3B 		.word	991806702
 634 00d0 CADA513B 		.word	995220170
 635 00d4 584C2B3B 		.word	992693336
 636 00d8 7EE2AB3A 		.word	984343166
 637 00dc 00000000 		.word	0
 638 00e0 9C6C62BA 		.word	-1167954788
 639 00e4 B3FB96BA 		.word	-1164510285
 640 00e8 F3C87FBA 		.word	-1166030605
 641 00ec B7DD0BBA 		.word	-1173627465
ARM GAS  C:\Users\jlabe\AppData\Local\Temp\cccbc497.s 			page 15


 642 00f0 00000000 		.word	0
 643              		.type	firCoeffsHPF, %object
 644              		.size	firCoeffsHPF, 244
 645              	firCoeffsHPF:
 646 00f4 FC6818BA 		.word	-1172805380
 647 00f8 793A1EBA 		.word	-1172424071
 648 00fc 71BF2DBA 		.word	-1171406991
 649 0100 9FFA46BA 		.word	-1169753441
 650 0104 E1CF69BA 		.word	-1167470623
 651 0108 19028BBA 		.word	-1165295079
 652 010c 139FA5BA 		.word	-1163550957
 653 0110 5B83C4BA 		.word	-1161526437
 654 0114 3C65E7BA 		.word	-1159240388
 655 0118 CFF606BB 		.word	-1157171505
 656 011c 81DC1BBB 		.word	-1155801983
 657 0120 502C32BB 		.word	-1154339760
 658 0124 DEA949BB 		.word	-1152800290
 659 0128 861462BB 		.word	-1151200122
 660 012c 28287BBB 		.word	-1149556696
 661 0130 FC4E8ABB 		.word	-1148563716
 662 0134 AE1697BB 		.word	-1147726162
 663 0138 6CC6A3BB 		.word	-1146894740
 664 013c 7639B0BB 		.word	-1146078858
 665 0140 804BBCBB 		.word	-1145287808
 666 0144 2CD9C7BB 		.word	-1144530644
 667 0148 72C0D2BB 		.word	-1143816078
 668 014c 16E1DCBB 		.word	-1143152362
 669 0150 091DE6BB 		.word	-1142547191
 670 0154 D058EEBB 		.word	-1142007600
 671 0158 D97BF5BB 		.word	-1141539879
 672 015c CC70FBBB 		.word	-1141149492
 673 0160 E91200BC 		.word	-1140845847
 674 0164 65C601BC 		.word	-1140734363
 675 0168 C0CD02BC 		.word	-1140666944
 676 016c 63197E3F 		.word	1065228643
 677 0170 C0CD02BC 		.word	-1140666944
 678 0174 65C601BC 		.word	-1140734363
 679 0178 E91200BC 		.word	-1140845847
 680 017c CC70FBBB 		.word	-1141149492
 681 0180 D97BF5BB 		.word	-1141539879
 682 0184 D058EEBB 		.word	-1142007600
 683 0188 091DE6BB 		.word	-1142547191
 684 018c 16E1DCBB 		.word	-1143152362
 685 0190 72C0D2BB 		.word	-1143816078
 686 0194 2CD9C7BB 		.word	-1144530644
 687 0198 804BBCBB 		.word	-1145287808
 688 019c 7639B0BB 		.word	-1146078858
 689 01a0 6CC6A3BB 		.word	-1146894740
 690 01a4 AE1697BB 		.word	-1147726162
 691 01a8 FC4E8ABB 		.word	-1148563716
 692 01ac 28287BBB 		.word	-1149556696
 693 01b0 861462BB 		.word	-1151200122
 694 01b4 DEA949BB 		.word	-1152800290
 695 01b8 502C32BB 		.word	-1154339760
 696 01bc 81DC1BBB 		.word	-1155801983
 697 01c0 CFF606BB 		.word	-1157171505
 698 01c4 3C65E7BA 		.word	-1159240388
ARM GAS  C:\Users\jlabe\AppData\Local\Temp\cccbc497.s 			page 16


 699 01c8 5B83C4BA 		.word	-1161526437
 700 01cc 139FA5BA 		.word	-1163550957
 701 01d0 19028BBA 		.word	-1165295079
 702 01d4 E1CF69BA 		.word	-1167470623
 703 01d8 9FFA46BA 		.word	-1169753441
 704 01dc 71BF2DBA 		.word	-1171406991
 705 01e0 793A1EBA 		.word	-1172424071
 706 01e4 FC6818BA 		.word	-1172805380
 707              		.data
 708              		.align	2
 709              		.set	.LANCHOR2,. + 0
 710              		.type	blockSize, %object
 711              		.size	blockSize, 4
 712              	blockSize:
 713 0000 F4010000 		.word	500
 714              		.type	numBlocks, %object
 715              		.size	numBlocks, 4
 716              	numBlocks:
 717 0004 04000000 		.word	4
 718              		.type	dataLength, %object
 719              		.size	dataLength, 4
 720              	dataLength:
 721 0008 D0070000 		.word	2000
 722              		.type	Fs, %object
 723              		.size	Fs, 4
 724              	Fs:
 725 000c 64000000 		.word	100
 726              		.bss
 727              		.align	2
 728              		.set	.LANCHOR0,. + 0
 729              		.type	firStateF32, %object
 730              		.size	firStateF32, 2240
 731              	firStateF32:
 732 0000 00000000 		.space	2240
 732      00000000 
 732      00000000 
 732      00000000 
 732      00000000 
 733              		.text
 734              	.Letext0:
 735              		.file 2 "c:\\program files (x86)\\cypress\\psoc creator\\4.4\\psoc creator\\import\\gnu\\arm\\5.4.
 736              		.file 3 "c:\\program files (x86)\\cypress\\psoc creator\\4.4\\psoc creator\\import\\gnu\\arm\\5.4.
 737              		.file 4 "Generated_Source\\PSoC6\\pdl\\drivers/peripheral/device/cy_device.h"
 738              		.file 5 "Generated_Source\\PSoC6\\pdl\\drivers/peripheral/syslib/cy_syslib.h"
 739              		.file 6 "Generated_Source\\PSoC6\\pdl\\drivers/peripheral/scb/cy_scb_i2c.h"
 740              		.file 7 "Generated_Source\\PSoC6\\pdl\\drivers/peripheral/scb/cy_scb_spi.h"
 741              		.file 8 "Generated_Source\\PSoC6\\pdl\\drivers/peripheral/scb/cy_scb_uart.h"
 742              		.file 9 "Generated_Source\\PSoC6\\pdl\\drivers/peripheral/tcpwm/cy_tcpwm_counter.h"
 743              		.file 10 "Generated_Source\\PSoC6\\pdl\\drivers/peripheral/tcpwm/cy_tcpwm_pwm.h"
 744              		.file 11 ".\\CMSIS\\DSP\\Include/arm_math.h"
 745              		.file 12 ".\\CMSIS\\Core\\Include/core_cm4.h"
 746              		.file 13 "Generated_Source\\PSoC6/PWM.h"
 747              		.file 14 "Generated_Source\\PSoC6/CY_EINK_Timer.h"
 748              		.file 15 "Generated_Source\\PSoC6/CY_EINK_SPIM.h"
 749              		.file 16 "Generated_Source\\PSoC6/I2C_1.h"
 750              		.file 17 "Generated_Source\\PSoC6/UART_1.h"
 751              		.file 18 "Generated_Source\\PSoC6/I2C_2.h"
ARM GAS  C:\Users\jlabe\AppData\Local\Temp\cccbc497.s 			page 17


 752              		.file 19 "./Commun.h"
 753              		.file 20 "c:\\program files (x86)\\cypress\\psoc creator\\4.4\\psoc creator\\import\\gnu\\arm\\5.4