ARM GAS  C:\Users\jlabe\AppData\Local\Temp\ccNBMM2b.s 			page 1


   1              		.syntax unified
   2              		.cpu cortex-m4
   3              		.eabi_attribute 27, 1
   4              		.fpu fpv4-sp-d16
   5              		.eabi_attribute 20, 1
   6              		.eabi_attribute 21, 1
   7              		.eabi_attribute 23, 3
   8              		.eabi_attribute 24, 1
   9              		.eabi_attribute 25, 1
  10              		.eabi_attribute 26, 1
  11              		.eabi_attribute 30, 1
  12              		.eabi_attribute 34, 1
  13              		.eabi_attribute 18, 4
  14              		.thumb
  15              		.syntax unified
  16              		.file	"Traitement.c"
  17              		.text
  18              	.Ltext0:
  19              		.cfi_sections	.debug_frame
  20              		.section	.text.FilterLP,"ax",%progbits
  21              		.align	2
  22              		.global	FilterLP
  23              		.thumb
  24              		.thumb_func
  25              		.type	FilterLP, %function
  26              	FilterLP:
  27              	.LFB725:
  28              		.file 1 "Traitement.c"
   1:Traitement.c  **** /*******************************************************************************
   2:Traitement.c  **** * File name : Traitement.c
   3:Traitement.c  **** *
   4:Traitement.c  **** * Function Name: void traitement(void)
   5:Traitement.c  **** * Summary: 
   6:Traitement.c  **** *
   7:Traitement.c  **** * Parameters:
   8:Traitement.c  **** *  None
   9:Traitement.c  **** *
  10:Traitement.c  **** * Return:
  11:Traitement.c  **** *  None
  12:Traitement.c  **** *
  13:Traitement.c  **** * Authors : 
  14:Traitement.c  **** * Date of Creation : 24 mars 2021
  15:Traitement.c  **** *
  16:Traitement.c  **** ********************************************************************************/
  17:Traitement.c  **** 
  18:Traitement.c  **** 
  19:Traitement.c  **** #include <project.h>
  20:Traitement.c  **** #include <Traitement.h>
  21:Traitement.c  **** #include <Commun.h>
  22:Traitement.c  **** #include <arm_math.h>
  23:Traitement.c  **** #include <core_cm4.h>
  24:Traitement.c  **** #include "FreeRTOS.h"
  25:Traitement.c  **** #include "task.h"
  26:Traitement.c  **** 
  27:Traitement.c  **** #define DATA_LENGTH 500
  28:Traitement.c  **** #define BLOCK_SIZE  500 
  29:Traitement.c  **** #define NUM_COEFF1  41
ARM GAS  C:\Users\jlabe\AppData\Local\Temp\ccNBMM2b.s 			page 2


  30:Traitement.c  **** 
  31:Traitement.c  **** static float32_t firStateF32_LP[BLOCK_SIZE + NUM_COEFF1 - 1];
  32:Traitement.c  **** const float32_t firCoeffsLPF[NUM_COEFF1] ={0,-0.0004417223,-0.0010613407,-0.0019635183,-0.003163288
  33:Traitement.c  **** uint32_t blockSize  = BLOCK_SIZE; 
  34:Traitement.c  **** uint32_t numBlocks  = DATA_LENGTH/BLOCK_SIZE; 
  35:Traitement.c  **** uint32_t dataLength = DATA_LENGTH;
  36:Traitement.c  **** float Fs = 100; 
  37:Traitement.c  **** 
  38:Traitement.c  **** 
  39:Traitement.c  **** /* Fonction filtre passe-bas pour avoir la composante DC signal rouge et infrarouge */
  40:Traitement.c  **** void FilterLP(float* buffer, float* filteredSignal){
  29              		.loc 1 40 0
  30              		.cfi_startproc
  31              		@ args = 0, pretend = 0, frame = 16
  32              		@ frame_needed = 0, uses_anonymous_args = 0
  33              	.LVL0:
  34 0000 70B5     		push	{r4, r5, r6, lr}
  35              		.cfi_def_cfa_offset 16
  36              		.cfi_offset 4, -16
  37              		.cfi_offset 5, -12
  38              		.cfi_offset 6, -8
  39              		.cfi_offset 14, -4
  40 0002 86B0     		sub	sp, sp, #24
  41              		.cfi_def_cfa_offset 40
  42 0004 0546     		mov	r5, r0
  43 0006 0E46     		mov	r6, r1
  41:Traitement.c  ****     //Utilisation du filtre de la librairie CMSIS DSP
  42:Traitement.c  **** 	//Fréquence de coupure de 5 Hz et 41 coefficients utilisés
  43:Traitement.c  ****     arm_fir_instance_f32 S; 
  44:Traitement.c  ****     arm_fir_init_f32(&S, NUM_COEFF1, (float32_t *)&firCoeffsLPF[0], &firStateF32_LP[0], blockSize);
  44              		.loc 1 44 0
  45 0008 084C     		ldr	r4, .L3
  46 000a 2368     		ldr	r3, [r4]
  47 000c 0093     		str	r3, [sp]
  48 000e 084B     		ldr	r3, .L3+4
  49 0010 084A     		ldr	r2, .L3+8
  50 0012 2921     		movs	r1, #41
  51              	.LVL1:
  52 0014 03A8     		add	r0, sp, #12
  53              	.LVL2:
  54 0016 FFF7FEFF 		bl	arm_fir_init_f32
  55              	.LVL3:
  45:Traitement.c  ****     arm_fir_f32(&S, buffer, filteredSignal, blockSize);  
  56              		.loc 1 45 0
  57 001a 2368     		ldr	r3, [r4]
  58 001c 3246     		mov	r2, r6
  59 001e 2946     		mov	r1, r5
  60 0020 03A8     		add	r0, sp, #12
  61 0022 FFF7FEFF 		bl	arm_fir_f32
  62              	.LVL4:
  46:Traitement.c  **** }
  63              		.loc 1 46 0
  64 0026 06B0     		add	sp, sp, #24
  65              		.cfi_def_cfa_offset 16
  66              		@ sp needed
  67 0028 70BD     		pop	{r4, r5, r6, pc}
  68              	.LVL5:
ARM GAS  C:\Users\jlabe\AppData\Local\Temp\ccNBMM2b.s 			page 3


  69              	.L4:
  70 002a 00BF     		.align	2
  71              	.L3:
  72 002c 00000000 		.word	.LANCHOR2
  73 0030 00000000 		.word	.LANCHOR0
  74 0034 00000000 		.word	.LANCHOR1
  75              		.cfi_endproc
  76              	.LFE725:
  77              		.size	FilterLP, .-FilterLP
  78              		.section	.text.Center,"ax",%progbits
  79              		.align	2
  80              		.global	Center
  81              		.thumb
  82              		.thumb_func
  83              		.type	Center, %function
  84              	Center:
  85              	.LFB726:
  47:Traitement.c  **** 
  48:Traitement.c  **** /* Fonction qui sert a centrer le signal pour avoir la composante AC du signal rouge et infrarouge 
  49:Traitement.c  **** void Center(float* buffer, float* filteredSignal){
  86              		.loc 1 49 0
  87              		.cfi_startproc
  88              		@ args = 0, pretend = 0, frame = 0
  89              		@ frame_needed = 0, uses_anonymous_args = 0
  90              		@ link register save eliminated.
  91              	.LVL6:
  92              	.LBB2:
  50:Traitement.c  ****     float mean = 0;
  51:Traitement.c  ****     //Boucle for pour trouver la moyenne du signal
  52:Traitement.c  ****     for(uint16_t i = 0; i<dataLength; i++){
  93              		.loc 1 52 0
  94 0000 0023     		movs	r3, #0
  95              	.LBE2:
  50:Traitement.c  ****     float mean = 0;
  96              		.loc 1 50 0
  97 0002 9FED157A 		vldr.32	s14, .L11
  98              	.LBB3:
  99              		.loc 1 52 0
 100 0006 07E0     		b	.L6
 101              	.LVL7:
 102              	.L7:
  53:Traitement.c  ****             mean+=buffer[i];
 103              		.loc 1 53 0 discriminator 3
 104 0008 00EB8302 		add	r2, r0, r3, lsl #2
 105 000c D2ED007A 		vldr.32	s15, [r2]
 106 0010 37EE277A 		vadd.f32	s14, s14, s15
 107              	.LVL8:
  52:Traitement.c  ****             mean+=buffer[i];
 108              		.loc 1 52 0 discriminator 3
 109 0014 0133     		adds	r3, r3, #1
 110              	.LVL9:
 111 0016 9BB2     		uxth	r3, r3
 112              	.LVL10:
 113              	.L6:
  52:Traitement.c  ****             mean+=buffer[i];
 114              		.loc 1 52 0 is_stmt 0 discriminator 1
 115 0018 104A     		ldr	r2, .L11+4
ARM GAS  C:\Users\jlabe\AppData\Local\Temp\ccNBMM2b.s 			page 4


 116 001a 5268     		ldr	r2, [r2, #4]
 117 001c 9342     		cmp	r3, r2
 118 001e F3D3     		bcc	.L7
 119              	.LBE3:
  49:Traitement.c  ****     float mean = 0;
 120              		.loc 1 49 0 is_stmt 1
 121 0020 10B4     		push	{r4}
 122              		.cfi_def_cfa_offset 4
 123              		.cfi_offset 4, -4
  54:Traitement.c  ****     }
  55:Traitement.c  ****     mean = mean/dataLength;
 124              		.loc 1 55 0
 125 0022 07EE902A 		vmov	s15, r2	@ int
 126 0026 F8EE677A 		vcvt.f32.u32	s15, s15
 127 002a C7EE276A 		vdiv.f32	s13, s14, s15
 128              	.LVL11:
 129              	.LBB4:
  56:Traitement.c  ****     
  57:Traitement.c  **** 	//Boucle for pour soustraire la moyenne au signal pour le centrer a 0
  58:Traitement.c  ****     for(uint16_t i = 0; i<dataLength; i++){
 130              		.loc 1 58 0
 131 002e 0023     		movs	r3, #0
 132              	.LVL12:
 133 0030 0AE0     		b	.L8
 134              	.LVL13:
 135              	.L9:
  59:Traitement.c  ****         filteredSignal[i] = buffer[i] - mean;
 136              		.loc 1 59 0 discriminator 3
 137 0032 9A00     		lsls	r2, r3, #2
 138 0034 8C18     		adds	r4, r1, r2
 139 0036 0244     		add	r2, r2, r0
 140 0038 D2ED007A 		vldr.32	s15, [r2]
 141 003c 77EEE67A 		vsub.f32	s15, s15, s13
 142 0040 C4ED007A 		vstr.32	s15, [r4]
  58:Traitement.c  ****         filteredSignal[i] = buffer[i] - mean;
 143              		.loc 1 58 0 discriminator 3
 144 0044 0133     		adds	r3, r3, #1
 145              	.LVL14:
 146 0046 9BB2     		uxth	r3, r3
 147              	.LVL15:
 148              	.L8:
  58:Traitement.c  ****         filteredSignal[i] = buffer[i] - mean;
 149              		.loc 1 58 0 is_stmt 0 discriminator 1
 150 0048 044A     		ldr	r2, .L11+4
 151 004a 5268     		ldr	r2, [r2, #4]
 152 004c 9342     		cmp	r3, r2
 153 004e F0D3     		bcc	.L9
 154              	.LBE4:
  60:Traitement.c  ****     } 
  61:Traitement.c  **** }
 155              		.loc 1 61 0 is_stmt 1
 156 0050 5DF8044B 		ldr	r4, [sp], #4
 157              		.cfi_restore 4
 158              		.cfi_def_cfa_offset 0
 159 0054 7047     		bx	lr
 160              	.L12:
 161 0056 00BF     		.align	2
ARM GAS  C:\Users\jlabe\AppData\Local\Temp\ccNBMM2b.s 			page 5


 162              	.L11:
 163 0058 00000000 		.word	0
 164 005c 00000000 		.word	.LANCHOR2
 165              		.cfi_endproc
 166              	.LFE726:
 167              		.size	Center, .-Center
 168              		.global	__aeabi_f2d
 169              		.global	__aeabi_ddiv
 170              		.global	__aeabi_dmul
 171              		.global	__aeabi_dadd
 172              		.global	__aeabi_d2uiz
 173              		.section	.text.CalculSpO2,"ax",%progbits
 174              		.align	2
 175              		.global	CalculSpO2
 176              		.thumb
 177              		.thumb_func
 178              		.type	CalculSpO2, %function
 179              	CalculSpO2:
 180              	.LFB727:
  62:Traitement.c  **** 
  63:Traitement.c  **** /* Fonction pour calculer le SpO2 prennant en paramètres les quatre signaux nécessaire au calcul*
  64:Traitement.c  **** uint16_t CalculSpO2(float* signalRedDC, float* signalIRDC, float* signalRedAC, float* signalIRAC) {
 181              		.loc 1 64 0
 182              		.cfi_startproc
 183              		@ args = 0, pretend = 0, frame = 40
 184              		@ frame_needed = 0, uses_anonymous_args = 0
 185              	.LVL16:
 186 0000 2DE9F047 		push	{r4, r5, r6, r7, r8, r9, r10, lr}
 187              		.cfi_def_cfa_offset 32
 188              		.cfi_offset 4, -32
 189              		.cfi_offset 5, -28
 190              		.cfi_offset 6, -24
 191              		.cfi_offset 7, -20
 192              		.cfi_offset 8, -16
 193              		.cfi_offset 9, -12
 194              		.cfi_offset 10, -8
 195              		.cfi_offset 14, -4
 196 0004 8AB0     		sub	sp, sp, #40
 197              		.cfi_def_cfa_offset 72
 198 0006 8246     		mov	r10, r0
 199 0008 0D46     		mov	r5, r1
 200 000a 1746     		mov	r7, r2
 201 000c 1E46     		mov	r6, r3
 202              	.LVL17:
  65:Traitement.c  ****     double R = 0;
  66:Traitement.c  ****     double ACred = 0;
  67:Traitement.c  ****     double ACinfrared = 0;
  68:Traitement.c  ****     float32_t DCred = 0;
 203              		.loc 1 68 0
 204 000e 0023     		movs	r3, #0
 205              	.LVL18:
 206 0010 0993     		str	r3, [sp, #36]	@ float
  69:Traitement.c  ****     float32_t DCinfrared = 0;
 207              		.loc 1 69 0
 208 0012 0893     		str	r3, [sp, #32]	@ float
  70:Traitement.c  ****     
  71:Traitement.c  ****     float32_t maxSignalRedAC = 0, minSignalRedAC = 0, maxSignalIRAC = 0, minSignalIRAC = 0;
ARM GAS  C:\Users\jlabe\AppData\Local\Temp\ccNBMM2b.s 			page 6


 209              		.loc 1 71 0
 210 0014 0793     		str	r3, [sp, #28]	@ float
 211 0016 0693     		str	r3, [sp, #24]	@ float
 212 0018 0593     		str	r3, [sp, #20]	@ float
 213 001a 0493     		str	r3, [sp, #16]	@ float
  72:Traitement.c  ****     uint32_t indexMaxSignalRedAC = 0, indexMinSignalRedAC = 0, indexMaxSignalIRAC = 0, indexMinSign
 214              		.loc 1 72 0
 215 001c 0023     		movs	r3, #0
 216 001e 0393     		str	r3, [sp, #12]
 217 0020 0293     		str	r3, [sp, #8]
 218 0022 0193     		str	r3, [sp, #4]
 219 0024 0093     		str	r3, [sp]
  73:Traitement.c  ****     
  74:Traitement.c  **** 	// Fonctions utilisées pour trouver les min et max des signaux
  75:Traitement.c  ****     arm_max_f32(signalRedAC,dataLength,&maxSignalRedAC,&indexMaxSignalRedAC);
 220              		.loc 1 75 0
 221 0026 414C     		ldr	r4, .L16
 222 0028 03AB     		add	r3, sp, #12
 223 002a 07AA     		add	r2, sp, #28
 224              	.LVL19:
 225 002c 6168     		ldr	r1, [r4, #4]
 226              	.LVL20:
 227 002e 3846     		mov	r0, r7
 228              	.LVL21:
 229 0030 FFF7FEFF 		bl	arm_max_f32
 230              	.LVL22:
  76:Traitement.c  ****     arm_min_f32(signalRedAC,dataLength,&minSignalRedAC,&indexMinSignalRedAC);
 231              		.loc 1 76 0
 232 0034 02AB     		add	r3, sp, #8
 233 0036 06AA     		add	r2, sp, #24
 234 0038 6168     		ldr	r1, [r4, #4]
 235 003a 3846     		mov	r0, r7
 236 003c FFF7FEFF 		bl	arm_min_f32
 237              	.LVL23:
  77:Traitement.c  ****     arm_max_f32(signalIRAC,dataLength,&maxSignalIRAC,&indexMaxSignalIRAC);
 238              		.loc 1 77 0
 239 0040 01AB     		add	r3, sp, #4
 240 0042 05AA     		add	r2, sp, #20
 241 0044 6168     		ldr	r1, [r4, #4]
 242 0046 3046     		mov	r0, r6
 243 0048 FFF7FEFF 		bl	arm_max_f32
 244              	.LVL24:
  78:Traitement.c  ****     arm_min_f32(signalIRAC,dataLength,&minSignalIRAC,&indexMinSignalIRAC);
 245              		.loc 1 78 0
 246 004c 6B46     		mov	r3, sp
 247 004e 04AA     		add	r2, sp, #16
 248 0050 6168     		ldr	r1, [r4, #4]
 249 0052 3046     		mov	r0, r6
 250 0054 FFF7FEFF 		bl	arm_min_f32
 251              	.LVL25:
  79:Traitement.c  ****     
  80:Traitement.c  ****     // Calcul des composantes du ration R
  81:Traitement.c  **** 	ACred = maxSignalRedAC - minSignalRedAC;
 252              		.loc 1 81 0
 253 0058 DDED067A 		vldr.32	s15, [sp, #24]
 254 005c 9DED077A 		vldr.32	s14, [sp, #28]
 255 0060 77EE677A 		vsub.f32	s15, s14, s15
ARM GAS  C:\Users\jlabe\AppData\Local\Temp\ccNBMM2b.s 			page 7


 256 0064 17EE900A 		vmov	r0, s15
 257 0068 FFF7FEFF 		bl	__aeabi_f2d
 258              	.LVL26:
 259 006c 8046     		mov	r8, r0
 260 006e 8946     		mov	r9, r1
 261              	.LVL27:
  82:Traitement.c  ****     ACinfrared = maxSignalIRAC - minSignalIRAC;
 262              		.loc 1 82 0
 263 0070 DDED047A 		vldr.32	s15, [sp, #16]
 264 0074 9DED057A 		vldr.32	s14, [sp, #20]
 265 0078 77EE677A 		vsub.f32	s15, s14, s15
 266 007c 17EE900A 		vmov	r0, s15
 267 0080 FFF7FEFF 		bl	__aeabi_f2d
 268              	.LVL28:
 269 0084 0646     		mov	r6, r0
 270              	.LVL29:
 271 0086 0F46     		mov	r7, r1
 272              	.LVL30:
  83:Traitement.c  ****     arm_mean_f32(signalRedDC,dataLength,&DCred);
 273              		.loc 1 83 0
 274 0088 09AA     		add	r2, sp, #36
 275 008a 6168     		ldr	r1, [r4, #4]
 276 008c 5046     		mov	r0, r10
 277 008e FFF7FEFF 		bl	arm_mean_f32
 278              	.LVL31:
  84:Traitement.c  ****     arm_mean_f32(signalIRDC,dataLength,&DCinfrared);
 279              		.loc 1 84 0
 280 0092 08AA     		add	r2, sp, #32
 281 0094 6168     		ldr	r1, [r4, #4]
 282 0096 2846     		mov	r0, r5
 283 0098 FFF7FEFF 		bl	arm_mean_f32
 284              	.LVL32:
  85:Traitement.c  ****     
  86:Traitement.c  **** 	// Calcul de R et SpO2
  87:Traitement.c  ****     R = (ACred/DCred)/(ACinfrared/DCinfrared);
 285              		.loc 1 87 0
 286 009c 0998     		ldr	r0, [sp, #36]	@ float
 287 009e FFF7FEFF 		bl	__aeabi_f2d
 288              	.LVL33:
 289 00a2 0246     		mov	r2, r0
 290 00a4 0B46     		mov	r3, r1
 291 00a6 4046     		mov	r0, r8
 292 00a8 4946     		mov	r1, r9
 293 00aa FFF7FEFF 		bl	__aeabi_ddiv
 294              	.LVL34:
 295 00ae 0446     		mov	r4, r0
 296 00b0 0D46     		mov	r5, r1
 297              	.LVL35:
 298 00b2 0898     		ldr	r0, [sp, #32]	@ float
 299 00b4 FFF7FEFF 		bl	__aeabi_f2d
 300              	.LVL36:
 301 00b8 0246     		mov	r2, r0
 302 00ba 0B46     		mov	r3, r1
 303 00bc 3046     		mov	r0, r6
 304 00be 3946     		mov	r1, r7
 305 00c0 FFF7FEFF 		bl	__aeabi_ddiv
 306              	.LVL37:
ARM GAS  C:\Users\jlabe\AppData\Local\Temp\ccNBMM2b.s 			page 8


 307 00c4 0246     		mov	r2, r0
 308 00c6 0B46     		mov	r3, r1
 309 00c8 2046     		mov	r0, r4
 310 00ca 2946     		mov	r1, r5
 311 00cc FFF7FEFF 		bl	__aeabi_ddiv
 312              	.LVL38:
 313 00d0 0446     		mov	r4, r0
 314 00d2 0D46     		mov	r5, r1
 315              	.LVL39:
  88:Traitement.c  ****     SpO2 = round(-22*R*R + 15*R + 98);
 316              		.loc 1 88 0
 317 00d4 0022     		movs	r2, #0
 318 00d6 164B     		ldr	r3, .L16+4
 319 00d8 FFF7FEFF 		bl	__aeabi_dmul
 320              	.LVL40:
 321 00dc 0246     		mov	r2, r0
 322 00de 0B46     		mov	r3, r1
 323 00e0 2046     		mov	r0, r4
 324 00e2 2946     		mov	r1, r5
 325 00e4 FFF7FEFF 		bl	__aeabi_dmul
 326              	.LVL41:
 327 00e8 0646     		mov	r6, r0
 328              	.LVL42:
 329 00ea 0F46     		mov	r7, r1
 330 00ec 0022     		movs	r2, #0
 331 00ee 114B     		ldr	r3, .L16+8
 332 00f0 2046     		mov	r0, r4
 333 00f2 2946     		mov	r1, r5
 334 00f4 FFF7FEFF 		bl	__aeabi_dmul
 335              	.LVL43:
 336 00f8 0246     		mov	r2, r0
 337 00fa 0B46     		mov	r3, r1
 338 00fc 3046     		mov	r0, r6
 339 00fe 3946     		mov	r1, r7
 340 0100 FFF7FEFF 		bl	__aeabi_dadd
 341              	.LVL44:
 342 0104 0022     		movs	r2, #0
 343 0106 0C4B     		ldr	r3, .L16+12
 344 0108 FFF7FEFF 		bl	__aeabi_dadd
 345              	.LVL45:
 346 010c FFF7FEFF 		bl	round
 347              	.LVL46:
 348 0110 FFF7FEFF 		bl	__aeabi_d2uiz
 349              	.LVL47:
 350 0114 80B2     		uxth	r0, r0
 351 0116 094B     		ldr	r3, .L16+16
 352 0118 1880     		strh	r0, [r3]	@ movhi
  89:Traitement.c  **** 
  90:Traitement.c  **** 	if(SpO2>100){
 353              		.loc 1 90 0
 354 011a 6428     		cmp	r0, #100
 355 011c 01D9     		bls	.L14
  91:Traitement.c  **** 		SpO2 = 100;
 356              		.loc 1 91 0
 357 011e 6422     		movs	r2, #100
 358 0120 1A80     		strh	r2, [r3]	@ movhi
 359              	.L14:
ARM GAS  C:\Users\jlabe\AppData\Local\Temp\ccNBMM2b.s 			page 9


  92:Traitement.c  **** 	}
  93:Traitement.c  ****     
  94:Traitement.c  ****     return SpO2;
  95:Traitement.c  **** }
 360              		.loc 1 95 0
 361 0122 064B     		ldr	r3, .L16+16
 362 0124 1888     		ldrh	r0, [r3]
 363 0126 0AB0     		add	sp, sp, #40
 364              		.cfi_def_cfa_offset 32
 365              		@ sp needed
 366 0128 BDE8F087 		pop	{r4, r5, r6, r7, r8, r9, r10, pc}
 367              	.LVL48:
 368              	.L17:
 369              		.align	2
 370              	.L16:
 371 012c 00000000 		.word	.LANCHOR2
 372 0130 000036C0 		.word	-1070202880
 373 0134 00002E40 		.word	1076756480
 374 0138 00805840 		.word	1079541760
 375 013c 00000000 		.word	SpO2
 376              		.cfi_endproc
 377              	.LFE727:
 378              		.size	CalculSpO2, .-CalculSpO2
 379              		.section	.text.CalculBPM,"ax",%progbits
 380              		.align	2
 381              		.global	CalculBPM
 382              		.thumb
 383              		.thumb_func
 384              		.type	CalculBPM, %function
 385              	CalculBPM:
 386              	.LFB728:
  96:Traitement.c  **** 
  97:Traitement.c  **** /* Fonction pour le calcul du BPM prennant en paramètre le signal rouge AC */
  98:Traitement.c  **** uint16_t CalculBPM(float* signalRedAC) {
 387              		.loc 1 98 0
 388              		.cfi_startproc
 389              		@ args = 0, pretend = 0, frame = 16
 390              		@ frame_needed = 0, uses_anonymous_args = 0
 391              	.LVL49:
 392 0000 10B5     		push	{r4, lr}
 393              		.cfi_def_cfa_offset 8
 394              		.cfi_offset 4, -8
 395              		.cfi_offset 14, -4
 396 0002 84B0     		sub	sp, sp, #16
 397              		.cfi_def_cfa_offset 24
  99:Traitement.c  ****     volatile float indexLastZero = 0;
 398              		.loc 1 99 0
 399 0004 0023     		movs	r3, #0
 400 0006 0393     		str	r3, [sp, #12]	@ float
 100:Traitement.c  ****     volatile float indexFirstZero = 0;
 401              		.loc 1 100 0
 402 0008 0293     		str	r3, [sp, #8]	@ float
 101:Traitement.c  ****     volatile uint16_t nZeros = 0;
 403              		.loc 1 101 0
 404 000a 0024     		movs	r4, #0
 405 000c ADF80640 		strh	r4, [sp, #6]	@ movhi
 406              	.LVL50:
ARM GAS  C:\Users\jlabe\AppData\Local\Temp\ccNBMM2b.s 			page 10


 407              	.LBB5:
 102:Traitement.c  ****     float difference = 0;
 103:Traitement.c  ****     bool isZero = false;
 104:Traitement.c  ****     
 105:Traitement.c  **** 	// Boucle for pour trouver le passage du signal a une certaine valeur pour tous les points
 106:Traitement.c  **** 	// Initialement la valeur cherchée était zéro, ce qui explique le nom des variables
 107:Traitement.c  ****     for(uint16_t i=0; i < dataLength-1; i++){         
 408              		.loc 1 107 0
 409 0010 2146     		mov	r1, r4
 410 0012 4EE0     		b	.L19
 411              	.LVL51:
 412              	.L26:
 108:Traitement.c  ****         if(signalRedAC[i] > 6 && signalRedAC[i+1] < 6) {
 413              		.loc 1 108 0
 414 0014 00EB8103 		add	r3, r0, r1, lsl #2
 415 0018 D3ED006A 		vldr.32	s13, [r3]
 416 001c F1EE087A 		vmov.f32	s15, #6.0e+0
 417 0020 F4EEE76A 		vcmpe.f32	s13, s15
 418 0024 F1EE10FA 		vmrs	APSR_nzcv, FPSCR
 419 0028 41DD     		ble	.L20
 420              		.loc 1 108 0 is_stmt 0 discriminator 1
 421 002a 0132     		adds	r2, r2, #1
 422 002c 00EB8202 		add	r2, r0, r2, lsl #2
 423 0030 92ED007A 		vldr.32	s14, [r2]
 424 0034 B4EEE77A 		vcmpe.f32	s14, s15
 425 0038 F1EE10FA 		vmrs	APSR_nzcv, FPSCR
 426 003c 12D4     		bmi	.L27
 427 003e 36E0     		b	.L20
 428              	.LVL52:
 429              	.L24:
 430              	.LBB6:
 109:Traitement.c  ****             // Boucle pour s'assurer d'une différence significative entre le point d'intéret et l
 110:Traitement.c  **** 			for(uint16_t j = 0; j<20; j++){
 111:Traitement.c  ****                 difference = signalRedAC[i] - signalRedAC[i+j]; 
 431              		.loc 1 111 0 is_stmt 1
 432 0040 CA18     		adds	r2, r1, r3
 433 0042 00EB8202 		add	r2, r0, r2, lsl #2
 434 0046 D2ED007A 		vldr.32	s15, [r2]
 435 004a 76EEE77A 		vsub.f32	s15, s13, s15
 436              	.LVL53:
 112:Traitement.c  ****                 if(difference > 12){
 437              		.loc 1 112 0
 438 004e B2EE087A 		vmov.f32	s14, #1.2e+1
 439 0052 F4EEC77A 		vcmpe.f32	s15, s14
 440 0056 F1EE10FA 		vmrs	APSR_nzcv, FPSCR
 441 005a 00DD     		ble	.L23
 113:Traitement.c  ****                     isZero = true;
 442              		.loc 1 113 0
 443 005c 0124     		movs	r4, #1
 444              	.LVL54:
 445              	.L23:
 110:Traitement.c  ****                 difference = signalRedAC[i] - signalRedAC[i+j]; 
 446              		.loc 1 110 0 discriminator 2
 447 005e 0133     		adds	r3, r3, #1
 448              	.LVL55:
 449 0060 9BB2     		uxth	r3, r3
 450              	.LVL56:
ARM GAS  C:\Users\jlabe\AppData\Local\Temp\ccNBMM2b.s 			page 11


 451 0062 00E0     		b	.L22
 452              	.LVL57:
 453              	.L27:
 454              	.LBE6:
 455 0064 0023     		movs	r3, #0
 456              	.L22:
 457              	.LVL58:
 458              	.LBB7:
 110:Traitement.c  ****                 difference = signalRedAC[i] - signalRedAC[i+j]; 
 459              		.loc 1 110 0 is_stmt 0 discriminator 1
 460 0066 132B     		cmp	r3, #19
 461 0068 EAD9     		bls	.L24
 462              	.LBE7:
 114:Traitement.c  ****                 }
 115:Traitement.c  ****             }
 116:Traitement.c  **** 			// Enregistrement du premier et dernier point d'intérêt du signal
 117:Traitement.c  ****             if(isZero == true){
 463              		.loc 1 117 0 is_stmt 1
 464 006a 04B3     		cbz	r4, .L20
 118:Traitement.c  ****                 nZeros++;
 465              		.loc 1 118 0
 466 006c BDF80630 		ldrh	r3, [sp, #6]
 467              	.LVL59:
 468 0070 9BB2     		uxth	r3, r3
 469 0072 0133     		adds	r3, r3, #1
 470 0074 9BB2     		uxth	r3, r3
 471 0076 ADF80630 		strh	r3, [sp, #6]	@ movhi
 119:Traitement.c  ****                 if (nZeros == 1){
 472              		.loc 1 119 0
 473 007a BDF80630 		ldrh	r3, [sp, #6]
 474 007e 9BB2     		uxth	r3, r3
 475 0080 012B     		cmp	r3, #1
 476 0082 07D1     		bne	.L25
 120:Traitement.c  ****                     indexFirstZero = i;
 477              		.loc 1 120 0
 478 0084 07EE901A 		vmov	s15, r1	@ int
 479 0088 F8EE677A 		vcvt.f32.u32	s15, s15
 480 008c CDED027A 		vstr.32	s15, [sp, #8]
 121:Traitement.c  ****                 }else if (nZeros >=1){                
 122:Traitement.c  ****                     indexLastZero = i;
 123:Traitement.c  ****                 }
 124:Traitement.c  ****                 isZero = false;
 481              		.loc 1 124 0
 482 0090 0024     		movs	r4, #0
 483              	.LVL60:
 484 0092 0CE0     		b	.L20
 485              	.LVL61:
 486              	.L25:
 121:Traitement.c  ****                 }else if (nZeros >=1){                
 487              		.loc 1 121 0
 488 0094 BDF80630 		ldrh	r3, [sp, #6]
 489 0098 9BB2     		uxth	r3, r3
 490 009a 3BB1     		cbz	r3, .L29
 122:Traitement.c  ****                 }
 491              		.loc 1 122 0
 492 009c 07EE901A 		vmov	s15, r1	@ int
 493 00a0 F8EE677A 		vcvt.f32.u32	s15, s15
ARM GAS  C:\Users\jlabe\AppData\Local\Temp\ccNBMM2b.s 			page 12


 494 00a4 CDED037A 		vstr.32	s15, [sp, #12]
 495              		.loc 1 124 0
 496 00a8 0024     		movs	r4, #0
 497              	.LVL62:
 498 00aa 00E0     		b	.L20
 499              	.LVL63:
 500              	.L29:
 501 00ac 0024     		movs	r4, #0
 502              	.LVL64:
 503              	.L20:
 107:Traitement.c  ****         if(signalRedAC[i] > 6 && signalRedAC[i+1] < 6) {
 504              		.loc 1 107 0 discriminator 2
 505 00ae 0131     		adds	r1, r1, #1
 506              	.LVL65:
 507 00b0 89B2     		uxth	r1, r1
 508              	.LVL66:
 509              	.L19:
 107:Traitement.c  ****         if(signalRedAC[i] > 6 && signalRedAC[i+1] < 6) {
 510              		.loc 1 107 0 is_stmt 0 discriminator 1
 511 00b2 0A46     		mov	r2, r1
 512 00b4 144B     		ldr	r3, .L32
 513 00b6 5B68     		ldr	r3, [r3, #4]
 514 00b8 013B     		subs	r3, r3, #1
 515 00ba 9942     		cmp	r1, r3
 516 00bc AAD3     		bcc	.L26
 517              	.LBE5:
 125:Traitement.c  ****             }
 126:Traitement.c  ****         }
 127:Traitement.c  ****     }
 128:Traitement.c  ****     // Calcul du BPM        
 129:Traitement.c  ****     BPM = round(60*(nZeros-1)/((indexLastZero-indexFirstZero)/Fs));
 518              		.loc 1 129 0 is_stmt 1
 519 00be BDF80630 		ldrh	r3, [sp, #6]
 520 00c2 9BB2     		uxth	r3, r3
 521 00c4 013B     		subs	r3, r3, #1
 522 00c6 C3EB0313 		rsb	r3, r3, r3, lsl #4
 523 00ca 9A00     		lsls	r2, r3, #2
 524 00cc DDED037A 		vldr.32	s15, [sp, #12]
 525 00d0 9DED027A 		vldr.32	s14, [sp, #8]
 526 00d4 77EEC77A 		vsub.f32	s15, s15, s14
 527 00d8 0B4B     		ldr	r3, .L32
 528 00da D3ED026A 		vldr.32	s13, [r3, #8]
 529 00de 87EEA67A 		vdiv.f32	s14, s15, s13
 530 00e2 07EE902A 		vmov	s15, r2	@ int
 531 00e6 F8EEE77A 		vcvt.f32.s32	s15, s15
 532 00ea C7EE876A 		vdiv.f32	s13, s15, s14
 533 00ee 16EE900A 		vmov	r0, s13
 534              	.LVL67:
 535 00f2 FFF7FEFF 		bl	__aeabi_f2d
 536              	.LVL68:
 537 00f6 FFF7FEFF 		bl	round
 538              	.LVL69:
 539 00fa FFF7FEFF 		bl	__aeabi_d2uiz
 540              	.LVL70:
 541 00fe 80B2     		uxth	r0, r0
 542 0100 024B     		ldr	r3, .L32+4
 543 0102 1880     		strh	r0, [r3]	@ movhi
ARM GAS  C:\Users\jlabe\AppData\Local\Temp\ccNBMM2b.s 			page 13


 130:Traitement.c  ****     return BPM;
 131:Traitement.c  **** }
 544              		.loc 1 131 0
 545 0104 04B0     		add	sp, sp, #16
 546              		.cfi_def_cfa_offset 8
 547              		@ sp needed
 548 0106 10BD     		pop	{r4, pc}
 549              	.LVL71:
 550              	.L33:
 551              		.align	2
 552              	.L32:
 553 0108 00000000 		.word	.LANCHOR2
 554 010c 00000000 		.word	BPM
 555              		.cfi_endproc
 556              	.LFE728:
 557              		.size	CalculBPM, .-CalculBPM
 558              		.section	.text.traitement_task,"ax",%progbits
 559              		.align	2
 560              		.global	traitement_task
 561              		.thumb
 562              		.thumb_func
 563              		.type	traitement_task, %function
 564              	traitement_task:
 565              	.LFB729:
 132:Traitement.c  **** 
 133:Traitement.c  **** 
 134:Traitement.c  **** /*Fonction effectuant le traitement du signal et retournant le signal rouge et
 135:Traitement.c  **** infrarouge filtré, le SpO2 et le BPM.*/
 136:Traitement.c  **** void traitement_task(){
 566              		.loc 1 136 0
 567              		.cfi_startproc
 568              		@ Volatile: function does not return.
 569              		@ args = 0, pretend = 0, frame = 0
 570              		@ frame_needed = 0, uses_anonymous_args = 0
 571 0000 80B5     		push	{r7, lr}
 572              		.cfi_def_cfa_offset 8
 573              		.cfi_offset 7, -8
 574              		.cfi_offset 14, -4
 575              	.L36:
 137:Traitement.c  ****     
 138:Traitement.c  ****        
 139:Traitement.c  ****     for(;;){
 140:Traitement.c  ****         if(flagTraitement){
 576              		.loc 1 140 0
 577 0002 1F4B     		ldr	r3, .L38
 578 0004 1B78     		ldrb	r3, [r3]	@ zero_extendqisi2
 579 0006 002B     		cmp	r3, #0
 580 0008 36D0     		beq	.L35
 141:Traitement.c  **** 			//Filtrage du signal DC pour éliminer le bruit
 142:Traitement.c  ****             FilterLP(&buffer_Red[indexLecture], signal_Red_DC);
 581              		.loc 1 142 0
 582 000a 1E4C     		ldr	r4, .L38+4
 583 000c 2088     		ldrh	r0, [r4]
 584 000e 1E4E     		ldr	r6, .L38+8
 585 0010 DFF89480 		ldr	r8, .L38+40
 586 0014 3146     		mov	r1, r6
 587 0016 08EB8000 		add	r0, r8, r0, lsl #2
ARM GAS  C:\Users\jlabe\AppData\Local\Temp\ccNBMM2b.s 			page 14


 588 001a FFF7FEFF 		bl	FilterLP
 589              	.LVL72:
 143:Traitement.c  ****             FilterLP(&buffer_IR[indexLecture], signal_IR_DC);
 590              		.loc 1 143 0
 591 001e 2088     		ldrh	r0, [r4]
 592 0020 1A4F     		ldr	r7, .L38+12
 593 0022 1B4C     		ldr	r4, .L38+16
 594 0024 3946     		mov	r1, r7
 595 0026 04EB8000 		add	r0, r4, r0, lsl #2
 596 002a FFF7FEFF 		bl	FilterLP
 597              	.LVL73:
 144:Traitement.c  ****             
 145:Traitement.c  **** 			//Centrage du signal pour obtenir le signal AC
 146:Traitement.c  ****             Center(buffer_IR, signal_IR_AC);
 598              		.loc 1 146 0
 599 002e 194D     		ldr	r5, .L38+20
 600 0030 2946     		mov	r1, r5
 601 0032 2046     		mov	r0, r4
 602 0034 FFF7FEFF 		bl	Center
 603              	.LVL74:
 147:Traitement.c  ****             Center(buffer_Red, signal_Red_AC);
 604              		.loc 1 147 0
 605 0038 174C     		ldr	r4, .L38+24
 606 003a 2146     		mov	r1, r4
 607 003c 4046     		mov	r0, r8
 608 003e FFF7FEFF 		bl	Center
 609              	.LVL75:
 148:Traitement.c  ****             
 149:Traitement.c  **** 			//Filtrage du signal AC pour éliminer le bruit
 150:Traitement.c  ****             FilterLP(signal_IR_AC, signal_IR_AC);
 610              		.loc 1 150 0
 611 0042 2946     		mov	r1, r5
 612 0044 2846     		mov	r0, r5
 613 0046 FFF7FEFF 		bl	FilterLP
 614              	.LVL76:
 151:Traitement.c  ****             FilterLP(signal_Red_AC, signal_Red_AC);
 615              		.loc 1 151 0
 616 004a 2146     		mov	r1, r4
 617 004c 2046     		mov	r0, r4
 618 004e FFF7FEFF 		bl	FilterLP
 619              	.LVL77:
 152:Traitement.c  ****             
 153:Traitement.c  **** 			//Calcul du BPM et SpO2
 154:Traitement.c  ****             BPM = CalculBPM(signal_Red_AC);
 620              		.loc 1 154 0
 621 0052 2046     		mov	r0, r4
 622 0054 FFF7FEFF 		bl	CalculBPM
 623              	.LVL78:
 624 0058 104B     		ldr	r3, .L38+28
 625 005a 1880     		strh	r0, [r3]	@ movhi
 155:Traitement.c  ****             SpO2 = CalculSpO2(signal_Red_DC, signal_IR_DC, signal_Red_AC, signal_IR_AC);
 626              		.loc 1 155 0
 627 005c 2B46     		mov	r3, r5
 628 005e 2246     		mov	r2, r4
 629 0060 3946     		mov	r1, r7
 630 0062 3046     		mov	r0, r6
 631 0064 FFF7FEFF 		bl	CalculSpO2
ARM GAS  C:\Users\jlabe\AppData\Local\Temp\ccNBMM2b.s 			page 15


 632              	.LVL79:
 633 0068 0D4B     		ldr	r3, .L38+32
 634 006a 1880     		strh	r0, [r3]	@ movhi
 156:Traitement.c  ****             
 157:Traitement.c  **** 			//Modification des flags pour arrêter le traitement et commencer l'affichage
 158:Traitement.c  ****             flagAffichage = true;
 635              		.loc 1 158 0
 636 006c 0122     		movs	r2, #1
 637 006e 0D4B     		ldr	r3, .L38+36
 638 0070 1A70     		strb	r2, [r3]
 159:Traitement.c  ****             flagTraitement = false;
 639              		.loc 1 159 0
 640 0072 0022     		movs	r2, #0
 641 0074 024B     		ldr	r3, .L38
 642 0076 1A70     		strb	r2, [r3]
 643              	.L35:
 160:Traitement.c  ****         }
 161:Traitement.c  ****         vTaskDelay(pdMS_TO_TICKS(100));
 644              		.loc 1 161 0
 645 0078 6420     		movs	r0, #100
 646 007a FFF7FEFF 		bl	vTaskDelay
 647              	.LVL80:
 162:Traitement.c  ****     }
 648              		.loc 1 162 0
 649 007e C0E7     		b	.L36
 650              	.L39:
 651              		.align	2
 652              	.L38:
 653 0080 00000000 		.word	flagTraitement
 654 0084 00000000 		.word	indexLecture
 655 0088 00000000 		.word	signal_Red_DC
 656 008c 00000000 		.word	signal_IR_DC
 657 0090 00000000 		.word	buffer_IR
 658 0094 00000000 		.word	signal_IR_AC
 659 0098 00000000 		.word	signal_Red_AC
 660 009c 00000000 		.word	BPM
 661 00a0 00000000 		.word	SpO2
 662 00a4 00000000 		.word	flagAffichage
 663 00a8 00000000 		.word	buffer_Red
 664              		.cfi_endproc
 665              	.LFE729:
 666              		.size	traitement_task, .-traitement_task
 667              		.global	Fs
 668              		.global	dataLength
 669              		.global	numBlocks
 670              		.global	blockSize
 671              		.global	firCoeffsLPF
 672              		.comm	acceleration,8,8
 673              		.comm	IntensiteDELs,1,1
 674              		.comm	indexLecture,2,2
 675              		.comm	debut,1,1
 676              		.comm	flagAffichage,1,1
 677              		.comm	flagTraitement,1,1
 678              		.comm	signal_IR_DC,2000,4
 679              		.comm	signal_Red_DC,2000,4
 680              		.comm	signal_IR_AC,2000,4
 681              		.comm	signal_Red_AC,2000,4
ARM GAS  C:\Users\jlabe\AppData\Local\Temp\ccNBMM2b.s 			page 16


 682              		.comm	buffer_IR,4000,4
 683              		.comm	buffer_Red,4000,4
 684              		.comm	SpO2,2,2
 685              		.comm	BPM,2,2
 686              		.section	.rodata
 687              		.align	2
 688              		.set	.LANCHOR1,. + 0
 689              		.type	firCoeffsLPF, %object
 690              		.size	firCoeffsLPF, 164
 691              	firCoeffsLPF:
 692 0000 00000000 		.word	0
 693 0004 F796E7B9 		.word	-1176004873
 694 0008 AF1C8BBA 		.word	-1165288273
 695 000c 5FAE00BB 		.word	-1157583265
 696 0010 2C4F4FBB 		.word	-1152430292
 697 0014 22B994BB 		.word	-1147881182
 698 0018 E148BEBB 		.word	-1145157407
 699 001c B21BD6BB 		.word	-1143596110
 700 0020 3475CABB 		.word	-1144359628
 701 0024 659988BB 		.word	-1148675739
 702 0028 00000000 		.word	0
 703 002c CC4ADA3B 		.word	1004161740
 704 0030 6B2C823C 		.word	1015164011
 705 0034 30C8E03C 		.word	1021364272
 706 0038 1FD0263D 		.word	1025953823
 707 003c 9DBB603D 		.word	1029749661
 708 0040 23D28C3D 		.word	1032639011
 709 0044 BB52A63D 		.word	1034310331
 710 0048 5588BA3D 		.word	1035634773
 711 004c 5483C73D 		.word	1036485460
 712 0050 02FDCB3D 		.word	1036778754
 713 0054 5483C73D 		.word	1036485460
 714 0058 5588BA3D 		.word	1035634773
 715 005c BB52A63D 		.word	1034310331
 716 0060 23D28C3D 		.word	1032639011
 717 0064 9DBB603D 		.word	1029749661
 718 0068 1FD0263D 		.word	1025953823
 719 006c 30C8E03C 		.word	1021364272
 720 0070 6B2C823C 		.word	1015164011
 721 0074 CC4ADA3B 		.word	1004161740
 722 0078 00000000 		.word	0
 723 007c 659988BB 		.word	-1148675739
 724 0080 3475CABB 		.word	-1144359628
 725 0084 B21BD6BB 		.word	-1143596110
 726 0088 E148BEBB 		.word	-1145157407
 727 008c 22B994BB 		.word	-1147881182
 728 0090 2C4F4FBB 		.word	-1152430292
 729 0094 5FAE00BB 		.word	-1157583265
 730 0098 AF1C8BBA 		.word	-1165288273
 731 009c F796E7B9 		.word	-1176004873
 732 00a0 00000000 		.word	0
 733              		.data
 734              		.align	2
 735              		.set	.LANCHOR2,. + 0
 736              		.type	blockSize, %object
 737              		.size	blockSize, 4
 738              	blockSize:
ARM GAS  C:\Users\jlabe\AppData\Local\Temp\ccNBMM2b.s 			page 17


 739 0000 F4010000 		.word	500
 740              		.type	dataLength, %object
 741              		.size	dataLength, 4
 742              	dataLength:
 743 0004 F4010000 		.word	500
 744              		.type	Fs, %object
 745              		.size	Fs, 4
 746              	Fs:
 747 0008 0000C842 		.word	1120403456
 748              		.type	numBlocks, %object
 749              		.size	numBlocks, 4
 750              	numBlocks:
 751 000c 01000000 		.word	1
 752              		.bss
 753              		.align	2
 754              		.set	.LANCHOR0,. + 0
 755              		.type	firStateF32_LP, %object
 756              		.size	firStateF32_LP, 2160
 757              	firStateF32_LP:
 758 0000 00000000 		.space	2160
 758      00000000 
 758      00000000 
 758      00000000 
 758      00000000 
 759              		.text
 760              	.Letext0:
 761              		.file 2 "c:\\program files (x86)\\cypress\\psoc creator\\4.4\\psoc creator\\import\\gnu\\arm\\5.4.
 762              		.file 3 "c:\\program files (x86)\\cypress\\psoc creator\\4.4\\psoc creator\\import\\gnu\\arm\\5.4.
 763              		.file 4 "Generated_Source\\PSoC6\\pdl\\drivers/peripheral/device/cy_device.h"
 764              		.file 5 "Generated_Source\\PSoC6\\pdl\\drivers/peripheral/syslib/cy_syslib.h"
 765              		.file 6 "Generated_Source\\PSoC6\\pdl\\drivers/peripheral/scb/cy_scb_i2c.h"
 766              		.file 7 "Generated_Source\\PSoC6\\pdl\\drivers/peripheral/scb/cy_scb_spi.h"
 767              		.file 8 "Generated_Source\\PSoC6\\pdl\\drivers/peripheral/scb/cy_scb_uart.h"
 768              		.file 9 "Generated_Source\\PSoC6\\pdl\\drivers/peripheral/tcpwm/cy_tcpwm_counter.h"
 769              		.file 10 "Generated_Source\\PSoC6\\pdl\\drivers/peripheral/tcpwm/cy_tcpwm_pwm.h"
 770              		.file 11 ".\\CMSIS\\DSP\\Include/arm_math.h"
 771              		.file 12 "Generated_Source\\PSoC6\\pdl\\rtos/FreeRTOS/10.0.1/Source/portable/GCC/CM4F/portmacro.h"
 772              		.file 13 ".\\CMSIS\\Core\\Include/core_cm4.h"
 773              		.file 14 "Generated_Source\\PSoC6/PWM.h"
 774              		.file 15 "Generated_Source\\PSoC6/CY_EINK_Timer.h"
 775              		.file 16 "Generated_Source\\PSoC6/CY_EINK_SPIM.h"
 776              		.file 17 "Generated_Source\\PSoC6/I2C_1.h"
 777              		.file 18 "Generated_Source\\PSoC6/UART_1.h"
 778              		.file 19 "Generated_Source\\PSoC6/I2C_2.h"
 779              		.file 20 "./Commun.h"
 780              		.file 21 "c:\\program files (x86)\\cypress\\psoc creator\\4.4\\psoc creator\\import\\gnu\\arm\\5.4
 781              		.file 22 "Generated_Source\\PSoC6\\pdl\\rtos/FreeRTOS/10.0.1/Source/include/task.h"